00000000  D82435D17E63A2    fsub dword [rsi-0x5d9c812f]
00000007  CE                db 0xce
00000008  A256D7A06ED70E2B  mov [qword 0x232b0ed76ea0d756],al
         -23
00000011  2B2B              sub ebp,[rbx]
00000013  AE                scasb
00000014  EB5E              jmp short 0x74
00000016  21932B2B2B2B      and [rbx+0x2b2b2b2b],edx
0000001C  C2AC29            ret 0x29ac
0000001F  2B2B              sub ebp,[rbx]
00000021  A06ED70E2B2B2B2F  mov al,[qword 0xae2f2b2b2b0ed76e]
         -AE
0000002A  EB5E              jmp short 0x8a
0000002C  21932B2B2B2B      and [rbx+0x2b2b2b2b],edx
00000032  C25A29            ret 0x295a
00000035  2B2B              sub ebp,[rbx]
00000037  A06ED70E2B2BAB2B  mov al,[qword 0xae2bab2b2b0ed76e]
         -AE
00000040  EB5F              jmp short 0xa1
00000042  21932B2B2B2B      and [rbx+0x2b2b2b2b],edx
00000048  C27029            ret 0x2970
0000004B  2B2B              sub ebp,[rbx]
0000004D  A06ED70E2B2B292B  mov al,[qword 0xae2b292b2b0ed76e]
         -AE
00000056  EB5E              jmp short 0xb6
00000058  21932B2B2B2B      and [rbx+0x2b2b2b2b],edx
0000005E  C26E29            ret 0x296e
00000061  2B2B              sub ebp,[rbx]
00000063  A06ED70E2B2B0B2B  mov al,[qword 0xae2b0b2b2b0ed76e]
         -AE
0000006C  EB5F              jmp short 0xcd
0000006E  21932B2B2B2B      and [rbx+0x2b2b2b2b],edx
00000074  C20429            ret 0x2904
00000077  2B2B              sub ebp,[rbx]
00000079  A06ED7A8CB2FAEEB  mov al,[qword 0x5febae2fcba8d76e]
         -5F
00000082  21932B2B2B2B      and [rbx+0x2b2b2b2b],edx
00000088  C23029            ret 0x2930
0000008B  2B2B              sub ebp,[rbx]
0000008D  A06ED70E2B2B2B29  mov al,[qword 0xae292b2b2b0ed76e]
         -AE
00000096  EB5E              jmp short 0xf6
00000098  21932B2B2B2B      and [rbx+0x2b2b2b2b],edx
0000009E  C22E29            ret 0x292e
000000A1  2B2B              sub ebp,[rbx]
000000A3  A06ED70E2B2A2B2B  mov al,[qword 0xae2b2b2a2b0ed76e]
         -AE
000000AC  EB5F              jmp short 0x10d
000000AE  21932B2B2B2B      and [rbx+0x2b2b2b2b],edx
000000B4  C2C42A            ret 0x2ac4
000000B7  2B2B              sub ebp,[rbx]
000000B9  A06ED70E2B2B3B2B  mov al,[qword 0xae2b3b2b2b0ed76e]
         -AE
000000C2  EB5F              jmp short 0x123
000000C4  21932B2B2B2B      and [rbx+0x2b2b2b2b],edx
000000CA  C2F22A            ret 0x2af2
000000CD  2B2B              sub ebp,[rbx]
000000CF  A06ED70E2B2F2B2B  mov al,[qword 0xae2b2b2f2b0ed76e]
         -AE
000000D8  EB5F              jmp short 0x139
000000DA  21932B2B2B2B      and [rbx+0x2b2b2b2b],edx
000000E0  C2E82A            ret 0x2ae8
000000E3  2B2B              sub ebp,[rbx]
000000E5  A06ED70EAB2B2B2B  mov al,[qword 0xae2b2b2bab0ed76e]
         -AE
000000EE  EB5E              jmp short 0x14e
000000F0  21932B2B2B2B      and [rbx+0x2b2b2b2b],edx
000000F6  C2862A            ret 0x2a86
000000F9  2B2B              sub ebp,[rbx]
000000FB  A06ED70E2B2B232B  mov al,[qword 0xae2b232b2b0ed76e]
         -AE
00000104  EB5E              jmp short 0x164
00000106  21932B2B2B2B      and [rbx+0x2b2b2b2b],edx
0000010C  C2BC2A            ret 0x2abc
0000010F  2B2B              sub ebp,[rbx]
00000111  A06ED70E2B2B2B6B  mov al,[qword 0xae6b2b2b2b0ed76e]
         -AE
0000011A  EB5E              jmp short 0x17a
0000011C  21932B2B2B2B      and [rbx+0x2b2b2b2b],edx
00000122  C2AA2A            ret 0x2aaa
00000125  2B2B              sub ebp,[rbx]
00000127  A06ED70E2B2B6B2B  mov al,[qword 0xae2b6b2b2b0ed76e]
         -AE
00000130  EB5F              jmp short 0x191
00000132  21932B2B2B2B      and [rbx+0x2b2b2b2b],edx
00000138  C2402A            ret 0x2a40
0000013B  2B2B              sub ebp,[rbx]
0000013D  A06ED7A8CB0BAEEB  mov al,[qword 0x5eebae0bcba8d76e]
         -5E
00000146  21932B2B2B2B      and [rbx+0x2b2b2b2b],edx
0000014C  C27C2A            ret 0x2a7c
0000014F  2B2B              sub ebp,[rbx]
00000151  A06ED70E2B2B2B3B  mov al,[qword 0xae3b2b2b2b0ed76e]
         -AE
0000015A  EB5E              jmp short 0x1ba
0000015C  21932B2B2B2B      and [rbx+0x2b2b2b2b],edx
00000162  C26A2A            ret 0x2a6a
00000165  2B2B              sub ebp,[rbx]
00000167  A06ED70E2B2B2B0B  mov al,[qword 0xae0b2b2b2b0ed76e]
         -AE
00000170  EB5F              jmp short 0x1d1
00000172  21932B2B2B2B      and [rbx+0x2b2b2b2b],edx
00000178  C2002A            ret 0x2a00
0000017B  2B2B              sub ebp,[rbx]
0000017D  A06ED7A8CB3BAEEB  mov al,[qword 0x5febae3bcba8d76e]
         -5F
00000186  21932B2B2B2B      and [rbx+0x2b2b2b2b],edx
0000018C  C23C2A            ret 0x2a3c
0000018F  2B2B              sub ebp,[rbx]
00000191  A06ED70E2B2B2F2B  mov al,[qword 0xae2b2f2b2b0ed76e]
         -AE
0000019A  EB5E              jmp short 0x1fa
0000019C  21932B2B2B2B      and [rbx+0x2b2b2b2b],edx
000001A2  C22A2A            ret 0x2a2a
000001A5  2B2B              sub ebp,[rbx]
000001A7  A06ED70E2B2B2A2B  mov al,[qword 0xae2b2a2b2b0ed76e]
         -AE
000001B0  EB5E              jmp short 0x210
000001B2  21932B2B2B2B      and [rbx+0x2b2b2b2b],edx
000001B8  C2C02B            ret 0x2bc0
000001BB  2B2B              sub ebp,[rbx]
000001BD  A06ED70E2B3B2B2B  mov al,[qword 0xae2b2b3b2b0ed76e]
         -AE
000001C6  EB5F              jmp short 0x227
000001C8  21932B2B2B2B      and [rbx+0x2b2b2b2b],edx
000001CE  C2FE2B            ret 0x2bfe
000001D1  2B2B              sub ebp,[rbx]
000001D3  A06ED70E2B292B2B  mov al,[qword 0xae2b2b292b0ed76e]
         -AE
000001DC  EB5F              jmp short 0x23d
000001DE  21932B2B2B2B      and [rbx+0x2b2b2b2b],edx
000001E4  C2942B            ret 0x2b94
000001E7  2B2B              sub ebp,[rbx]
000001E9  A06ED7A8CB6BAEEB  mov al,[qword 0x5febae6bcba8d76e]
         -5F
000001F2  21932B2B2B2B      and [rbx+0x2b2b2b2b],edx
000001F8  C2802B            ret 0x2b80
000001FB  2B2B              sub ebp,[rbx]
000001FD  A06ED7AEEB532193  mov al,[qword 0x2b932153ebaed76e]
         -2B
00000206  2B2B              sub ebp,[rbx]
00000208  2BC2              sub eax,edx
0000020A  B12B              mov cl,0x2b
0000020C  2B2B              sub ebp,[rbx]
0000020E  A06ED70E2B2B2B23  mov al,[qword 0xae232b2b2b0ed76e]
         -AE
00000217  EB5E              jmp short 0x277
00000219  21932B2B2B2B      and [rbx+0x2b2b2b2b],edx
0000021F  C2AF2B            ret 0x2baf
00000222  2B2B              sub ebp,[rbx]
00000224  A06ED70E2B0B2B2B  mov al,[qword 0xae2b2b0b2b0ed76e]
         -AE
0000022D  EB5F              jmp short 0x28e
0000022F  2C93              sub al,0x93
00000231  2B2B              sub ebp,[rbx]
00000233  2B2B              sub ebp,[rbx]
00000235  C05AA06E          rcr byte [rdx-0x60],byte 0x6e
00000239  D7                xlatb
0000023A  A8CB              test al,0xcb
0000023C  23AEEB5F2C93      and ebp,[rsi-0x6cd3a015]
00000242  2B2B              sub ebp,[rbx]
00000244  2B2B              sub ebp,[rbx]
00000246  C04BA06E          ror byte [rbx-0x60],byte 0x6e
0000024A  D7                xlatb
0000024B  0E                db 0x0e
0000024C  2BAB2B2BAEEB      sub ebp,[rbx-0x1451d4d5]
00000252  5F                pop rdi
00000253  2C93              sub al,0x93
00000255  2B2B              sub ebp,[rbx]
00000257  2B2B              sub ebp,[rbx]
00000259  C066A06E          shl byte [rsi-0x60],byte 0x6e
0000025D  D7                xlatb
0000025E  A8CB              test al,0xcb
00000260  29AEEB5E2C93      sub [rsi-0x6cd3a115],ebp
00000266  2B2B              sub ebp,[rbx]
00000268  2B2B              sub ebp,[rbx]
0000026A  C017A0            rcl byte [rdi],byte 0xa0
0000026D  6E                outsb
0000026E  D7                xlatb
0000026F  0E                db 0x0e
00000270  2B2B              sub ebp,[rbx]
00000272  2B2A              sub ebp,[rdx]
00000274  AE                scasb
00000275  EB5E              jmp short 0x2d5
00000277  2C93              sub al,0x93
00000279  2B2B              sub ebp,[rbx]
0000027B  2B2B              sub ebp,[rbx]
0000027D  C002A0            rol byte [rdx],byte 0xa0
00000280  6E                outsb
00000281  D7                xlatb
00000282  A8CB              test al,0xcb
00000284  2AAEEB5F2C93      sub ch,[rsi-0x6cd3a015]
0000028A  2B2B              sub ebp,[rbx]
0000028C  2B2B              sub ebp,[rbx]
0000028E  C0                db 0xc0
0000028F  33A06ED70E2B      xor esp,[rax+0x2b0ed76e]
00000295  6B2B2B            imul ebp,[rbx],byte +0x2b
00000298  AE                scasb
00000299  EB5E              jmp short 0x2f9
0000029B  2C93              sub al,0x93
0000029D  2B2B              sub ebp,[rbx]
0000029F  2B2B              sub ebp,[rbx]
000002A1  C02E93            shr byte [rsi],byte 0x93
000002A4  2A2B              sub ch,[rbx]
000002A6  2B2B              sub ebp,[rbx]
000002A8  76E8              jna 0x292
