
Bangalore:     file format elf64-x86-64


Disassembly of section .text:

0000000000401000 <_start>:
  401000:	41 b9 00 00 00 00    	mov    $0x0,%r9d
  401006:	48 b8 00 20 40 00 00 	movabs $0x402000,%rax
  40100d:	00 00 00 
  401010:	e8 9f 00 00 00       	callq  4010b4 <_printString>
  401015:	48 31 c9             	xor    %rcx,%rcx

0000000000401018 <_flagLoop>:
  401018:	48 89 cf             	mov    %rcx,%rdi
  40101b:	e8 3d 00 00 00       	callq  40105d <_Step1>
  401020:	e8 49 00 00 00       	callq  40106e <_Step2>
  401025:	e8 58 00 00 00       	callq  401082 <_Step3>
  40102a:	e8 66 00 00 00       	callq  401095 <_Step4>
  40102f:	88 87 5c 25 40 00    	mov    %al,0x40255c(%rdi)
  401035:	c6 87 5d 25 40 00 0a 	movb   $0xa,0x40255d(%rdi)
  40103c:	c6 87 5e 25 40 00 00 	movb   $0x0,0x40255e(%rdi)
  401043:	48 b8 5c 25 40 00 00 	movabs $0x40255c,%rax
  40104a:	00 00 00 
  40104d:	e8 62 00 00 00       	callq  4010b4 <_printString>
  401052:	48 ff c1             	inc    %rcx
  401055:	48 83 f9 1e          	cmp    $0x1e,%rcx
  401059:	72 bd                	jb     401018 <_flagLoop>
  40105b:	eb 4d                	jmp    4010aa <_alldone>

000000000040105d <_Step1>:
  40105d:	e8 b2 00 00 00       	callq  401114 <GetVals4>
  401062:	48 89 c1             	mov    %rax,%rcx
  401065:	e8 86 00 00 00       	callq  4010f0 <GetFlagEnc>
  40106a:	48 29 c8             	sub    %rcx,%rax
  40106d:	c3                   	retq   

000000000040106e <_Step2>:
  40106e:	51                   	push   %rcx
  40106f:	48 89 c2             	mov    %rax,%rdx
  401072:	e8 94 00 00 00       	callq  40110b <GetVals3>
  401077:	48 89 c1             	mov    %rax,%rcx
  40107a:	48 89 d0             	mov    %rdx,%rax
  40107d:	48 31 c8             	xor    %rcx,%rax
  401080:	5f                   	pop    %rdi
  401081:	c3                   	retq   

0000000000401082 <_Step3>:
  401082:	51                   	push   %rcx
  401083:	48 89 c2             	mov    %rax,%rdx
  401086:	e8 77 00 00 00       	callq  401102 <GetVals2>
  40108b:	48 89 c1             	mov    %rax,%rcx
  40108e:	48 89 d0             	mov    %rdx,%rax
  401091:	48 29 c8             	sub    %rcx,%rax
  401094:	c3                   	retq   

0000000000401095 <_Step4>:
  401095:	51                   	push   %rcx
  401096:	48 89 c2             	mov    %rax,%rdx
  401099:	e8 5b 00 00 00       	callq  4010f9 <GetVals1>
  40109e:	48 89 c1             	mov    %rax,%rcx
  4010a1:	48 89 d0             	mov    %rdx,%rax
  4010a4:	48 31 c8             	xor    %rcx,%rax
  4010a7:	59                   	pop    %rcx
  4010a8:	59                   	pop    %rcx
  4010a9:	c3                   	retq   

00000000004010aa <_alldone>:
  4010aa:	b8 3c 00 00 00       	mov    $0x3c,%eax
  4010af:	4c 89 cf             	mov    %r9,%rdi
  4010b2:	0f 05                	syscall 

00000000004010b4 <_printString>:
  4010b4:	50                   	push   %rax
  4010b5:	52                   	push   %rdx
  4010b6:	51                   	push   %rcx
  4010b7:	53                   	push   %rbx
  4010b8:	50                   	push   %rax
  4010b9:	48 31 db             	xor    %rbx,%rbx
  4010bc:	48 31 c9             	xor    %rcx,%rcx

00000000004010bf <_printStringLoop>:
  4010bf:	48 ff c0             	inc    %rax
  4010c2:	48 ff c3             	inc    %rbx
  4010c5:	8a 08                	mov    (%rax),%cl
  4010c7:	80 f9 00             	cmp    $0x0,%cl
  4010ca:	75 f3                	jne    4010bf <_printStringLoop>
  4010cc:	b8 01 00 00 00       	mov    $0x1,%eax
  4010d1:	bf 01 00 00 00       	mov    $0x1,%edi
  4010d6:	5e                   	pop    %rsi
  4010d7:	48 89 da             	mov    %rbx,%rdx
  4010da:	0f 05                	syscall 
  4010dc:	5b                   	pop    %rbx
  4010dd:	59                   	pop    %rcx
  4010de:	5a                   	pop    %rdx
  4010df:	58                   	pop    %rax
  4010e0:	c3                   	retq   
  4010e1:	66 2e 0f 1f 84 00 00 	nopw   %cs:0x0(%rax,%rax,1)
  4010e8:	00 00 00 
  4010eb:	0f 1f 44 00 00       	nopl   0x0(%rax,%rax,1)

00000000004010f0 <GetFlagEnc>:
  4010f0:	48 8b 04 fd 6c 24 40 	mov    0x40246c(,%rdi,8),%rax
  4010f7:	00 
  4010f8:	c3                   	retq   

00000000004010f9 <GetVals1>:
  4010f9:	48 8b 04 fd ac 20 40 	mov    0x4020ac(,%rdi,8),%rax
  401100:	00 
  401101:	c3                   	retq   

0000000000401102 <GetVals2>:
  401102:	48 8b 04 fd 9c 21 40 	mov    0x40219c(,%rdi,8),%rax
  401109:	00 
  40110a:	c3                   	retq   

000000000040110b <GetVals3>:
  40110b:	48 8b 04 fd 8c 22 40 	mov    0x40228c(,%rdi,8),%rax
  401112:	00 
  401113:	c3                   	retq   

0000000000401114 <GetVals4>:
  401114:	48 8b 04 fd 7c 23 40 	mov    0x40237c(,%rdi,8),%rax
  40111b:	00 
  40111c:	c3                   	retq   
