
IntrinsicsChallenge.so:     file format elf64-x86-64


Disassembly of section .init:

0000000000000700 <_init>:
 700:	48 83 ec 08          	sub    $0x8,%rsp
 704:	48 8b 05 dd 18 20 00 	mov    0x2018dd(%rip),%rax        # 201fe8 <__gmon_start__>
 70b:	48 85 c0             	test   %rax,%rax
 70e:	74 02                	je     712 <_init+0x12>
 710:	ff d0                	callq  *%rax
 712:	48 83 c4 08          	add    $0x8,%rsp
 716:	c3                   	retq   

Disassembly of section .plt:

0000000000000720 <.plt>:
 720:	ff 35 62 18 20 00    	pushq  0x201862(%rip)        # 201f88 <_GLOBAL_OFFSET_TABLE_+0x8>
 726:	ff 25 64 18 20 00    	jmpq   *0x201864(%rip)        # 201f90 <_GLOBAL_OFFSET_TABLE_+0x10>
 72c:	0f 1f 40 00          	nopl   0x0(%rax)

0000000000000730 <puts@plt>:
 730:	ff 25 62 18 20 00    	jmpq   *0x201862(%rip)        # 201f98 <puts@GLIBC_2.2.5>
 736:	68 00 00 00 00       	pushq  $0x0
 73b:	e9 e0 ff ff ff       	jmpq   720 <.plt>

0000000000000740 <strlen@plt>:
 740:	ff 25 5a 18 20 00    	jmpq   *0x20185a(%rip)        # 201fa0 <strlen@GLIBC_2.2.5>
 746:	68 01 00 00 00       	pushq  $0x1
 74b:	e9 d0 ff ff ff       	jmpq   720 <.plt>

0000000000000750 <__stack_chk_fail@plt>:
 750:	ff 25 52 18 20 00    	jmpq   *0x201852(%rip)        # 201fa8 <__stack_chk_fail@GLIBC_2.4>
 756:	68 02 00 00 00       	pushq  $0x2
 75b:	e9 c0 ff ff ff       	jmpq   720 <.plt>

0000000000000760 <printf@plt>:
 760:	ff 25 4a 18 20 00    	jmpq   *0x20184a(%rip)        # 201fb0 <printf@GLIBC_2.2.5>
 766:	68 03 00 00 00       	pushq  $0x3
 76b:	e9 b0 ff ff ff       	jmpq   720 <.plt>

0000000000000770 <memcmp@plt>:
 770:	ff 25 42 18 20 00    	jmpq   *0x201842(%rip)        # 201fb8 <memcmp@GLIBC_2.2.5>
 776:	68 04 00 00 00       	pushq  $0x4
 77b:	e9 a0 ff ff ff       	jmpq   720 <.plt>

0000000000000780 <fgets@plt>:
 780:	ff 25 3a 18 20 00    	jmpq   *0x20183a(%rip)        # 201fc0 <fgets@GLIBC_2.2.5>
 786:	68 05 00 00 00       	pushq  $0x5
 78b:	e9 90 ff ff ff       	jmpq   720 <.plt>

0000000000000790 <exit@plt>:
 790:	ff 25 32 18 20 00    	jmpq   *0x201832(%rip)        # 201fc8 <exit@GLIBC_2.2.5>
 796:	68 06 00 00 00       	pushq  $0x6
 79b:	e9 80 ff ff ff       	jmpq   720 <.plt>

00000000000007a0 <__ctype_b_loc@plt>:
 7a0:	ff 25 2a 18 20 00    	jmpq   *0x20182a(%rip)        # 201fd0 <__ctype_b_loc@GLIBC_2.3>
 7a6:	68 07 00 00 00       	pushq  $0x7
 7ab:	e9 70 ff ff ff       	jmpq   720 <.plt>

Disassembly of section .plt.got:

00000000000007b0 <__cxa_finalize@plt>:
 7b0:	ff 25 42 18 20 00    	jmpq   *0x201842(%rip)        # 201ff8 <__cxa_finalize@GLIBC_2.2.5>
 7b6:	66 90                	xchg   %ax,%ax

Disassembly of section .text:

00000000000007c0 <_start>:
     7c0:	31 ed                	xor    %ebp,%ebp
     7c2:	49 89 d1             	mov    %rdx,%r9
     7c5:	5e                   	pop    %rsi
     7c6:	48 89 e2             	mov    %rsp,%rdx
     7c9:	48 83 e4 f0          	and    $0xfffffffffffffff0,%rsp
     7cd:	50                   	push   %rax
     7ce:	54                   	push   %rsp
     7cf:	4c 8d 05 3a 08 00 00 	lea    0x83a(%rip),%r8        # 1010 <__libc_csu_fini>
     7d6:	48 8d 0d c3 07 00 00 	lea    0x7c3(%rip),%rcx        # fa0 <__libc_csu_init>
     7dd:	48 8d 3d d6 01 00 00 	lea    0x1d6(%rip),%rdi        # 9ba <main>
     7e4:	ff 15 f6 17 20 00    	callq  *0x2017f6(%rip)        # 201fe0 <__libc_start_main@GLIBC_2.2.5>
     7ea:	f4                   	hlt    
     7eb:	0f 1f 44 00 00       	nopl   0x0(%rax,%rax,1)

00000000000007f0 <deregister_tm_clones>:
     7f0:	48 8d 3d 19 18 20 00 	lea    0x201819(%rip),%rdi        # 202010 <__TMC_END__>
     7f7:	55                   	push   %rbp
     7f8:	48 8d 05 11 18 20 00 	lea    0x201811(%rip),%rax        # 202010 <__TMC_END__>
     7ff:	48 39 f8             	cmp    %rdi,%rax
     802:	48 89 e5             	mov    %rsp,%rbp
     805:	74 19                	je     820 <deregister_tm_clones+0x30>
     807:	48 8b 05 ca 17 20 00 	mov    0x2017ca(%rip),%rax        # 201fd8 <_ITM_deregisterTMCloneTable>
     80e:	48 85 c0             	test   %rax,%rax
     811:	74 0d                	je     820 <deregister_tm_clones+0x30>
     813:	5d                   	pop    %rbp
     814:	ff e0                	jmpq   *%rax
     816:	66 2e 0f 1f 84 00 00 	nopw   %cs:0x0(%rax,%rax,1)
     81d:	00 00 00 
     820:	5d                   	pop    %rbp
     821:	c3                   	retq   
     822:	0f 1f 40 00          	nopl   0x0(%rax)
     826:	66 2e 0f 1f 84 00 00 	nopw   %cs:0x0(%rax,%rax,1)
     82d:	00 00 00 

0000000000000830 <register_tm_clones>:
     830:	48 8d 3d d9 17 20 00 	lea    0x2017d9(%rip),%rdi        # 202010 <__TMC_END__>
     837:	48 8d 35 d2 17 20 00 	lea    0x2017d2(%rip),%rsi        # 202010 <__TMC_END__>
     83e:	55                   	push   %rbp
     83f:	48 29 fe             	sub    %rdi,%rsi
     842:	48 89 e5             	mov    %rsp,%rbp
     845:	48 c1 fe 03          	sar    $0x3,%rsi
     849:	48 89 f0             	mov    %rsi,%rax
     84c:	48 c1 e8 3f          	shr    $0x3f,%rax
     850:	48 01 c6             	add    %rax,%rsi
     853:	48 d1 fe             	sar    %rsi
     856:	74 18                	je     870 <register_tm_clones+0x40>
     858:	48 8b 05 91 17 20 00 	mov    0x201791(%rip),%rax        # 201ff0 <_ITM_registerTMCloneTable>
     85f:	48 85 c0             	test   %rax,%rax
     862:	74 0c                	je     870 <register_tm_clones+0x40>
     864:	5d                   	pop    %rbp
     865:	ff e0                	jmpq   *%rax
     867:	66 0f 1f 84 00 00 00 	nopw   0x0(%rax,%rax,1)
     86e:	00 00 
     870:	5d                   	pop    %rbp
     871:	c3                   	retq   
     872:	0f 1f 40 00          	nopl   0x0(%rax)
     876:	66 2e 0f 1f 84 00 00 	nopw   %cs:0x0(%rax,%rax,1)
     87d:	00 00 00 

0000000000000880 <__do_global_dtors_aux>:
     880:	80 3d a1 17 20 00 00 	cmpb   $0x0,0x2017a1(%rip)        # 202028 <completed.7698>
     887:	75 2f                	jne    8b8 <__do_global_dtors_aux+0x38>
     889:	48 83 3d 67 17 20 00 	cmpq   $0x0,0x201767(%rip)        # 201ff8 <__cxa_finalize@GLIBC_2.2.5>
     890:	00 
     891:	55                   	push   %rbp
     892:	48 89 e5             	mov    %rsp,%rbp
     895:	74 0c                	je     8a3 <__do_global_dtors_aux+0x23>
     897:	48 8b 3d 6a 17 20 00 	mov    0x20176a(%rip),%rdi        # 202008 <__dso_handle>
     89e:	e8 0d ff ff ff       	callq  7b0 <__cxa_finalize@plt>
     8a3:	e8 48 ff ff ff       	callq  7f0 <deregister_tm_clones>
     8a8:	c6 05 79 17 20 00 01 	movb   $0x1,0x201779(%rip)        # 202028 <completed.7698>
     8af:	5d                   	pop    %rbp
     8b0:	c3                   	retq   
     8b1:	0f 1f 80 00 00 00 00 	nopl   0x0(%rax)
     8b8:	f3 c3                	repz retq 
     8ba:	66 0f 1f 44 00 00    	nopw   0x0(%rax,%rax,1)

00000000000008c0 <frame_dummy>:
     8c0:	55                   	push   %rbp
     8c1:	48 89 e5             	mov    %rsp,%rbp
     8c4:	5d                   	pop    %rbp
     8c5:	e9 66 ff ff ff       	jmpq   830 <register_tm_clones>

00000000000008ca <crc32_for_byte>:
     8ca:	55                   	push   %rbp
     8cb:	48 89 e5             	mov    %rsp,%rbp
     8ce:	89 7d ec             	mov    %edi,-0x14(%rbp)
     8d1:	c7 45 fc 00 00 00 00 	movl   $0x0,-0x4(%rbp)
     8d8:	eb 24                	jmp    8fe <crc32_for_byte+0x34>
     8da:	8b 45 ec             	mov    -0x14(%rbp),%eax
     8dd:	83 e0 01             	and    $0x1,%eax
     8e0:	85 c0                	test   %eax,%eax
     8e2:	74 07                	je     8eb <crc32_for_byte+0x21>
     8e4:	ba 00 00 00 00       	mov    $0x0,%edx
     8e9:	eb 05                	jmp    8f0 <crc32_for_byte+0x26>
     8eb:	ba 20 83 b8 ed       	mov    $0xedb88320,%edx
     8f0:	8b 45 ec             	mov    -0x14(%rbp),%eax
     8f3:	d1 e8                	shr    %eax
     8f5:	31 d0                	xor    %edx,%eax
     8f7:	89 45 ec             	mov    %eax,-0x14(%rbp)
     8fa:	83 45 fc 01          	addl   $0x1,-0x4(%rbp)
     8fe:	83 7d fc 07          	cmpl   $0x7,-0x4(%rbp)
     902:	7e d6                	jle    8da <crc32_for_byte+0x10>
     904:	8b 45 ec             	mov    -0x14(%rbp),%eax
     907:	35 00 00 00 ff       	xor    $0xff000000,%eax
     90c:	5d                   	pop    %rbp
     90d:	c3                   	retq   

000000000000090e <crc32>:
     90e:	55                   	push   %rbp
     90f:	48 89 e5             	mov    %rsp,%rbp
     912:	48 83 ec 20          	sub    $0x20,%rsp
     916:	48 89 7d e8          	mov    %rdi,-0x18(%rbp)
     91a:	89 75 e4             	mov    %esi,-0x1c(%rbp)
     91d:	c7 45 fc 00 00 00 00 	movl   $0x0,-0x4(%rbp)
     924:	8b 05 16 17 20 00    	mov    0x201716(%rip),%eax        # 202040 <table.23713>
     92a:	85 c0                	test   %eax,%eax
     92c:	75 39                	jne    967 <crc32+0x59>
     92e:	c7 45 f8 00 00 00 00 	movl   $0x0,-0x8(%rbp)
     935:	eb 27                	jmp    95e <crc32+0x50>
     937:	8b 45 f8             	mov    -0x8(%rbp),%eax
     93a:	89 c7                	mov    %eax,%edi
     93c:	e8 89 ff ff ff       	callq  8ca <crc32_for_byte>
     941:	89 c1                	mov    %eax,%ecx
     943:	8b 45 f8             	mov    -0x8(%rbp),%eax
     946:	48 98                	cltq   
     948:	48 8d 14 85 00 00 00 	lea    0x0(,%rax,4),%rdx
     94f:	00 
     950:	48 8d 05 e9 16 20 00 	lea    0x2016e9(%rip),%rax        # 202040 <table.23713>
     957:	89 0c 02             	mov    %ecx,(%rdx,%rax,1)
     95a:	83 45 f8 01          	addl   $0x1,-0x8(%rbp)
     95e:	81 7d f8 ff 00 00 00 	cmpl   $0xff,-0x8(%rbp)
     965:	7e d0                	jle    937 <crc32+0x29>
     967:	c7 45 f8 00 00 00 00 	movl   $0x0,-0x8(%rbp)
     96e:	eb 3d                	jmp    9ad <crc32+0x9f>
     970:	8b 45 fc             	mov    -0x4(%rbp),%eax
     973:	89 c1                	mov    %eax,%ecx
     975:	8b 45 f8             	mov    -0x8(%rbp),%eax
     978:	48 63 d0             	movslq %eax,%rdx
     97b:	48 8b 45 e8          	mov    -0x18(%rbp),%rax
     97f:	48 01 d0             	add    %rdx,%rax
     982:	0f b6 00             	movzbl (%rax),%eax
     985:	31 c8                	xor    %ecx,%eax
     987:	0f b6 c0             	movzbl %al,%eax
     98a:	48 98                	cltq   
     98c:	48 8d 14 85 00 00 00 	lea    0x0(,%rax,4),%rdx
     993:	00 
     994:	48 8d 05 a5 16 20 00 	lea    0x2016a5(%rip),%rax        # 202040 <table.23713>
     99b:	8b 04 02             	mov    (%rdx,%rax,1),%eax
     99e:	8b 55 fc             	mov    -0x4(%rbp),%edx
     9a1:	c1 ea 08             	shr    $0x8,%edx
     9a4:	31 d0                	xor    %edx,%eax
     9a6:	89 45 fc             	mov    %eax,-0x4(%rbp)
     9a9:	83 45 f8 01          	addl   $0x1,-0x8(%rbp)
     9ad:	8b 45 f8             	mov    -0x8(%rbp),%eax
     9b0:	3b 45 e4             	cmp    -0x1c(%rbp),%eax
     9b3:	7c bb                	jl     970 <crc32+0x62>
     9b5:	8b 45 fc             	mov    -0x4(%rbp),%eax
     9b8:	c9                   	leaveq 
     9b9:	c3                   	retq   

00000000000009ba <main>:
     9ba:	4c 8d 54 24 08       	lea    0x8(%rsp),%r10
     9bf:	48 83 e4 e0          	and    $0xffffffffffffffe0,%rsp
     9c3:	41 ff 72 f8          	pushq  -0x8(%r10)
     9c7:	55                   	push   %rbp
     9c8:	48 89 e5             	mov    %rsp,%rbp
     9cb:	41 57                	push   %r15
     9cd:	41 56                	push   %r14
     9cf:	41 55                	push   %r13
     9d1:	41 54                	push   %r12
     9d3:	41 52                	push   %r10
     9d5:	53                   	push   %rbx
     9d6:	48 81 ec a0 02 00 00 	sub    $0x2a0,%rsp
     9dd:	64 48 8b 04 25 28 00 	mov    %fs:0x28,%rax
     9e4:	00 00 
     9e6:	48 89 45 c8          	mov    %rax,-0x38(%rbp)
     9ea:	31 c0                	xor    %eax,%eax
     9ec:	c5 f9 ef c0          	vpxor  %xmm0,%xmm0,%xmm0
     9f0:	c5 fd 7f 85 70 fd ff 	vmovdqa %ymm0,-0x290(%rbp)
     9f7:	ff 
     9f8:	48 8d 3d 41 06 00 00 	lea    0x641(%rip),%rdi        # 1040 <_IO_stdin_used+0x20>
     9ff:	e8 2c fd ff ff       	callq  730 <puts@plt>
     a04:	48 8b 15 15 16 20 00 	mov    0x201615(%rip),%rdx        # 202020 <stdin@@GLIBC_2.2.5>
     a0b:	48 8d 85 70 fd ff ff 	lea    -0x290(%rbp),%rax
     a12:	be 20 00 00 00       	mov    $0x20,%esi
     a17:	48 89 c7             	mov    %rax,%rdi
     a1a:	e8 61 fd ff ff       	callq  780 <fgets@plt>
     a1f:	48 8d 85 70 fd ff ff 	lea    -0x290(%rbp),%rax
     a26:	48 89 c7             	mov    %rax,%rdi
     a29:	e8 12 fd ff ff       	callq  740 <strlen@plt>
     a2e:	89 85 40 fd ff ff    	mov    %eax,-0x2c0(%rbp)
     a34:	eb 07                	jmp    a3d <main+0x83>
     a36:	83 ad 40 fd ff ff 01 	subl   $0x1,-0x2c0(%rbp)
     a3d:	83 bd 40 fd ff ff 00 	cmpl   $0x0,-0x2c0(%rbp)
     a44:	7e 3b                	jle    a81 <main+0xc7>
     a46:	e8 55 fd ff ff       	callq  7a0 <__ctype_b_loc@plt>
     a4b:	48 8b 00             	mov    (%rax),%rax
     a4e:	8b 95 40 fd ff ff    	mov    -0x2c0(%rbp),%edx
     a54:	48 63 d2             	movslq %edx,%rdx
     a57:	48 8d 4a ff          	lea    -0x1(%rdx),%rcx
     a5b:	48 8d 95 70 fd ff ff 	lea    -0x290(%rbp),%rdx
     a62:	48 01 ca             	add    %rcx,%rdx
     a65:	0f b6 12             	movzbl (%rdx),%edx
     a68:	48 0f be d2          	movsbq %dl,%rdx
     a6c:	48 01 d2             	add    %rdx,%rdx
     a6f:	48 01 d0             	add    %rdx,%rax
     a72:	0f b7 00             	movzwl (%rax),%eax
     a75:	0f b7 c0             	movzwl %ax,%eax
     a78:	25 00 20 00 00       	and    $0x2000,%eax
     a7d:	85 c0                	test   %eax,%eax
     a7f:	75 b5                	jne    a36 <main+0x7c>
     a81:	83 bd 40 fd ff ff 10 	cmpl   $0x10,-0x2c0(%rbp)
     a88:	74 16                	je     aa0 <main+0xe6>
     a8a:	48 8d 3d e7 05 00 00 	lea    0x5e7(%rip),%rdi        # 1078 <_IO_stdin_used+0x58>
     a91:	e8 9a fc ff ff       	callq  730 <puts@plt>
     a96:	bf 01 00 00 00       	mov    $0x1,%edi
     a9b:	e8 f0 fc ff ff       	callq  790 <exit@plt>
     aa0:	c5 fd 6f 85 70 fd ff 	vmovdqa -0x290(%rbp),%ymm0
     aa7:	ff 
     aa8:	c5 fd 7f 85 d0 fd ff 	vmovdqa %ymm0,-0x230(%rbp)
     aaf:	ff 
     ab0:	c7 85 40 fd ff ff 00 	movl   $0x0,-0x2c0(%rbp)
     ab7:	00 00 00 
     aba:	e9 8e 00 00 00       	jmpq   b4d <main+0x193>
     abf:	48 8d 85 d0 fd ff ff 	lea    -0x230(%rbp),%rax
     ac6:	48 8b 00             	mov    (%rax),%rax
     ac9:	49 89 c4             	mov    %rax,%r12
     acc:	41 bd 00 00 00 00    	mov    $0x0,%r13d
     ad2:	48 8d 85 d0 fd ff ff 	lea    -0x230(%rbp),%rax
     ad9:	48 83 c0 08          	add    $0x8,%rax
     add:	48 8b 00             	mov    (%rax),%rax
     ae0:	49 89 c6             	mov    %rax,%r14
     ae3:	41 bf 00 00 00 00    	mov    $0x0,%r15d
     ae9:	48 8d 8d d0 fd ff ff 	lea    -0x230(%rbp),%rcx
     af0:	4c 89 ea             	mov    %r13,%rdx
     af3:	49 0f af d6          	imul   %r14,%rdx
     af7:	4c 89 f8             	mov    %r15,%rax
     afa:	49 0f af c4          	imul   %r12,%rax
     afe:	48 8d 34 02          	lea    (%rdx,%rax,1),%rsi
     b02:	4c 89 e0             	mov    %r12,%rax
     b05:	49 f7 e6             	mul    %r14
     b08:	48 01 d6             	add    %rdx,%rsi
     b0b:	48 89 f2             	mov    %rsi,%rdx
     b0e:	48 89 01             	mov    %rax,(%rcx)
     b11:	48 89 51 08          	mov    %rdx,0x8(%rcx)
     b15:	8b 85 40 fd ff ff    	mov    -0x2c0(%rbp),%eax
     b1b:	48 98                	cltq   
     b1d:	48 8d 14 85 00 00 00 	lea    0x0(,%rax,4),%rdx
     b24:	00 
     b25:	48 8d 85 90 fd ff ff 	lea    -0x270(%rbp),%rax
     b2c:	48 8d 1c 10          	lea    (%rax,%rdx,1),%rbx
     b30:	48 8d 85 d0 fd ff ff 	lea    -0x230(%rbp),%rax
     b37:	be 10 00 00 00       	mov    $0x10,%esi
     b3c:	48 89 c7             	mov    %rax,%rdi
     b3f:	e8 ca fd ff ff       	callq  90e <crc32>
     b44:	89 03                	mov    %eax,(%rbx)
     b46:	83 85 40 fd ff ff 01 	addl   $0x1,-0x2c0(%rbp)
     b4d:	83 bd 40 fd ff ff 07 	cmpl   $0x7,-0x2c0(%rbp)
     b54:	0f 8e 65 ff ff ff    	jle    abf <main+0x105>
     b5a:	48 8d 85 90 fd ff ff 	lea    -0x270(%rbp),%rax
     b61:	ba 20 00 00 00       	mov    $0x20,%edx
     b66:	48 8d 35 33 05 00 00 	lea    0x533(%rip),%rsi        # 10a0 <_IO_stdin_used+0x80>
     b6d:	48 89 c7             	mov    %rax,%rdi
     b70:	e8 fb fb ff ff       	callq  770 <memcmp@plt>
     b75:	85 c0                	test   %eax,%eax
     b77:	74 16                	je     b8f <main+0x1d5>
     b79:	48 8d 3d 41 05 00 00 	lea    0x541(%rip),%rdi        # 10c1 <_IO_stdin_used+0xa1>
     b80:	e8 ab fb ff ff       	callq  730 <puts@plt>
     b85:	bf 01 00 00 00       	mov    $0x1,%edi
     b8a:	e8 01 fc ff ff       	callq  790 <exit@plt>
     b8f:	c7 85 40 fd ff ff 00 	movl   $0x0,-0x2c0(%rbp)
     b96:	00 00 00 
     b99:	e9 d7 00 00 00       	jmpq   c75 <main+0x2bb>
     b9e:	8b 85 40 fd ff ff    	mov    -0x2c0(%rbp),%eax
     ba4:	48 98                	cltq   
     ba6:	48 8d 95 70 fd ff ff 	lea    -0x290(%rbp),%rdx
     bad:	48 01 d0             	add    %rdx,%rax
     bb0:	0f b6 00             	movzbl (%rax),%eax
     bb3:	0f be c0             	movsbl %al,%eax
     bb6:	89 85 44 fd ff ff    	mov    %eax,-0x2bc(%rbp)
     bbc:	8b 85 44 fd ff ff    	mov    -0x2bc(%rbp),%eax
     bc2:	83 e0 0f             	and    $0xf,%eax
     bc5:	f3 0f bd c0          	lzcnt  %eax,%eax
     bc9:	ba 20 00 00 00       	mov    $0x20,%edx
     bce:	29 c2                	sub    %eax,%edx
     bd0:	89 d0                	mov    %edx,%eax
     bd2:	89 85 48 fd ff ff    	mov    %eax,-0x2b8(%rbp)
     bd8:	8b 85 40 fd ff ff    	mov    -0x2c0(%rbp),%eax
     bde:	01 c0                	add    %eax,%eax
     be0:	48 98                	cltq   
     be2:	48 8d 95 90 fd ff ff 	lea    -0x270(%rbp),%rdx
     be9:	48 01 d0             	add    %rdx,%rax
     bec:	0f b6 08             	movzbl (%rax),%ecx
     bef:	8b 85 48 fd ff ff    	mov    -0x2b8(%rbp),%eax
     bf5:	89 c6                	mov    %eax,%esi
     bf7:	8b 85 40 fd ff ff    	mov    -0x2c0(%rbp),%eax
     bfd:	01 c0                	add    %eax,%eax
     bff:	48 98                	cltq   
     c01:	48 8d 95 90 fd ff ff 	lea    -0x270(%rbp),%rdx
     c08:	48 01 d0             	add    %rdx,%rax
     c0b:	31 f1                	xor    %esi,%ecx
     c0d:	89 ca                	mov    %ecx,%edx
     c0f:	88 10                	mov    %dl,(%rax)
     c11:	8b 85 44 fd ff ff    	mov    -0x2bc(%rbp),%eax
     c17:	c1 f8 04             	sar    $0x4,%eax
     c1a:	f3 0f bd c0          	lzcnt  %eax,%eax
     c1e:	ba 20 00 00 00       	mov    $0x20,%edx
     c23:	29 c2                	sub    %eax,%edx
     c25:	89 d0                	mov    %edx,%eax
     c27:	89 85 48 fd ff ff    	mov    %eax,-0x2b8(%rbp)
     c2d:	8b 85 40 fd ff ff    	mov    -0x2c0(%rbp),%eax
     c33:	01 c0                	add    %eax,%eax
     c35:	48 98                	cltq   
     c37:	48 8d 50 01          	lea    0x1(%rax),%rdx
     c3b:	48 8d 85 90 fd ff ff 	lea    -0x270(%rbp),%rax
     c42:	48 01 d0             	add    %rdx,%rax
     c45:	0f b6 08             	movzbl (%rax),%ecx
     c48:	8b 85 48 fd ff ff    	mov    -0x2b8(%rbp),%eax
     c4e:	89 c6                	mov    %eax,%esi
     c50:	8b 85 40 fd ff ff    	mov    -0x2c0(%rbp),%eax
     c56:	01 c0                	add    %eax,%eax
     c58:	48 98                	cltq   
     c5a:	48 8d 50 01          	lea    0x1(%rax),%rdx
     c5e:	48 8d 85 90 fd ff ff 	lea    -0x270(%rbp),%rax
     c65:	48 01 d0             	add    %rdx,%rax
     c68:	31 f1                	xor    %esi,%ecx
     c6a:	89 ca                	mov    %ecx,%edx
     c6c:	88 10                	mov    %dl,(%rax)
     c6e:	83 85 40 fd ff ff 01 	addl   $0x1,-0x2c0(%rbp)
     c75:	83 bd 40 fd ff ff 0f 	cmpl   $0xf,-0x2c0(%rbp)
     c7c:	0f 8e 1c ff ff ff    	jle    b9e <main+0x1e4>
     c82:	48 8d 85 90 fd ff ff 	lea    -0x270(%rbp),%rax
     c89:	ba 20 00 00 00       	mov    $0x20,%edx
     c8e:	48 8d 35 43 04 00 00 	lea    0x443(%rip),%rsi        # 10d8 <_IO_stdin_used+0xb8>
     c95:	48 89 c7             	mov    %rax,%rdi
     c98:	e8 d3 fa ff ff       	callq  770 <memcmp@plt>
     c9d:	85 c0                	test   %eax,%eax
     c9f:	74 16                	je     cb7 <main+0x2fd>
     ca1:	48 8d 3d 19 04 00 00 	lea    0x419(%rip),%rdi        # 10c1 <_IO_stdin_used+0xa1>
     ca8:	e8 83 fa ff ff       	callq  730 <puts@plt>
     cad:	bf 01 00 00 00       	mov    $0x1,%edi
     cb2:	e8 d9 fa ff ff       	callq  790 <exit@plt>
     cb7:	48 8d 85 70 fd ff ff 	lea    -0x290(%rbp),%rax
     cbe:	c5 f9 6f 00          	vmovdqa (%rax),%xmm0
     cc2:	c5 f8 29 85 60 fd ff 	vmovaps %xmm0,-0x2a0(%rbp)
     cc9:	ff 
     cca:	c5 f9 6f 85 60 fd ff 	vmovdqa -0x2a0(%rbp),%xmm0
     cd1:	ff 
     cd2:	c4 e2 7d 33 c0       	vpmovzxwd %xmm0,%ymm0
     cd7:	c5 fd 7f 85 b0 fd ff 	vmovdqa %ymm0,-0x250(%rbp)
     cde:	ff 
     cdf:	c5 fd 6f 85 b0 fd ff 	vmovdqa -0x250(%rbp),%ymm0
     ce6:	ff 
     ce7:	c5 fd 6f 8d b0 fd ff 	vmovdqa -0x250(%rbp),%ymm1
     cee:	ff 
     cef:	c5 fd 7f 8d b0 fe ff 	vmovdqa %ymm1,-0x150(%rbp)
     cf6:	ff 
     cf7:	c5 fd 7f 85 d0 fe ff 	vmovdqa %ymm0,-0x130(%rbp)
     cfe:	ff 
     cff:	c5 fd 6f 8d b0 fe ff 	vmovdqa -0x150(%rbp),%ymm1
     d06:	ff 
     d07:	c5 fd 6f 85 d0 fe ff 	vmovdqa -0x130(%rbp),%ymm0
     d0e:	ff 
     d0f:	c5 f5 d5 c0          	vpmullw %ymm0,%ymm1,%ymm0
     d13:	c5 fd 7f 85 d0 fd ff 	vmovdqa %ymm0,-0x230(%rbp)
     d1a:	ff 
     d1b:	c5 fd 6f 85 b0 fd ff 	vmovdqa -0x250(%rbp),%ymm0
     d22:	ff 
     d23:	c5 fd 6f 8d b0 fd ff 	vmovdqa -0x250(%rbp),%ymm1
     d2a:	ff 
     d2b:	c5 fd 7f 8d 70 fe ff 	vmovdqa %ymm1,-0x190(%rbp)
     d32:	ff 
     d33:	c5 fd 7f 85 90 fe ff 	vmovdqa %ymm0,-0x170(%rbp)
     d3a:	ff 
     d3b:	c5 fd 6f 85 90 fe ff 	vmovdqa -0x170(%rbp),%ymm0
     d42:	ff 
     d43:	c5 fd 6f 8d 70 fe ff 	vmovdqa -0x190(%rbp),%ymm1
     d4a:	ff 
     d4b:	c5 f5 e5 c0          	vpmulhw %ymm0,%ymm1,%ymm0
     d4f:	c5 fd 7f 85 f0 fd ff 	vmovdqa %ymm0,-0x210(%rbp)
     d56:	ff 
     d57:	c5 fd 6f 85 f0 fd ff 	vmovdqa -0x210(%rbp),%ymm0
     d5e:	ff 
     d5f:	c5 fd 7f 85 50 fe ff 	vmovdqa %ymm0,-0x1b0(%rbp)
     d66:	ff 
     d67:	c7 85 4c fd ff ff 10 	movl   $0x10,-0x2b4(%rbp)
     d6e:	00 00 00 
     d71:	c5 fd 6f 85 50 fe ff 	vmovdqa -0x1b0(%rbp),%ymm0
     d78:	ff 
     d79:	8b 85 4c fd ff ff    	mov    -0x2b4(%rbp),%eax
     d7f:	48 89 85 38 fd ff ff 	mov    %rax,-0x2c8(%rbp)
     d86:	c5 fa 7e 95 38 fd ff 	vmovq  -0x2c8(%rbp),%xmm2
     d8d:	ff 
     d8e:	c5 fd f2 c2          	vpslld %xmm2,%ymm0,%ymm0
     d92:	c5 fd 7f 85 f0 fd ff 	vmovdqa %ymm0,-0x210(%rbp)
     d99:	ff 
     d9a:	c5 fd 6f 85 d0 fd ff 	vmovdqa -0x230(%rbp),%ymm0
     da1:	ff 
     da2:	c5 fd 7f 85 10 fe ff 	vmovdqa %ymm0,-0x1f0(%rbp)
     da9:	ff 
     daa:	c5 fd 6f 85 f0 fd ff 	vmovdqa -0x210(%rbp),%ymm0
     db1:	ff 
     db2:	c5 fd 7f 85 30 fe ff 	vmovdqa %ymm0,-0x1d0(%rbp)
     db9:	ff 
     dba:	c5 fd 6f 8d 10 fe ff 	vmovdqa -0x1f0(%rbp),%ymm1
     dc1:	ff 
     dc2:	c5 fd 6f 85 30 fe ff 	vmovdqa -0x1d0(%rbp),%ymm0
     dc9:	ff 
     dca:	c5 f5 eb c0          	vpor   %ymm0,%ymm1,%ymm0
     dce:	c5 fd 7f 85 b0 fd ff 	vmovdqa %ymm0,-0x250(%rbp)
     dd5:	ff 
     dd6:	c7 85 40 fd ff ff 00 	movl   $0x0,-0x2c0(%rbp)
     ddd:	00 00 00 
     de0:	eb 76                	jmp    e58 <main+0x49e>
     de2:	8b 85 40 fd ff ff    	mov    -0x2c0(%rbp),%eax
     de8:	48 98                	cltq   
     dea:	48 8d 14 c5 00 00 00 	lea    0x0(,%rax,8),%rdx
     df1:	00 
     df2:	48 8d 85 b0 fd ff ff 	lea    -0x250(%rbp),%rax
     df9:	48 01 d0             	add    %rdx,%rax
     dfc:	48 8b 00             	mov    (%rax),%rax
     dff:	48 89 85 50 fd ff ff 	mov    %rax,-0x2b0(%rbp)
     e06:	f3 48 0f b8 85 50 fd 	popcnt -0x2b0(%rbp),%rax
     e0d:	ff ff 
     e0f:	48 98                	cltq   
     e11:	48 89 c6             	mov    %rax,%rsi
     e14:	8b 85 40 fd ff ff    	mov    -0x2c0(%rbp),%eax
     e1a:	48 98                	cltq   
     e1c:	48 8d 14 c5 00 00 00 	lea    0x0(,%rax,8),%rdx
     e23:	00 
     e24:	48 8d 85 b0 fd ff ff 	lea    -0x250(%rbp),%rax
     e2b:	48 01 d0             	add    %rdx,%rax
     e2e:	48 8b 10             	mov    (%rax),%rdx
     e31:	8b 85 40 fd ff ff    	mov    -0x2c0(%rbp),%eax
     e37:	48 98                	cltq   
     e39:	48 8d 0c c5 00 00 00 	lea    0x0(,%rax,8),%rcx
     e40:	00 
     e41:	48 8d 85 b0 fd ff ff 	lea    -0x250(%rbp),%rax
     e48:	48 01 c8             	add    %rcx,%rax
     e4b:	48 01 f2             	add    %rsi,%rdx
     e4e:	48 89 10             	mov    %rdx,(%rax)
     e51:	83 85 40 fd ff ff 01 	addl   $0x1,-0x2c0(%rbp)
     e58:	83 bd 40 fd ff ff 03 	cmpl   $0x3,-0x2c0(%rbp)
     e5f:	7e 81                	jle    de2 <main+0x428>
     e61:	c5 fd 6f 85 b0 fd ff 	vmovdqa -0x250(%rbp),%ymm0
     e68:	ff 
     e69:	c5 fd 6f 8d 90 fd ff 	vmovdqa -0x270(%rbp),%ymm1
     e70:	ff 
     e71:	c5 fd 7f 8d 70 ff ff 	vmovdqa %ymm1,-0x90(%rbp)
     e78:	ff 
     e79:	c5 fd 7f 45 90       	vmovdqa %ymm0,-0x70(%rbp)
     e7e:	c5 fd 6f 8d 70 ff ff 	vmovdqa -0x90(%rbp),%ymm1
     e85:	ff 
     e86:	c5 fd 6f 45 90       	vmovdqa -0x70(%rbp),%ymm0
     e8b:	c5 f5 ef c0          	vpxor  %ymm0,%ymm1,%ymm0
     e8f:	c5 fd 7f 85 90 fd ff 	vmovdqa %ymm0,-0x270(%rbp)
     e96:	ff 
     e97:	48 b8 7f 7f 7f 7f 7f 	movabs $0x7f7f7f7f7f7f7f7f,%rax
     e9e:	7f 7f 7f 
     ea1:	48 89 85 58 fd ff ff 	mov    %rax,-0x2a8(%rbp)
     ea8:	c4 e2 7d 59 85 58 fd 	vpbroadcastq -0x2a8(%rbp),%ymm0
     eaf:	ff ff 
     eb1:	c5 fd 7f 85 d0 fd ff 	vmovdqa %ymm0,-0x230(%rbp)
     eb8:	ff 
     eb9:	c5 fd 6f 85 d0 fd ff 	vmovdqa -0x230(%rbp),%ymm0
     ec0:	ff 
     ec1:	c5 fd 6f 8d 90 fd ff 	vmovdqa -0x270(%rbp),%ymm1
     ec8:	ff 
     ec9:	c5 fd 7f 8d 30 ff ff 	vmovdqa %ymm1,-0xd0(%rbp)
     ed0:	ff 
     ed1:	c5 fd 7f 85 50 ff ff 	vmovdqa %ymm0,-0xb0(%rbp)
     ed8:	ff 
     ed9:	c5 fd 6f 8d 30 ff ff 	vmovdqa -0xd0(%rbp),%ymm1
     ee0:	ff 
     ee1:	c5 fd 6f 85 50 ff ff 	vmovdqa -0xb0(%rbp),%ymm0
     ee8:	ff 
     ee9:	c5 f5 db c0          	vpand  %ymm0,%ymm1,%ymm0
     eed:	c5 fd 7f 85 90 fd ff 	vmovdqa %ymm0,-0x270(%rbp)
     ef4:	ff 
     ef5:	c5 fd 6f 05 23 02 00 	vmovdqa 0x223(%rip),%ymm0        # 1120 <_IO_stdin_used+0x100>
     efc:	00 
     efd:	c5 fd 7f 85 d0 fd ff 	vmovdqa %ymm0,-0x230(%rbp)
     f04:	ff 
     f05:	c5 fd 6f 85 d0 fd ff 	vmovdqa -0x230(%rbp),%ymm0
     f0c:	ff 
     f0d:	c5 fd 6f 8d 90 fd ff 	vmovdqa -0x270(%rbp),%ymm1
     f14:	ff 
     f15:	c5 fd 7f 8d f0 fe ff 	vmovdqa %ymm1,-0x110(%rbp)
     f1c:	ff 
     f1d:	c5 fd 7f 85 10 ff ff 	vmovdqa %ymm0,-0xf0(%rbp)
     f24:	ff 
     f25:	c5 fd 6f 85 10 ff ff 	vmovdqa -0xf0(%rbp),%ymm0
     f2c:	ff 
     f2d:	c5 fd 6f 8d f0 fe ff 	vmovdqa -0x110(%rbp),%ymm1
     f34:	ff 
     f35:	c5 f5 ec c0          	vpaddsb %ymm0,%ymm1,%ymm0
     f39:	c5 fd 7f 85 90 fd ff 	vmovdqa %ymm0,-0x270(%rbp)
     f40:	ff 
     f41:	48 8d 85 90 fd ff ff 	lea    -0x270(%rbp),%rax
     f48:	48 89 c2             	mov    %rax,%rdx
     f4b:	be 20 00 00 00       	mov    $0x20,%esi
     f50:	48 8d 3d a2 01 00 00 	lea    0x1a2(%rip),%rdi        # 10f9 <_IO_stdin_used+0xd9>
     f57:	b8 00 00 00 00       	mov    $0x0,%eax
     f5c:	e8 ff f7 ff ff       	callq  760 <printf@plt>
     f61:	b8 00 00 00 00       	mov    $0x0,%eax
     f66:	48 8b 5d c8          	mov    -0x38(%rbp),%rbx
     f6a:	64 48 33 1c 25 28 00 	xor    %fs:0x28,%rbx
     f71:	00 00 
     f73:	74 05                	je     f7a <main+0x5c0>
     f75:	e8 d6 f7 ff ff       	callq  750 <__stack_chk_fail@plt>
     f7a:	48 81 c4 a0 02 00 00 	add    $0x2a0,%rsp
     f81:	5b                   	pop    %rbx
     f82:	41 5a                	pop    %r10
     f84:	41 5c                	pop    %r12
     f86:	41 5d                	pop    %r13
     f88:	41 5e                	pop    %r14
     f8a:	41 5f                	pop    %r15
     f8c:	5d                   	pop    %rbp
     f8d:	49 8d 62 f8          	lea    -0x8(%r10),%rsp
     f91:	c3                   	retq   
     f92:	66 2e 0f 1f 84 00 00 	nopw   %cs:0x0(%rax,%rax,1)
     f99:	00 00 00 
     f9c:	0f 1f 40 00          	nopl   0x0(%rax)

0000000000000fa0 <__libc_csu_init>:
     fa0:	41 57                	push   %r15
     fa2:	41 56                	push   %r14
     fa4:	49 89 d7             	mov    %rdx,%r15
     fa7:	41 55                	push   %r13
     fa9:	41 54                	push   %r12
     fab:	4c 8d 25 ce 0d 20 00 	lea    0x200dce(%rip),%r12        # 201d80 <__frame_dummy_init_array_entry>
     fb2:	55                   	push   %rbp
     fb3:	48 8d 2d ce 0d 20 00 	lea    0x200dce(%rip),%rbp        # 201d88 <__init_array_end>
     fba:	53                   	push   %rbx
     fbb:	41 89 fd             	mov    %edi,%r13d
     fbe:	49 89 f6             	mov    %rsi,%r14
     fc1:	4c 29 e5             	sub    %r12,%rbp
     fc4:	48 83 ec 08          	sub    $0x8,%rsp
     fc8:	48 c1 fd 03          	sar    $0x3,%rbp
     fcc:	e8 2f f7 ff ff       	callq  700 <_init>
     fd1:	48 85 ed             	test   %rbp,%rbp
     fd4:	74 20                	je     ff6 <__libc_csu_init+0x56>
     fd6:	31 db                	xor    %ebx,%ebx
     fd8:	0f 1f 84 00 00 00 00 	nopl   0x0(%rax,%rax,1)
     fdf:	00 
     fe0:	4c 89 fa             	mov    %r15,%rdx
     fe3:	4c 89 f6             	mov    %r14,%rsi
     fe6:	44 89 ef             	mov    %r13d,%edi
     fe9:	41 ff 14 dc          	callq  *(%r12,%rbx,8)
     fed:	48 83 c3 01          	add    $0x1,%rbx
     ff1:	48 39 dd             	cmp    %rbx,%rbp
     ff4:	75 ea                	jne    fe0 <__libc_csu_init+0x40>
     ff6:	48 83 c4 08          	add    $0x8,%rsp
     ffa:	5b                   	pop    %rbx
     ffb:	5d                   	pop    %rbp
     ffc:	41 5c                	pop    %r12
     ffe:	41 5d                	pop    %r13
    1000:	41 5e                	pop    %r14
    1002:	41 5f                	pop    %r15
    1004:	c3                   	retq   
    1005:	90                   	nop
    1006:	66 2e 0f 1f 84 00 00 	nopw   %cs:0x0(%rax,%rax,1)
    100d:	00 00 00 

0000000000001010 <__libc_csu_fini>:
    1010:	f3 c3                	repz retq 

Disassembly of section .fini:

0000000000001014 <_fini>:
    1014:	48 83 ec 08          	sub    $0x8,%rsp
    1018:	48 83 c4 08          	add    $0x8,%rsp
    101c:	c3                   	retq   
