
so_test.so:     file format elf64-x86-64


Disassembly of section .init:

0000000000000498 <_init>:
 498:	48 83 ec 08          	sub    $0x8,%rsp
 49c:	48 8b 05 55 0b 20 00 	mov    0x200b55(%rip),%rax        # 200ff8 <__gmon_start__>
 4a3:	48 85 c0             	test   %rax,%rax
 4a6:	74 02                	je     4aa <_init+0x12>
 4a8:	ff d0                	callq  *%rax
 4aa:	48 83 c4 08          	add    $0x8,%rsp
 4ae:	c3                   	retq   

Disassembly of section .plt:

00000000000004b0 <.plt>:
 4b0:	ff 35 52 0b 20 00    	pushq  0x200b52(%rip)        # 201008 <_GLOBAL_OFFSET_TABLE_+0x8>
 4b6:	ff 25 54 0b 20 00    	jmpq   *0x200b54(%rip)        # 201010 <_GLOBAL_OFFSET_TABLE_+0x10>
 4bc:	0f 1f 40 00          	nopl   0x0(%rax)

00000000000004c0 <foo@plt>:
 4c0:	ff 25 52 0b 20 00    	jmpq   *0x200b52(%rip)        # 201018 <foo+0x200a5e>
 4c6:	68 00 00 00 00       	pushq  $0x0
 4cb:	e9 e0 ff ff ff       	jmpq   4b0 <.plt>

Disassembly of section .plt.got:

00000000000004d0 <__cxa_finalize@plt>:
 4d0:	ff 25 0a 0b 20 00    	jmpq   *0x200b0a(%rip)        # 200fe0 <__cxa_finalize>
 4d6:	66 90                	xchg   %ax,%ax

Disassembly of section .text:

00000000000004e0 <deregister_tm_clones>:
 4e0:	48 8d 3d 41 0b 20 00 	lea    0x200b41(%rip),%rdi        # 201028 <_edata>
 4e7:	55                   	push   %rbp
 4e8:	48 8d 05 39 0b 20 00 	lea    0x200b39(%rip),%rax        # 201028 <_edata>
 4ef:	48 39 f8             	cmp    %rdi,%rax
 4f2:	48 89 e5             	mov    %rsp,%rbp
 4f5:	74 19                	je     510 <deregister_tm_clones+0x30>
 4f7:	48 8b 05 f2 0a 20 00 	mov    0x200af2(%rip),%rax        # 200ff0 <_ITM_deregisterTMCloneTable>
 4fe:	48 85 c0             	test   %rax,%rax
 501:	74 0d                	je     510 <deregister_tm_clones+0x30>
 503:	5d                   	pop    %rbp
 504:	ff e0                	jmpq   *%rax
 506:	66 2e 0f 1f 84 00 00 	nopw   %cs:0x0(%rax,%rax,1)
 50d:	00 00 00 
 510:	5d                   	pop    %rbp
 511:	c3                   	retq   
 512:	0f 1f 40 00          	nopl   0x0(%rax)
 516:	66 2e 0f 1f 84 00 00 	nopw   %cs:0x0(%rax,%rax,1)
 51d:	00 00 00 

0000000000000520 <register_tm_clones>:
 520:	48 8d 3d 01 0b 20 00 	lea    0x200b01(%rip),%rdi        # 201028 <_edata>
 527:	48 8d 35 fa 0a 20 00 	lea    0x200afa(%rip),%rsi        # 201028 <_edata>
 52e:	55                   	push   %rbp
 52f:	48 29 fe             	sub    %rdi,%rsi
 532:	48 89 e5             	mov    %rsp,%rbp
 535:	48 c1 fe 03          	sar    $0x3,%rsi
 539:	48 89 f0             	mov    %rsi,%rax
 53c:	48 c1 e8 3f          	shr    $0x3f,%rax
 540:	48 01 c6             	add    %rax,%rsi
 543:	48 d1 fe             	sar    %rsi
 546:	74 18                	je     560 <register_tm_clones+0x40>
 548:	48 8b 05 99 0a 20 00 	mov    0x200a99(%rip),%rax        # 200fe8 <_ITM_registerTMCloneTable>
 54f:	48 85 c0             	test   %rax,%rax
 552:	74 0c                	je     560 <register_tm_clones+0x40>
 554:	5d                   	pop    %rbp
 555:	ff e0                	jmpq   *%rax
 557:	66 0f 1f 84 00 00 00 	nopw   0x0(%rax,%rax,1)
 55e:	00 00 
 560:	5d                   	pop    %rbp
 561:	c3                   	retq   
 562:	0f 1f 40 00          	nopl   0x0(%rax)
 566:	66 2e 0f 1f 84 00 00 	nopw   %cs:0x0(%rax,%rax,1)
 56d:	00 00 00 

0000000000000570 <__do_global_dtors_aux>:
 570:	80 3d b1 0a 20 00 00 	cmpb   $0x0,0x200ab1(%rip)        # 201028 <_edata>
 577:	75 2f                	jne    5a8 <__do_global_dtors_aux+0x38>
 579:	48 83 3d 5f 0a 20 00 	cmpq   $0x0,0x200a5f(%rip)        # 200fe0 <__cxa_finalize>
 580:	00 
 581:	55                   	push   %rbp
 582:	48 89 e5             	mov    %rsp,%rbp
 585:	74 0c                	je     593 <__do_global_dtors_aux+0x23>
 587:	48 8b 3d 92 0a 20 00 	mov    0x200a92(%rip),%rdi        # 201020 <__dso_handle>
 58e:	e8 3d ff ff ff       	callq  4d0 <__cxa_finalize@plt>
 593:	e8 48 ff ff ff       	callq  4e0 <deregister_tm_clones>
 598:	c6 05 89 0a 20 00 01 	movb   $0x1,0x200a89(%rip)        # 201028 <_edata>
 59f:	5d                   	pop    %rbp
 5a0:	c3                   	retq   
 5a1:	0f 1f 80 00 00 00 00 	nopl   0x0(%rax)
 5a8:	f3 c3                	repz retq 
 5aa:	66 0f 1f 44 00 00    	nopw   0x0(%rax,%rax,1)

00000000000005b0 <frame_dummy>:
 5b0:	55                   	push   %rbp
 5b1:	48 89 e5             	mov    %rsp,%rbp
 5b4:	5d                   	pop    %rbp
 5b5:	e9 66 ff ff ff       	jmpq   520 <register_tm_clones>

00000000000005ba <foo>:
 5ba:	55                   	push   %rbp
 5bb:	48 89 e5             	mov    %rsp,%rbp
 5be:	89 7d fc             	mov    %edi,-0x4(%rbp)
 5c1:	89 75 f8             	mov    %esi,-0x8(%rbp)
 5c4:	8b 55 fc             	mov    -0x4(%rbp),%edx
 5c7:	8b 45 f8             	mov    -0x8(%rbp),%eax
 5ca:	01 d0                	add    %edx,%eax
 5cc:	5d                   	pop    %rbp
 5cd:	c3                   	retq   

00000000000005ce <main>:
 5ce:	55                   	push   %rbp
 5cf:	48 89 e5             	mov    %rsp,%rbp
 5d2:	be a1 00 00 00       	mov    $0xa1,%esi
 5d7:	bf 01 00 00 00       	mov    $0x1,%edi
 5dc:	e8 df fe ff ff       	callq  4c0 <foo@plt>
 5e1:	5d                   	pop    %rbp
 5e2:	c3                   	retq   

Disassembly of section .fini:

00000000000005e4 <_fini>:
 5e4:	48 83 ec 08          	sub    $0x8,%rsp
 5e8:	48 83 c4 08          	add    $0x8,%rsp
 5ec:	c3                   	retq   
