
cookie-monster:     file format elf32-i386


Disassembly of section .init:

080483b4 <_init>:
 80483b4:	53                   	push   %ebx
 80483b5:	83 ec 08             	sub    $0x8,%esp
 80483b8:	e8 03 01 00 00       	call   80484c0 <__x86.get_pc_thunk.bx>
 80483bd:	81 c3 43 1c 00 00    	add    $0x1c43,%ebx
 80483c3:	8b 83 f4 ff ff ff    	mov    -0xc(%ebx),%eax
 80483c9:	85 c0                	test   %eax,%eax
 80483cb:	74 05                	je     80483d2 <_init+0x1e>
 80483cd:	e8 8e 00 00 00       	call   8048460 <__gmon_start__@plt>
 80483d2:	83 c4 08             	add    $0x8,%esp
 80483d5:	5b                   	pop    %ebx
 80483d6:	c3                   	ret    

Disassembly of section .plt:

080483e0 <.plt>:
 80483e0:	ff 35 04 a0 04 08    	push   0x804a004
 80483e6:	ff 25 08 a0 04 08    	jmp    *0x804a008
 80483ec:	00 00                	add    %al,(%eax)
	...

080483f0 <setbuf@plt>:
 80483f0:	ff 25 0c a0 04 08    	jmp    *0x804a00c
 80483f6:	68 00 00 00 00       	push   $0x0
 80483fb:	e9 e0 ff ff ff       	jmp    80483e0 <.plt>

08048400 <printf@plt>:
 8048400:	ff 25 10 a0 04 08    	jmp    *0x804a010
 8048406:	68 08 00 00 00       	push   $0x8
 804840b:	e9 d0 ff ff ff       	jmp    80483e0 <.plt>

08048410 <fgets@plt>:
 8048410:	ff 25 14 a0 04 08    	jmp    *0x804a014
 8048416:	68 10 00 00 00       	push   $0x10
 804841b:	e9 c0 ff ff ff       	jmp    80483e0 <.plt>

08048420 <__stack_chk_fail@plt>:
 8048420:	ff 25 18 a0 04 08    	jmp    *0x804a018
 8048426:	68 18 00 00 00       	push   $0x18
 804842b:	e9 b0 ff ff ff       	jmp    80483e0 <.plt>

08048430 <puts@plt>:
 8048430:	ff 25 1c a0 04 08    	jmp    *0x804a01c
 8048436:	68 20 00 00 00       	push   $0x20
 804843b:	e9 a0 ff ff ff       	jmp    80483e0 <.plt>

08048440 <system@plt>:
 8048440:	ff 25 20 a0 04 08    	jmp    *0x804a020
 8048446:	68 28 00 00 00       	push   $0x28
 804844b:	e9 90 ff ff ff       	jmp    80483e0 <.plt>

08048450 <__libc_start_main@plt>:
 8048450:	ff 25 24 a0 04 08    	jmp    *0x804a024
 8048456:	68 30 00 00 00       	push   $0x30
 804845b:	e9 80 ff ff ff       	jmp    80483e0 <.plt>

Disassembly of section .plt.got:

08048460 <__gmon_start__@plt>:
 8048460:	ff 25 f4 9f 04 08    	jmp    *0x8049ff4
 8048466:	66 90                	xchg   %ax,%ax

Disassembly of section .text:

08048470 <_start>:
 8048470:	31 ed                	xor    %ebp,%ebp
 8048472:	5e                   	pop    %esi
 8048473:	89 e1                	mov    %esp,%ecx
 8048475:	83 e4 f0             	and    $0xfffffff0,%esp
 8048478:	50                   	push   %eax
 8048479:	54                   	push   %esp
 804847a:	52                   	push   %edx
 804847b:	e8 23 00 00 00       	call   80484a3 <_start+0x33>
 8048480:	81 c3 80 1b 00 00    	add    $0x1b80,%ebx
 8048486:	8d 83 30 e7 ff ff    	lea    -0x18d0(%ebx),%eax
 804848c:	50                   	push   %eax
 804848d:	8d 83 d0 e6 ff ff    	lea    -0x1930(%ebx),%eax
 8048493:	50                   	push   %eax
 8048494:	51                   	push   %ecx
 8048495:	56                   	push   %esi
 8048496:	c7 c0 69 86 04 08    	mov    $0x8048669,%eax
 804849c:	50                   	push   %eax
 804849d:	e8 ae ff ff ff       	call   8048450 <__libc_start_main@plt>
 80484a2:	f4                   	hlt    
 80484a3:	8b 1c 24             	mov    (%esp),%ebx
 80484a6:	c3                   	ret    
 80484a7:	66 90                	xchg   %ax,%ax
 80484a9:	66 90                	xchg   %ax,%ax
 80484ab:	66 90                	xchg   %ax,%ax
 80484ad:	66 90                	xchg   %ax,%ax
 80484af:	90                   	nop

080484b0 <_dl_relocate_static_pie>:
 80484b0:	f3 c3                	repz ret 
 80484b2:	66 90                	xchg   %ax,%ax
 80484b4:	66 90                	xchg   %ax,%ax
 80484b6:	66 90                	xchg   %ax,%ax
 80484b8:	66 90                	xchg   %ax,%ax
 80484ba:	66 90                	xchg   %ax,%ax
 80484bc:	66 90                	xchg   %ax,%ax
 80484be:	66 90                	xchg   %ax,%ax

080484c0 <__x86.get_pc_thunk.bx>:
 80484c0:	8b 1c 24             	mov    (%esp),%ebx
 80484c3:	c3                   	ret    
 80484c4:	66 90                	xchg   %ax,%ax
 80484c6:	66 90                	xchg   %ax,%ax
 80484c8:	66 90                	xchg   %ax,%ax
 80484ca:	66 90                	xchg   %ax,%ax
 80484cc:	66 90                	xchg   %ax,%ax
 80484ce:	66 90                	xchg   %ax,%ax

080484d0 <deregister_tm_clones>:
 80484d0:	b8 30 a0 04 08       	mov    $0x804a030,%eax
 80484d5:	3d 30 a0 04 08       	cmp    $0x804a030,%eax
 80484da:	74 24                	je     8048500 <deregister_tm_clones+0x30>
 80484dc:	b8 00 00 00 00       	mov    $0x0,%eax
 80484e1:	85 c0                	test   %eax,%eax
 80484e3:	74 1b                	je     8048500 <deregister_tm_clones+0x30>
 80484e5:	55                   	push   %ebp
 80484e6:	89 e5                	mov    %esp,%ebp
 80484e8:	83 ec 14             	sub    $0x14,%esp
 80484eb:	68 30 a0 04 08       	push   $0x804a030
 80484f0:	ff d0                	call   *%eax
 80484f2:	83 c4 10             	add    $0x10,%esp
 80484f5:	c9                   	leave  
 80484f6:	c3                   	ret    
 80484f7:	89 f6                	mov    %esi,%esi
 80484f9:	8d bc 27 00 00 00 00 	lea    0x0(%edi,%eiz,1),%edi
 8048500:	f3 c3                	repz ret 
 8048502:	8d b4 26 00 00 00 00 	lea    0x0(%esi,%eiz,1),%esi
 8048509:	8d bc 27 00 00 00 00 	lea    0x0(%edi,%eiz,1),%edi

08048510 <register_tm_clones>:
 8048510:	b8 30 a0 04 08       	mov    $0x804a030,%eax
 8048515:	2d 30 a0 04 08       	sub    $0x804a030,%eax
 804851a:	c1 f8 02             	sar    $0x2,%eax
 804851d:	89 c2                	mov    %eax,%edx
 804851f:	c1 ea 1f             	shr    $0x1f,%edx
 8048522:	01 d0                	add    %edx,%eax
 8048524:	d1 f8                	sar    %eax
 8048526:	74 20                	je     8048548 <register_tm_clones+0x38>
 8048528:	ba 00 00 00 00       	mov    $0x0,%edx
 804852d:	85 d2                	test   %edx,%edx
 804852f:	74 17                	je     8048548 <register_tm_clones+0x38>
 8048531:	55                   	push   %ebp
 8048532:	89 e5                	mov    %esp,%ebp
 8048534:	83 ec 10             	sub    $0x10,%esp
 8048537:	50                   	push   %eax
 8048538:	68 30 a0 04 08       	push   $0x804a030
 804853d:	ff d2                	call   *%edx
 804853f:	83 c4 10             	add    $0x10,%esp
 8048542:	c9                   	leave  
 8048543:	c3                   	ret    
 8048544:	8d 74 26 00          	lea    0x0(%esi,%eiz,1),%esi
 8048548:	f3 c3                	repz ret 
 804854a:	8d b6 00 00 00 00    	lea    0x0(%esi),%esi

08048550 <__do_global_dtors_aux>:
 8048550:	80 3d 30 a0 04 08 00 	cmpb   $0x0,0x804a030
 8048557:	75 17                	jne    8048570 <__do_global_dtors_aux+0x20>
 8048559:	55                   	push   %ebp
 804855a:	89 e5                	mov    %esp,%ebp
 804855c:	83 ec 08             	sub    $0x8,%esp
 804855f:	e8 6c ff ff ff       	call   80484d0 <deregister_tm_clones>
 8048564:	c6 05 30 a0 04 08 01 	movb   $0x1,0x804a030
 804856b:	c9                   	leave  
 804856c:	c3                   	ret    
 804856d:	8d 76 00             	lea    0x0(%esi),%esi
 8048570:	f3 c3                	repz ret 
 8048572:	8d b4 26 00 00 00 00 	lea    0x0(%esi,%eiz,1),%esi
 8048579:	8d bc 27 00 00 00 00 	lea    0x0(%edi,%eiz,1),%edi

08048580 <frame_dummy>:
 8048580:	55                   	push   %ebp
 8048581:	89 e5                	mov    %esp,%ebp
 8048583:	5d                   	pop    %ebp
 8048584:	eb 8a                	jmp    8048510 <register_tm_clones>

08048586 <bakery>:
 8048586:	55                   	push   %ebp
 8048587:	89 e5                	mov    %esp,%ebp
 8048589:	53                   	push   %ebx
 804858a:	83 ec 34             	sub    $0x34,%esp
 804858d:	e8 2e ff ff ff       	call   80484c0 <__x86.get_pc_thunk.bx>
 8048592:	81 c3 6e 1a 00 00    	add    $0x1a6e,%ebx
 8048598:	65 a1 14 00 00 00    	mov    %gs:0x14,%eax
 804859e:	89 45 f4             	mov    %eax,-0xc(%ebp)
 80485a1:	31 c0                	xor    %eax,%eax
 80485a3:	83 ec 0c             	sub    $0xc,%esp
 80485a6:	8d 83 78 e7 ff ff    	lea    -0x1888(%ebx),%eax
 80485ac:	50                   	push   %eax
 80485ad:	e8 4e fe ff ff       	call   8048400 <printf@plt>
 80485b2:	83 c4 10             	add    $0x10,%esp
 80485b5:	8b 83 f8 ff ff ff    	mov    -0x8(%ebx),%eax
 80485bb:	8b 00                	mov    (%eax),%eax
 80485bd:	83 ec 04             	sub    $0x4,%esp
 80485c0:	50                   	push   %eax
 80485c1:	6a 20                	push   $0x20
 80485c3:	8d 45 d4             	lea    -0x2c(%ebp),%eax
 80485c6:	50                   	push   %eax
 80485c7:	e8 44 fe ff ff       	call   8048410 <fgets@plt>
 80485cc:	83 c4 10             	add    $0x10,%esp
 80485cf:	83 ec 0c             	sub    $0xc,%esp
 80485d2:	8d 83 8a e7 ff ff    	lea    -0x1876(%ebx),%eax
 80485d8:	50                   	push   %eax
 80485d9:	e8 22 fe ff ff       	call   8048400 <printf@plt>
 80485de:	83 c4 10             	add    $0x10,%esp
 80485e1:	83 ec 0c             	sub    $0xc,%esp
 80485e4:	8d 45 d4             	lea    -0x2c(%ebp),%eax
 80485e7:	50                   	push   %eax
 80485e8:	e8 13 fe ff ff       	call   8048400 <printf@plt>
 80485ed:	83 c4 10             	add    $0x10,%esp
 80485f0:	83 ec 0c             	sub    $0xc,%esp
 80485f3:	8d 83 94 e7 ff ff    	lea    -0x186c(%ebx),%eax
 80485f9:	50                   	push   %eax
 80485fa:	e8 31 fe ff ff       	call   8048430 <puts@plt>
 80485ff:	83 c4 10             	add    $0x10,%esp
 8048602:	83 ec 0c             	sub    $0xc,%esp
 8048605:	8d 83 ba e7 ff ff    	lea    -0x1846(%ebx),%eax
 804860b:	50                   	push   %eax
 804860c:	e8 2f fe ff ff       	call   8048440 <system@plt>
 8048611:	83 c4 10             	add    $0x10,%esp
 8048614:	83 ec 0c             	sub    $0xc,%esp
 8048617:	8d 83 cc e7 ff ff    	lea    -0x1834(%ebx),%eax
 804861d:	50                   	push   %eax
 804861e:	e8 0d fe ff ff       	call   8048430 <puts@plt>
 8048623:	83 c4 10             	add    $0x10,%esp
 8048626:	8b 83 f8 ff ff ff    	mov    -0x8(%ebx),%eax
 804862c:	8b 00                	mov    (%eax),%eax
 804862e:	83 ec 04             	sub    $0x4,%esp
 8048631:	50                   	push   %eax
 8048632:	6a 40                	push   $0x40
 8048634:	8d 45 d4             	lea    -0x2c(%ebp),%eax
 8048637:	50                   	push   %eax
 8048638:	e8 d3 fd ff ff       	call   8048410 <fgets@plt>
 804863d:	83 c4 10             	add    $0x10,%esp
 8048640:	83 ec 0c             	sub    $0xc,%esp
 8048643:	8d 83 ee e7 ff ff    	lea    -0x1812(%ebx),%eax
 8048649:	50                   	push   %eax
 804864a:	e8 e1 fd ff ff       	call   8048430 <puts@plt>
 804864f:	83 c4 10             	add    $0x10,%esp
 8048652:	90                   	nop
 8048653:	8b 45 f4             	mov    -0xc(%ebp),%eax
 8048656:	65 33 05 14 00 00 00 	xor    %gs:0x14,%eax
 804865d:	74 05                	je     8048664 <bakery+0xde>
 804865f:	e8 dc 00 00 00       	call   8048740 <__stack_chk_fail_local>
 8048664:	8b 5d fc             	mov    -0x4(%ebp),%ebx
 8048667:	c9                   	leave  
 8048668:	c3                   	ret    

08048669 <main>:
 8048669:	8d 4c 24 04          	lea    0x4(%esp),%ecx
 804866d:	83 e4 f0             	and    $0xfffffff0,%esp
 8048670:	ff 71 fc             	push   -0x4(%ecx)
 8048673:	55                   	push   %ebp
 8048674:	89 e5                	mov    %esp,%ebp
 8048676:	53                   	push   %ebx
 8048677:	51                   	push   %ecx
 8048678:	e8 43 fe ff ff       	call   80484c0 <__x86.get_pc_thunk.bx>
 804867d:	81 c3 83 19 00 00    	add    $0x1983,%ebx
 8048683:	8b 83 f8 ff ff ff    	mov    -0x8(%ebx),%eax
 8048689:	8b 00                	mov    (%eax),%eax
 804868b:	83 ec 08             	sub    $0x8,%esp
 804868e:	6a 00                	push   $0x0
 8048690:	50                   	push   %eax
 8048691:	e8 5a fd ff ff       	call   80483f0 <setbuf@plt>
 8048696:	83 c4 10             	add    $0x10,%esp
 8048699:	8b 83 fc ff ff ff    	mov    -0x4(%ebx),%eax
 804869f:	8b 00                	mov    (%eax),%eax
 80486a1:	83 ec 08             	sub    $0x8,%esp
 80486a4:	6a 00                	push   $0x0
 80486a6:	50                   	push   %eax
 80486a7:	e8 44 fd ff ff       	call   80483f0 <setbuf@plt>
 80486ac:	83 c4 10             	add    $0x10,%esp
 80486af:	e8 d2 fe ff ff       	call   8048586 <bakery>
 80486b4:	b8 00 00 00 00       	mov    $0x0,%eax
 80486b9:	8d 65 f8             	lea    -0x8(%ebp),%esp
 80486bc:	59                   	pop    %ecx
 80486bd:	5b                   	pop    %ebx
 80486be:	5d                   	pop    %ebp
 80486bf:	8d 61 fc             	lea    -0x4(%ecx),%esp
 80486c2:	c3                   	ret    
 80486c3:	66 90                	xchg   %ax,%ax
 80486c5:	66 90                	xchg   %ax,%ax
 80486c7:	66 90                	xchg   %ax,%ax
 80486c9:	66 90                	xchg   %ax,%ax
 80486cb:	66 90                	xchg   %ax,%ax
 80486cd:	66 90                	xchg   %ax,%ax
 80486cf:	90                   	nop

080486d0 <__libc_csu_init>:
 80486d0:	55                   	push   %ebp
 80486d1:	57                   	push   %edi
 80486d2:	56                   	push   %esi
 80486d3:	53                   	push   %ebx
 80486d4:	e8 e7 fd ff ff       	call   80484c0 <__x86.get_pc_thunk.bx>
 80486d9:	81 c3 27 19 00 00    	add    $0x1927,%ebx
 80486df:	83 ec 0c             	sub    $0xc,%esp
 80486e2:	8b 6c 24 28          	mov    0x28(%esp),%ebp
 80486e6:	8d b3 08 ff ff ff    	lea    -0xf8(%ebx),%esi
 80486ec:	e8 c3 fc ff ff       	call   80483b4 <_init>
 80486f1:	8d 83 04 ff ff ff    	lea    -0xfc(%ebx),%eax
 80486f7:	29 c6                	sub    %eax,%esi
 80486f9:	c1 fe 02             	sar    $0x2,%esi
 80486fc:	85 f6                	test   %esi,%esi
 80486fe:	74 25                	je     8048725 <__libc_csu_init+0x55>
 8048700:	31 ff                	xor    %edi,%edi
 8048702:	8d b6 00 00 00 00    	lea    0x0(%esi),%esi
 8048708:	83 ec 04             	sub    $0x4,%esp
 804870b:	55                   	push   %ebp
 804870c:	ff 74 24 2c          	push   0x2c(%esp)
 8048710:	ff 74 24 2c          	push   0x2c(%esp)
 8048714:	ff 94 bb 04 ff ff ff 	call   *-0xfc(%ebx,%edi,4)
 804871b:	83 c7 01             	add    $0x1,%edi
 804871e:	83 c4 10             	add    $0x10,%esp
 8048721:	39 fe                	cmp    %edi,%esi
 8048723:	75 e3                	jne    8048708 <__libc_csu_init+0x38>
 8048725:	83 c4 0c             	add    $0xc,%esp
 8048728:	5b                   	pop    %ebx
 8048729:	5e                   	pop    %esi
 804872a:	5f                   	pop    %edi
 804872b:	5d                   	pop    %ebp
 804872c:	c3                   	ret    
 804872d:	8d 76 00             	lea    0x0(%esi),%esi

08048730 <__libc_csu_fini>:
 8048730:	f3 c3                	repz ret 
 8048732:	66 90                	xchg   %ax,%ax
 8048734:	66 90                	xchg   %ax,%ax
 8048736:	66 90                	xchg   %ax,%ax
 8048738:	66 90                	xchg   %ax,%ax
 804873a:	66 90                	xchg   %ax,%ax
 804873c:	66 90                	xchg   %ax,%ax
 804873e:	66 90                	xchg   %ax,%ax

08048740 <__stack_chk_fail_local>:
 8048740:	53                   	push   %ebx
 8048741:	e8 7a fd ff ff       	call   80484c0 <__x86.get_pc_thunk.bx>
 8048746:	81 c3 ba 18 00 00    	add    $0x18ba,%ebx
 804874c:	83 ec 08             	sub    $0x8,%esp
 804874f:	e8 cc fc ff ff       	call   8048420 <__stack_chk_fail@plt>

Disassembly of section .fini:

08048754 <_fini>:
 8048754:	53                   	push   %ebx
 8048755:	83 ec 08             	sub    $0x8,%esp
 8048758:	e8 63 fd ff ff       	call   80484c0 <__x86.get_pc_thunk.bx>
 804875d:	81 c3 a3 18 00 00    	add    $0x18a3,%ebx
 8048763:	83 c4 08             	add    $0x8,%esp
 8048766:	5b                   	pop    %ebx
 8048767:	c3                   	ret    
