
bin_2:     file format elf64-x86-64


Disassembly of section .init:

0000000000401000 <_init>:
  401000:	50                   	push   %rax
  401001:	58                   	pop    %rax
  401002:	c3                   	ret    

Disassembly of section .text:

0000000000401010 <exit>:
  401010:	f3 0f 1e fa          	endbr64 
  401014:	55                   	push   %rbp
  401015:	89 fd                	mov    %edi,%ebp
  401017:	e8 64 14 00 00       	call   402480 <__funcs_on_exit>
  40101c:	e8 6f 14 00 00       	call   402490 <__libc_exit_fini>
  401021:	31 c0                	xor    %eax,%eax
  401023:	e8 d8 7a 00 00       	call   408b00 <__stdio_exit>
  401028:	89 ef                	mov    %ebp,%edi
  40102a:	e8 81 20 00 00       	call   4030b0 <_Exit>

000000000040102f <_start>:
  40102f:	48 31 ed             	xor    %rbp,%rbp
  401032:	48 89 e7             	mov    %rsp,%rdi
  401035:	48 8d 35 c4 ef bf ff 	lea    -0x40103c(%rip),%rsi        # 0 <_init-0x401000>
  40103c:	48 83 e4 f0          	and    $0xfffffffffffffff0,%rsp
  401040:	e8 0b 00 00 00       	call   401050 <_start_c>
  401045:	66 2e 0f 1f 84 00 00 	cs nopw 0x0(%rax,%rax,1)
  40104c:	00 00 00 
  40104f:	90                   	nop

0000000000401050 <_start_c>:
  401050:	f3 0f 1e fa          	endbr64 
  401054:	8b 37                	mov    (%rdi),%esi
  401056:	48 8d 57 08          	lea    0x8(%rdi),%rdx
  40105a:	49 c7 c0 f4 93 40 00 	mov    $0x4093f4,%r8
  401061:	45 31 c9             	xor    %r9d,%r9d
  401064:	48 c7 c1 00 10 40 00 	mov    $0x401000,%rcx
  40106b:	48 c7 c7 90 20 40 00 	mov    $0x402090,%rdi
  401072:	e9 59 13 00 00       	jmp    4023d0 <__libc_start_main>
  401077:	66 0f 1f 84 00 00 00 	nopw   0x0(%rax,%rax,1)
  40107e:	00 00 

0000000000401080 <deregister_tm_clones>:
  401080:	48 8d 3d 89 b1 00 00 	lea    0xb189(%rip),%rdi        # 40c210 <__TMC_END__>
  401087:	48 8d 05 82 b1 00 00 	lea    0xb182(%rip),%rax        # 40c210 <__TMC_END__>
  40108e:	48 39 f8             	cmp    %rdi,%rax
  401091:	74 15                	je     4010a8 <deregister_tm_clones+0x28>
  401093:	48 c7 c0 00 00 00 00 	mov    $0x0,%rax
  40109a:	48 85 c0             	test   %rax,%rax
  40109d:	74 09                	je     4010a8 <deregister_tm_clones+0x28>
  40109f:	ff e0                	jmp    *%rax
  4010a1:	0f 1f 80 00 00 00 00 	nopl   0x0(%rax)
  4010a8:	c3                   	ret    
  4010a9:	0f 1f 80 00 00 00 00 	nopl   0x0(%rax)

00000000004010b0 <register_tm_clones>:
  4010b0:	48 8d 3d 59 b1 00 00 	lea    0xb159(%rip),%rdi        # 40c210 <__TMC_END__>
  4010b7:	48 8d 35 52 b1 00 00 	lea    0xb152(%rip),%rsi        # 40c210 <__TMC_END__>
  4010be:	48 29 fe             	sub    %rdi,%rsi
  4010c1:	48 89 f0             	mov    %rsi,%rax
  4010c4:	48 c1 ee 3f          	shr    $0x3f,%rsi
  4010c8:	48 c1 f8 03          	sar    $0x3,%rax
  4010cc:	48 01 c6             	add    %rax,%rsi
  4010cf:	48 d1 fe             	sar    %rsi
  4010d2:	74 14                	je     4010e8 <register_tm_clones+0x38>
  4010d4:	48 c7 c0 00 00 00 00 	mov    $0x0,%rax
  4010db:	48 85 c0             	test   %rax,%rax
  4010de:	74 08                	je     4010e8 <register_tm_clones+0x38>
  4010e0:	ff e0                	jmp    *%rax
  4010e2:	66 0f 1f 44 00 00    	nopw   0x0(%rax,%rax,1)
  4010e8:	c3                   	ret    
  4010e9:	0f 1f 80 00 00 00 00 	nopl   0x0(%rax)

00000000004010f0 <__do_global_dtors_aux>:
  4010f0:	f3 0f 1e fa          	endbr64 
  4010f4:	80 3d 25 b1 00 00 00 	cmpb   $0x0,0xb125(%rip)        # 40c220 <completed.0>
  4010fb:	75 2b                	jne    401128 <__do_global_dtors_aux+0x38>
  4010fd:	55                   	push   %rbp
  4010fe:	48 83 3d da ae 00 00 	cmpq   $0x0,0xaeda(%rip)        # 40bfe0 <__bump_lockptr+0x8>
  401105:	00 
  401106:	48 89 e5             	mov    %rsp,%rbp
  401109:	74 0c                	je     401117 <__do_global_dtors_aux+0x27>
  40110b:	48 8b 3d ee ae 00 00 	mov    0xaeee(%rip),%rdi        # 40c000 <__dso_handle>
  401112:	e8 e9 ee bf ff       	call   0 <_init-0x401000>
  401117:	e8 64 ff ff ff       	call   401080 <deregister_tm_clones>
  40111c:	c6 05 fd b0 00 00 01 	movb   $0x1,0xb0fd(%rip)        # 40c220 <completed.0>
  401123:	5d                   	pop    %rbp
  401124:	c3                   	ret    
  401125:	0f 1f 00             	nopl   (%rax)
  401128:	c3                   	ret    
  401129:	0f 1f 80 00 00 00 00 	nopl   0x0(%rax)

0000000000401130 <frame_dummy>:
  401130:	f3 0f 1e fa          	endbr64 
  401134:	e9 77 ff ff ff       	jmp    4010b0 <register_tm_clones>

0000000000401139 <clean_exit_on_sig>:
  401139:	f3 0f 1e fa          	endbr64 
  40113d:	55                   	push   %rbp
  40113e:	48 89 e5             	mov    %rsp,%rbp
  401141:	48 83 ec 10          	sub    $0x10,%rsp
  401145:	89 7d fc             	mov    %edi,-0x4(%rbp)
  401148:	48 8d 05 65 91 00 00 	lea    0x9165(%rip),%rax        # 40a2b4 <puzzle_x86_64+0x2b4>
  40114f:	48 89 c7             	mov    %rax,%rdi
  401152:	e8 c9 17 00 00       	call   402920 <puts>
  401157:	48 8b 05 aa ae 00 00 	mov    0xaeaa(%rip),%rax        # 40c008 <BENNY_GREETINGS>
  40115e:	48 89 c7             	mov    %rax,%rdi
  401161:	e8 ba 17 00 00       	call   402920 <puts>
  401166:	48 8b 05 5b ae 00 00 	mov    0xae5b(%rip),%rax        # 40bfc8 <stdout>
  40116d:	48 89 c7             	mov    %rax,%rdi
  401170:	e8 eb 15 00 00       	call   402760 <fflush>
  401175:	bf 00 00 00 00       	mov    $0x0,%edi
  40117a:	e8 91 fe ff ff       	call   401010 <exit>

000000000040117f <flag>:
  40117f:	f3 0f 1e fa          	endbr64 
  401183:	55                   	push   %rbp
  401184:	48 89 e5             	mov    %rsp,%rbp
  401187:	48 83 ec 40          	sub    $0x40,%rsp
  40118b:	64 48 8b 04 25 28 00 	mov    %fs:0x28,%rax
  401192:	00 00 
  401194:	48 89 45 f8          	mov    %rax,-0x8(%rbp)
  401198:	31 c0                	xor    %eax,%eax
  40119a:	48 c7 45 d0 00 00 00 	movq   $0x0,-0x30(%rbp)
  4011a1:	00 
  4011a2:	48 c7 45 d8 00 00 00 	movq   $0x0,-0x28(%rbp)
  4011a9:	00 
  4011aa:	48 c7 45 e0 00 00 00 	movq   $0x0,-0x20(%rbp)
  4011b1:	00 
  4011b2:	48 c7 45 e8 00 00 00 	movq   $0x0,-0x18(%rbp)
  4011b9:	00 
  4011ba:	be 00 00 00 00       	mov    $0x0,%esi
  4011bf:	48 8d 05 ef 90 00 00 	lea    0x90ef(%rip),%rax        # 40a2b5 <puzzle_x86_64+0x2b5>
  4011c6:	48 89 c7             	mov    %rax,%rdi
  4011c9:	b8 00 00 00 00       	mov    $0x0,%eax
  4011ce:	e8 fd 12 00 00       	call   4024d0 <open>
  4011d3:	89 45 cc             	mov    %eax,-0x34(%rbp)
  4011d6:	48 8d 4d d0          	lea    -0x30(%rbp),%rcx
  4011da:	8b 45 cc             	mov    -0x34(%rbp),%eax
  4011dd:	ba 20 00 00 00       	mov    $0x20,%edx
  4011e2:	48 89 ce             	mov    %rcx,%rsi
  4011e5:	89 c7                	mov    %eax,%edi
  4011e7:	e8 54 1b 00 00       	call   402d40 <read>
  4011ec:	8b 45 cc             	mov    -0x34(%rbp),%eax
  4011ef:	89 c7                	mov    %eax,%edi
  4011f1:	e8 fa 1a 00 00       	call   402cf0 <close>
  4011f6:	48 8d 45 d0          	lea    -0x30(%rbp),%rax
  4011fa:	48 89 c7             	mov    %rax,%rdi
  4011fd:	e8 1e 17 00 00       	call   402920 <puts>
  401202:	48 8b 05 bf ad 00 00 	mov    0xadbf(%rip),%rax        # 40bfc8 <stdout>
  401209:	48 89 c7             	mov    %rax,%rdi
  40120c:	e8 4f 15 00 00       	call   402760 <fflush>
  401211:	90                   	nop
  401212:	48 8b 45 f8          	mov    -0x8(%rbp),%rax
  401216:	64 48 2b 04 25 28 00 	sub    %fs:0x28,%rax
  40121d:	00 00 
  40121f:	74 05                	je     401226 <flag+0xa7>
  401221:	e8 4a 12 00 00       	call   402470 <__stack_chk_fail>
  401226:	c9                   	leave  
  401227:	c3                   	ret    

0000000000401228 <__libc_init_1>:
  401228:	f3 0f 1e fa          	endbr64 
  40122c:	55                   	push   %rbp
  40122d:	48 89 e5             	mov    %rsp,%rbp
  401230:	48 83 ec 40          	sub    $0x40,%rsp
  401234:	64 48 8b 04 25 28 00 	mov    %fs:0x28,%rax
  40123b:	00 00 
  40123d:	48 89 45 f8          	mov    %rax,-0x8(%rbp)
  401241:	31 c0                	xor    %eax,%eax
  401243:	48 c7 45 d0 00 00 00 	movq   $0x0,-0x30(%rbp)
  40124a:	00 
  40124b:	48 c7 45 d8 00 00 00 	movq   $0x0,-0x28(%rbp)
  401252:	00 
  401253:	48 c7 45 e0 00 00 00 	movq   $0x0,-0x20(%rbp)
  40125a:	00 
  40125b:	48 c7 45 e8 00 00 00 	movq   $0x0,-0x18(%rbp)
  401262:	00 
  401263:	be 00 00 00 00       	mov    $0x0,%esi
  401268:	48 8d 05 46 90 00 00 	lea    0x9046(%rip),%rax        # 40a2b5 <puzzle_x86_64+0x2b5>
  40126f:	48 89 c7             	mov    %rax,%rdi
  401272:	b8 00 00 00 00       	mov    $0x0,%eax
  401277:	e8 54 12 00 00       	call   4024d0 <open>
  40127c:	89 45 cc             	mov    %eax,-0x34(%rbp)
  40127f:	48 8d 4d d0          	lea    -0x30(%rbp),%rcx
  401283:	8b 45 cc             	mov    -0x34(%rbp),%eax
  401286:	ba 20 00 00 00       	mov    $0x20,%edx
  40128b:	48 89 ce             	mov    %rcx,%rsi
  40128e:	89 c7                	mov    %eax,%edi
  401290:	e8 ab 1a 00 00       	call   402d40 <read>
  401295:	8b 45 cc             	mov    -0x34(%rbp),%eax
  401298:	89 c7                	mov    %eax,%edi
  40129a:	e8 51 1a 00 00       	call   402cf0 <close>
  40129f:	48 8d 45 d0          	lea    -0x30(%rbp),%rax
  4012a3:	48 89 c7             	mov    %rax,%rdi
  4012a6:	e8 75 16 00 00       	call   402920 <puts>
  4012ab:	48 8b 05 16 ad 00 00 	mov    0xad16(%rip),%rax        # 40bfc8 <stdout>
  4012b2:	48 89 c7             	mov    %rax,%rdi
  4012b5:	e8 a6 14 00 00       	call   402760 <fflush>
  4012ba:	90                   	nop
  4012bb:	48 8b 45 f8          	mov    -0x8(%rbp),%rax
  4012bf:	64 48 2b 04 25 28 00 	sub    %fs:0x28,%rax
  4012c6:	00 00 
  4012c8:	74 05                	je     4012cf <__libc_init_1+0xa7>
  4012ca:	e8 a1 11 00 00       	call   402470 <__stack_chk_fail>
  4012cf:	c9                   	leave  
  4012d0:	c3                   	ret    

00000000004012d1 <__libc_deinit_1>:
  4012d1:	f3 0f 1e fa          	endbr64 
  4012d5:	55                   	push   %rbp
  4012d6:	48 89 e5             	mov    %rsp,%rbp
  4012d9:	48 83 ec 40          	sub    $0x40,%rsp
  4012dd:	64 48 8b 04 25 28 00 	mov    %fs:0x28,%rax
  4012e4:	00 00 
  4012e6:	48 89 45 f8          	mov    %rax,-0x8(%rbp)
  4012ea:	31 c0                	xor    %eax,%eax
  4012ec:	90                   	nop
  4012ed:	90                   	nop
  4012ee:	90                   	nop
  4012ef:	90                   	nop
  4012f0:	90                   	nop
  4012f1:	90                   	nop
  4012f2:	90                   	nop
  4012f3:	90                   	nop
  4012f4:	90                   	nop
  4012f5:	90                   	nop
  4012f6:	90                   	nop
  4012f7:	90                   	nop
  4012f8:	90                   	nop
  4012f9:	90                   	nop
  4012fa:	90                   	nop
  4012fb:	90                   	nop
  4012fc:	90                   	nop
  4012fd:	90                   	nop
  4012fe:	90                   	nop
  4012ff:	90                   	nop
  401300:	90                   	nop
  401301:	90                   	nop
  401302:	90                   	nop
  401303:	90                   	nop
  401304:	90                   	nop
  401305:	90                   	nop
  401306:	90                   	nop
  401307:	90                   	nop
  401308:	90                   	nop
  401309:	90                   	nop
  40130a:	90                   	nop
  40130b:	90                   	nop
  40130c:	90                   	nop
  40130d:	90                   	nop
  40130e:	90                   	nop
  40130f:	90                   	nop
  401310:	90                   	nop
  401311:	90                   	nop
  401312:	90                   	nop
  401313:	90                   	nop
  401314:	90                   	nop
  401315:	90                   	nop
  401316:	90                   	nop
  401317:	90                   	nop
  401318:	90                   	nop
  401319:	90                   	nop
  40131a:	90                   	nop
  40131b:	90                   	nop
  40131c:	90                   	nop
  40131d:	90                   	nop
  40131e:	90                   	nop
  40131f:	90                   	nop
  401320:	90                   	nop
  401321:	90                   	nop
  401322:	90                   	nop
  401323:	90                   	nop
  401324:	90                   	nop
  401325:	90                   	nop
  401326:	90                   	nop
  401327:	90                   	nop
  401328:	90                   	nop
  401329:	90                   	nop
  40132a:	90                   	nop
  40132b:	90                   	nop
  40132c:	90                   	nop
  40132d:	90                   	nop
  40132e:	90                   	nop
  40132f:	90                   	nop
  401330:	90                   	nop
  401331:	90                   	nop
  401332:	90                   	nop
  401333:	90                   	nop
  401334:	90                   	nop
  401335:	90                   	nop
  401336:	90                   	nop
  401337:	90                   	nop
  401338:	90                   	nop
  401339:	90                   	nop
  40133a:	90                   	nop
  40133b:	90                   	nop
  40133c:	90                   	nop
  40133d:	90                   	nop
  40133e:	90                   	nop
  40133f:	90                   	nop
  401340:	90                   	nop
  401341:	90                   	nop
  401342:	90                   	nop
  401343:	90                   	nop
  401344:	90                   	nop
  401345:	90                   	nop
  401346:	90                   	nop
  401347:	90                   	nop
  401348:	90                   	nop
  401349:	90                   	nop
  40134a:	90                   	nop
  40134b:	90                   	nop
  40134c:	90                   	nop
  40134d:	90                   	nop
  40134e:	90                   	nop
  40134f:	90                   	nop
  401350:	90                   	nop
  401351:	90                   	nop
  401352:	90                   	nop
  401353:	90                   	nop
  401354:	90                   	nop
  401355:	90                   	nop
  401356:	90                   	nop
  401357:	90                   	nop
  401358:	90                   	nop
  401359:	90                   	nop
  40135a:	90                   	nop
  40135b:	90                   	nop
  40135c:	90                   	nop
  40135d:	90                   	nop
  40135e:	90                   	nop
  40135f:	90                   	nop
  401360:	90                   	nop
  401361:	90                   	nop
  401362:	90                   	nop
  401363:	90                   	nop
  401364:	90                   	nop
  401365:	90                   	nop
  401366:	90                   	nop
  401367:	90                   	nop
  401368:	90                   	nop
  401369:	90                   	nop
  40136a:	90                   	nop
  40136b:	90                   	nop
  40136c:	90                   	nop
  40136d:	90                   	nop
  40136e:	90                   	nop
  40136f:	90                   	nop
  401370:	90                   	nop
  401371:	90                   	nop
  401372:	90                   	nop
  401373:	90                   	nop
  401374:	90                   	nop
  401375:	90                   	nop
  401376:	90                   	nop
  401377:	90                   	nop
  401378:	90                   	nop
  401379:	90                   	nop
  40137a:	90                   	nop
  40137b:	90                   	nop
  40137c:	90                   	nop
  40137d:	90                   	nop
  40137e:	90                   	nop
  40137f:	90                   	nop
  401380:	90                   	nop
  401381:	90                   	nop
  401382:	90                   	nop
  401383:	90                   	nop
  401384:	90                   	nop
  401385:	90                   	nop
  401386:	90                   	nop
  401387:	90                   	nop
  401388:	90                   	nop
  401389:	90                   	nop
  40138a:	90                   	nop
  40138b:	90                   	nop
  40138c:	90                   	nop
  40138d:	90                   	nop
  40138e:	90                   	nop
  40138f:	90                   	nop
  401390:	90                   	nop
  401391:	90                   	nop
  401392:	90                   	nop
  401393:	90                   	nop
  401394:	90                   	nop
  401395:	90                   	nop
  401396:	90                   	nop
  401397:	90                   	nop
  401398:	90                   	nop
  401399:	90                   	nop
  40139a:	90                   	nop
  40139b:	90                   	nop
  40139c:	90                   	nop
  40139d:	90                   	nop
  40139e:	90                   	nop
  40139f:	90                   	nop
  4013a0:	90                   	nop
  4013a1:	90                   	nop
  4013a2:	90                   	nop
  4013a3:	90                   	nop
  4013a4:	90                   	nop
  4013a5:	90                   	nop
  4013a6:	90                   	nop
  4013a7:	90                   	nop
  4013a8:	90                   	nop
  4013a9:	90                   	nop
  4013aa:	90                   	nop
  4013ab:	90                   	nop
  4013ac:	90                   	nop
  4013ad:	90                   	nop
  4013ae:	90                   	nop
  4013af:	90                   	nop
  4013b0:	90                   	nop
  4013b1:	90                   	nop
  4013b2:	90                   	nop
  4013b3:	90                   	nop
  4013b4:	90                   	nop
  4013b5:	90                   	nop
  4013b6:	90                   	nop
  4013b7:	90                   	nop
  4013b8:	90                   	nop
  4013b9:	90                   	nop
  4013ba:	90                   	nop
  4013bb:	90                   	nop
  4013bc:	90                   	nop
  4013bd:	90                   	nop
  4013be:	90                   	nop
  4013bf:	90                   	nop
  4013c0:	90                   	nop
  4013c1:	90                   	nop
  4013c2:	90                   	nop
  4013c3:	90                   	nop
  4013c4:	90                   	nop
  4013c5:	90                   	nop
  4013c6:	90                   	nop
  4013c7:	90                   	nop
  4013c8:	90                   	nop
  4013c9:	90                   	nop
  4013ca:	90                   	nop
  4013cb:	90                   	nop
  4013cc:	90                   	nop
  4013cd:	90                   	nop
  4013ce:	90                   	nop
  4013cf:	90                   	nop
  4013d0:	90                   	nop
  4013d1:	90                   	nop
  4013d2:	90                   	nop
  4013d3:	90                   	nop
  4013d4:	90                   	nop
  4013d5:	90                   	nop
  4013d6:	90                   	nop
  4013d7:	90                   	nop
  4013d8:	90                   	nop
  4013d9:	90                   	nop
  4013da:	90                   	nop
  4013db:	90                   	nop
  4013dc:	90                   	nop
  4013dd:	90                   	nop
  4013de:	90                   	nop
  4013df:	90                   	nop
  4013e0:	90                   	nop
  4013e1:	90                   	nop
  4013e2:	90                   	nop
  4013e3:	90                   	nop
  4013e4:	90                   	nop
  4013e5:	90                   	nop
  4013e6:	90                   	nop
  4013e7:	90                   	nop
  4013e8:	90                   	nop
  4013e9:	90                   	nop
  4013ea:	90                   	nop
  4013eb:	90                   	nop
  4013ec:	90                   	nop
  4013ed:	90                   	nop
  4013ee:	90                   	nop
  4013ef:	90                   	nop
  4013f0:	90                   	nop
  4013f1:	90                   	nop
  4013f2:	90                   	nop
  4013f3:	90                   	nop
  4013f4:	90                   	nop
  4013f5:	90                   	nop
  4013f6:	90                   	nop
  4013f7:	90                   	nop
  4013f8:	90                   	nop
  4013f9:	90                   	nop
  4013fa:	90                   	nop
  4013fb:	90                   	nop
  4013fc:	90                   	nop
  4013fd:	90                   	nop
  4013fe:	90                   	nop
  4013ff:	90                   	nop
  401400:	90                   	nop
  401401:	90                   	nop
  401402:	90                   	nop
  401403:	90                   	nop
  401404:	90                   	nop
  401405:	90                   	nop
  401406:	90                   	nop
  401407:	90                   	nop
  401408:	90                   	nop
  401409:	90                   	nop
  40140a:	90                   	nop
  40140b:	90                   	nop
  40140c:	90                   	nop
  40140d:	90                   	nop
  40140e:	90                   	nop
  40140f:	90                   	nop
  401410:	90                   	nop
  401411:	90                   	nop
  401412:	90                   	nop
  401413:	90                   	nop
  401414:	90                   	nop
  401415:	90                   	nop
  401416:	90                   	nop
  401417:	90                   	nop
  401418:	90                   	nop
  401419:	90                   	nop
  40141a:	90                   	nop
  40141b:	90                   	nop
  40141c:	90                   	nop
  40141d:	90                   	nop
  40141e:	90                   	nop
  40141f:	90                   	nop
  401420:	90                   	nop
  401421:	90                   	nop
  401422:	90                   	nop
  401423:	90                   	nop
  401424:	90                   	nop
  401425:	90                   	nop
  401426:	90                   	nop
  401427:	90                   	nop
  401428:	90                   	nop
  401429:	90                   	nop
  40142a:	90                   	nop
  40142b:	90                   	nop
  40142c:	90                   	nop
  40142d:	90                   	nop
  40142e:	90                   	nop
  40142f:	90                   	nop
  401430:	90                   	nop
  401431:	90                   	nop
  401432:	90                   	nop
  401433:	90                   	nop
  401434:	90                   	nop
  401435:	90                   	nop
  401436:	90                   	nop
  401437:	90                   	nop
  401438:	90                   	nop
  401439:	90                   	nop
  40143a:	90                   	nop
  40143b:	90                   	nop
  40143c:	90                   	nop
  40143d:	90                   	nop
  40143e:	90                   	nop
  40143f:	90                   	nop
  401440:	90                   	nop
  401441:	90                   	nop
  401442:	90                   	nop
  401443:	90                   	nop
  401444:	90                   	nop
  401445:	90                   	nop
  401446:	90                   	nop
  401447:	90                   	nop
  401448:	90                   	nop
  401449:	90                   	nop
  40144a:	90                   	nop
  40144b:	90                   	nop
  40144c:	90                   	nop
  40144d:	90                   	nop
  40144e:	90                   	nop
  40144f:	90                   	nop
  401450:	90                   	nop
  401451:	90                   	nop
  401452:	90                   	nop
  401453:	90                   	nop
  401454:	90                   	nop
  401455:	90                   	nop
  401456:	90                   	nop
  401457:	90                   	nop
  401458:	90                   	nop
  401459:	90                   	nop
  40145a:	90                   	nop
  40145b:	90                   	nop
  40145c:	90                   	nop
  40145d:	90                   	nop
  40145e:	90                   	nop
  40145f:	90                   	nop
  401460:	90                   	nop
  401461:	90                   	nop
  401462:	90                   	nop
  401463:	90                   	nop
  401464:	90                   	nop
  401465:	90                   	nop
  401466:	90                   	nop
  401467:	90                   	nop
  401468:	90                   	nop
  401469:	90                   	nop
  40146a:	90                   	nop
  40146b:	90                   	nop
  40146c:	90                   	nop
  40146d:	90                   	nop
  40146e:	90                   	nop
  40146f:	90                   	nop
  401470:	90                   	nop
  401471:	90                   	nop
  401472:	90                   	nop
  401473:	90                   	nop
  401474:	90                   	nop
  401475:	90                   	nop
  401476:	90                   	nop
  401477:	90                   	nop
  401478:	90                   	nop
  401479:	90                   	nop
  40147a:	90                   	nop
  40147b:	90                   	nop
  40147c:	90                   	nop
  40147d:	90                   	nop
  40147e:	90                   	nop
  40147f:	90                   	nop
  401480:	90                   	nop
  401481:	90                   	nop
  401482:	90                   	nop
  401483:	90                   	nop
  401484:	90                   	nop
  401485:	90                   	nop
  401486:	90                   	nop
  401487:	90                   	nop
  401488:	90                   	nop
  401489:	90                   	nop
  40148a:	90                   	nop
  40148b:	90                   	nop
  40148c:	90                   	nop
  40148d:	90                   	nop
  40148e:	90                   	nop
  40148f:	90                   	nop
  401490:	90                   	nop
  401491:	90                   	nop
  401492:	90                   	nop
  401493:	90                   	nop
  401494:	90                   	nop
  401495:	90                   	nop
  401496:	90                   	nop
  401497:	90                   	nop
  401498:	90                   	nop
  401499:	90                   	nop
  40149a:	90                   	nop
  40149b:	90                   	nop
  40149c:	90                   	nop
  40149d:	90                   	nop
  40149e:	90                   	nop
  40149f:	90                   	nop
  4014a0:	90                   	nop
  4014a1:	90                   	nop
  4014a2:	90                   	nop
  4014a3:	90                   	nop
  4014a4:	90                   	nop
  4014a5:	90                   	nop
  4014a6:	90                   	nop
  4014a7:	90                   	nop
  4014a8:	90                   	nop
  4014a9:	90                   	nop
  4014aa:	90                   	nop
  4014ab:	90                   	nop
  4014ac:	90                   	nop
  4014ad:	90                   	nop
  4014ae:	90                   	nop
  4014af:	90                   	nop
  4014b0:	90                   	nop
  4014b1:	90                   	nop
  4014b2:	90                   	nop
  4014b3:	90                   	nop
  4014b4:	90                   	nop
  4014b5:	90                   	nop
  4014b6:	90                   	nop
  4014b7:	90                   	nop
  4014b8:	90                   	nop
  4014b9:	90                   	nop
  4014ba:	90                   	nop
  4014bb:	90                   	nop
  4014bc:	90                   	nop
  4014bd:	90                   	nop
  4014be:	90                   	nop
  4014bf:	90                   	nop
  4014c0:	90                   	nop
  4014c1:	90                   	nop
  4014c2:	90                   	nop
  4014c3:	90                   	nop
  4014c4:	90                   	nop
  4014c5:	90                   	nop
  4014c6:	90                   	nop
  4014c7:	90                   	nop
  4014c8:	90                   	nop
  4014c9:	90                   	nop
  4014ca:	90                   	nop
  4014cb:	90                   	nop
  4014cc:	90                   	nop
  4014cd:	90                   	nop
  4014ce:	90                   	nop
  4014cf:	90                   	nop
  4014d0:	90                   	nop
  4014d1:	90                   	nop
  4014d2:	90                   	nop
  4014d3:	90                   	nop
  4014d4:	90                   	nop
  4014d5:	90                   	nop
  4014d6:	90                   	nop
  4014d7:	90                   	nop
  4014d8:	90                   	nop
  4014d9:	90                   	nop
  4014da:	90                   	nop
  4014db:	90                   	nop
  4014dc:	90                   	nop
  4014dd:	90                   	nop
  4014de:	90                   	nop
  4014df:	90                   	nop
  4014e0:	90                   	nop
  4014e1:	90                   	nop
  4014e2:	90                   	nop
  4014e3:	90                   	nop
  4014e4:	90                   	nop
  4014e5:	90                   	nop
  4014e6:	90                   	nop
  4014e7:	90                   	nop
  4014e8:	90                   	nop
  4014e9:	90                   	nop
  4014ea:	90                   	nop
  4014eb:	90                   	nop
  4014ec:	90                   	nop
  4014ed:	90                   	nop
  4014ee:	90                   	nop
  4014ef:	90                   	nop
  4014f0:	90                   	nop
  4014f1:	90                   	nop
  4014f2:	90                   	nop
  4014f3:	90                   	nop
  4014f4:	90                   	nop
  4014f5:	90                   	nop
  4014f6:	90                   	nop
  4014f7:	90                   	nop
  4014f8:	90                   	nop
  4014f9:	90                   	nop
  4014fa:	90                   	nop
  4014fb:	90                   	nop
  4014fc:	90                   	nop
  4014fd:	90                   	nop
  4014fe:	90                   	nop
  4014ff:	90                   	nop
  401500:	90                   	nop
  401501:	90                   	nop
  401502:	90                   	nop
  401503:	90                   	nop
  401504:	90                   	nop
  401505:	90                   	nop
  401506:	90                   	nop
  401507:	90                   	nop
  401508:	90                   	nop
  401509:	90                   	nop
  40150a:	90                   	nop
  40150b:	90                   	nop
  40150c:	90                   	nop
  40150d:	90                   	nop
  40150e:	90                   	nop
  40150f:	90                   	nop
  401510:	90                   	nop
  401511:	90                   	nop
  401512:	90                   	nop
  401513:	90                   	nop
  401514:	90                   	nop
  401515:	90                   	nop
  401516:	90                   	nop
  401517:	90                   	nop
  401518:	90                   	nop
  401519:	90                   	nop
  40151a:	90                   	nop
  40151b:	90                   	nop
  40151c:	90                   	nop
  40151d:	90                   	nop
  40151e:	90                   	nop
  40151f:	90                   	nop
  401520:	90                   	nop
  401521:	90                   	nop
  401522:	90                   	nop
  401523:	90                   	nop
  401524:	90                   	nop
  401525:	90                   	nop
  401526:	90                   	nop
  401527:	90                   	nop
  401528:	90                   	nop
  401529:	90                   	nop
  40152a:	90                   	nop
  40152b:	90                   	nop
  40152c:	90                   	nop
  40152d:	90                   	nop
  40152e:	90                   	nop
  40152f:	90                   	nop
  401530:	90                   	nop
  401531:	90                   	nop
  401532:	90                   	nop
  401533:	90                   	nop
  401534:	90                   	nop
  401535:	90                   	nop
  401536:	90                   	nop
  401537:	90                   	nop
  401538:	90                   	nop
  401539:	90                   	nop
  40153a:	90                   	nop
  40153b:	90                   	nop
  40153c:	90                   	nop
  40153d:	90                   	nop
  40153e:	90                   	nop
  40153f:	90                   	nop
  401540:	90                   	nop
  401541:	90                   	nop
  401542:	90                   	nop
  401543:	90                   	nop
  401544:	90                   	nop
  401545:	90                   	nop
  401546:	90                   	nop
  401547:	90                   	nop
  401548:	90                   	nop
  401549:	90                   	nop
  40154a:	90                   	nop
  40154b:	90                   	nop
  40154c:	90                   	nop
  40154d:	90                   	nop
  40154e:	90                   	nop
  40154f:	90                   	nop
  401550:	90                   	nop
  401551:	90                   	nop
  401552:	90                   	nop
  401553:	90                   	nop
  401554:	90                   	nop
  401555:	90                   	nop
  401556:	90                   	nop
  401557:	90                   	nop
  401558:	90                   	nop
  401559:	90                   	nop
  40155a:	90                   	nop
  40155b:	90                   	nop
  40155c:	90                   	nop
  40155d:	90                   	nop
  40155e:	90                   	nop
  40155f:	90                   	nop
  401560:	90                   	nop
  401561:	90                   	nop
  401562:	90                   	nop
  401563:	90                   	nop
  401564:	90                   	nop
  401565:	90                   	nop
  401566:	90                   	nop
  401567:	90                   	nop
  401568:	90                   	nop
  401569:	90                   	nop
  40156a:	90                   	nop
  40156b:	90                   	nop
  40156c:	90                   	nop
  40156d:	90                   	nop
  40156e:	90                   	nop
  40156f:	90                   	nop
  401570:	90                   	nop
  401571:	90                   	nop
  401572:	90                   	nop
  401573:	90                   	nop
  401574:	90                   	nop
  401575:	90                   	nop
  401576:	90                   	nop
  401577:	90                   	nop
  401578:	90                   	nop
  401579:	90                   	nop
  40157a:	90                   	nop
  40157b:	90                   	nop
  40157c:	90                   	nop
  40157d:	90                   	nop
  40157e:	90                   	nop
  40157f:	90                   	nop
  401580:	90                   	nop
  401581:	90                   	nop
  401582:	90                   	nop
  401583:	90                   	nop
  401584:	90                   	nop
  401585:	90                   	nop
  401586:	90                   	nop
  401587:	90                   	nop
  401588:	90                   	nop
  401589:	90                   	nop
  40158a:	90                   	nop
  40158b:	90                   	nop
  40158c:	90                   	nop
  40158d:	90                   	nop
  40158e:	90                   	nop
  40158f:	90                   	nop
  401590:	90                   	nop
  401591:	90                   	nop
  401592:	90                   	nop
  401593:	90                   	nop
  401594:	90                   	nop
  401595:	90                   	nop
  401596:	90                   	nop
  401597:	90                   	nop
  401598:	90                   	nop
  401599:	90                   	nop
  40159a:	90                   	nop
  40159b:	90                   	nop
  40159c:	90                   	nop
  40159d:	90                   	nop
  40159e:	90                   	nop
  40159f:	90                   	nop
  4015a0:	90                   	nop
  4015a1:	90                   	nop
  4015a2:	90                   	nop
  4015a3:	90                   	nop
  4015a4:	90                   	nop
  4015a5:	90                   	nop
  4015a6:	90                   	nop
  4015a7:	90                   	nop
  4015a8:	90                   	nop
  4015a9:	90                   	nop
  4015aa:	90                   	nop
  4015ab:	90                   	nop
  4015ac:	90                   	nop
  4015ad:	90                   	nop
  4015ae:	90                   	nop
  4015af:	90                   	nop
  4015b0:	90                   	nop
  4015b1:	90                   	nop
  4015b2:	90                   	nop
  4015b3:	90                   	nop
  4015b4:	90                   	nop
  4015b5:	90                   	nop
  4015b6:	90                   	nop
  4015b7:	90                   	nop
  4015b8:	90                   	nop
  4015b9:	90                   	nop
  4015ba:	90                   	nop
  4015bb:	90                   	nop
  4015bc:	90                   	nop
  4015bd:	90                   	nop
  4015be:	90                   	nop
  4015bf:	90                   	nop
  4015c0:	90                   	nop
  4015c1:	90                   	nop
  4015c2:	90                   	nop
  4015c3:	90                   	nop
  4015c4:	90                   	nop
  4015c5:	90                   	nop
  4015c6:	90                   	nop
  4015c7:	90                   	nop
  4015c8:	90                   	nop
  4015c9:	90                   	nop
  4015ca:	90                   	nop
  4015cb:	90                   	nop
  4015cc:	90                   	nop
  4015cd:	90                   	nop
  4015ce:	90                   	nop
  4015cf:	90                   	nop
  4015d0:	90                   	nop
  4015d1:	90                   	nop
  4015d2:	90                   	nop
  4015d3:	90                   	nop
  4015d4:	90                   	nop
  4015d5:	90                   	nop
  4015d6:	90                   	nop
  4015d7:	90                   	nop
  4015d8:	90                   	nop
  4015d9:	90                   	nop
  4015da:	90                   	nop
  4015db:	90                   	nop
  4015dc:	90                   	nop
  4015dd:	90                   	nop
  4015de:	90                   	nop
  4015df:	90                   	nop
  4015e0:	90                   	nop
  4015e1:	90                   	nop
  4015e2:	90                   	nop
  4015e3:	90                   	nop
  4015e4:	90                   	nop
  4015e5:	90                   	nop
  4015e6:	90                   	nop
  4015e7:	90                   	nop
  4015e8:	90                   	nop
  4015e9:	90                   	nop
  4015ea:	90                   	nop
  4015eb:	90                   	nop
  4015ec:	90                   	nop
  4015ed:	90                   	nop
  4015ee:	90                   	nop
  4015ef:	90                   	nop
  4015f0:	90                   	nop
  4015f1:	90                   	nop
  4015f2:	90                   	nop
  4015f3:	90                   	nop
  4015f4:	90                   	nop
  4015f5:	90                   	nop
  4015f6:	90                   	nop
  4015f7:	90                   	nop
  4015f8:	90                   	nop
  4015f9:	90                   	nop
  4015fa:	90                   	nop
  4015fb:	90                   	nop
  4015fc:	90                   	nop
  4015fd:	90                   	nop
  4015fe:	90                   	nop
  4015ff:	90                   	nop
  401600:	90                   	nop
  401601:	90                   	nop
  401602:	90                   	nop
  401603:	90                   	nop
  401604:	90                   	nop
  401605:	90                   	nop
  401606:	90                   	nop
  401607:	90                   	nop
  401608:	90                   	nop
  401609:	90                   	nop
  40160a:	90                   	nop
  40160b:	90                   	nop
  40160c:	90                   	nop
  40160d:	90                   	nop
  40160e:	90                   	nop
  40160f:	90                   	nop
  401610:	90                   	nop
  401611:	90                   	nop
  401612:	90                   	nop
  401613:	90                   	nop
  401614:	90                   	nop
  401615:	90                   	nop
  401616:	90                   	nop
  401617:	90                   	nop
  401618:	90                   	nop
  401619:	90                   	nop
  40161a:	90                   	nop
  40161b:	90                   	nop
  40161c:	90                   	nop
  40161d:	90                   	nop
  40161e:	90                   	nop
  40161f:	90                   	nop
  401620:	90                   	nop
  401621:	90                   	nop
  401622:	90                   	nop
  401623:	90                   	nop
  401624:	90                   	nop
  401625:	90                   	nop
  401626:	90                   	nop
  401627:	90                   	nop
  401628:	90                   	nop
  401629:	90                   	nop
  40162a:	90                   	nop
  40162b:	90                   	nop
  40162c:	90                   	nop
  40162d:	90                   	nop
  40162e:	90                   	nop
  40162f:	90                   	nop
  401630:	90                   	nop
  401631:	90                   	nop
  401632:	90                   	nop
  401633:	90                   	nop
  401634:	90                   	nop
  401635:	90                   	nop
  401636:	90                   	nop
  401637:	90                   	nop
  401638:	90                   	nop
  401639:	90                   	nop
  40163a:	90                   	nop
  40163b:	90                   	nop
  40163c:	90                   	nop
  40163d:	90                   	nop
  40163e:	90                   	nop
  40163f:	90                   	nop
  401640:	90                   	nop
  401641:	90                   	nop
  401642:	90                   	nop
  401643:	90                   	nop
  401644:	90                   	nop
  401645:	90                   	nop
  401646:	90                   	nop
  401647:	90                   	nop
  401648:	90                   	nop
  401649:	90                   	nop
  40164a:	90                   	nop
  40164b:	90                   	nop
  40164c:	90                   	nop
  40164d:	90                   	nop
  40164e:	90                   	nop
  40164f:	90                   	nop
  401650:	90                   	nop
  401651:	90                   	nop
  401652:	90                   	nop
  401653:	90                   	nop
  401654:	90                   	nop
  401655:	90                   	nop
  401656:	90                   	nop
  401657:	90                   	nop
  401658:	90                   	nop
  401659:	90                   	nop
  40165a:	90                   	nop
  40165b:	90                   	nop
  40165c:	90                   	nop
  40165d:	90                   	nop
  40165e:	90                   	nop
  40165f:	90                   	nop
  401660:	90                   	nop
  401661:	90                   	nop
  401662:	90                   	nop
  401663:	90                   	nop
  401664:	90                   	nop
  401665:	90                   	nop
  401666:	90                   	nop
  401667:	90                   	nop
  401668:	90                   	nop
  401669:	90                   	nop
  40166a:	90                   	nop
  40166b:	90                   	nop
  40166c:	90                   	nop
  40166d:	90                   	nop
  40166e:	90                   	nop
  40166f:	90                   	nop
  401670:	90                   	nop
  401671:	90                   	nop
  401672:	90                   	nop
  401673:	90                   	nop
  401674:	90                   	nop
  401675:	90                   	nop
  401676:	90                   	nop
  401677:	90                   	nop
  401678:	90                   	nop
  401679:	90                   	nop
  40167a:	90                   	nop
  40167b:	90                   	nop
  40167c:	90                   	nop
  40167d:	90                   	nop
  40167e:	90                   	nop
  40167f:	90                   	nop
  401680:	90                   	nop
  401681:	90                   	nop
  401682:	90                   	nop
  401683:	90                   	nop
  401684:	90                   	nop
  401685:	90                   	nop
  401686:	90                   	nop
  401687:	90                   	nop
  401688:	90                   	nop
  401689:	90                   	nop
  40168a:	90                   	nop
  40168b:	90                   	nop
  40168c:	90                   	nop
  40168d:	90                   	nop
  40168e:	90                   	nop
  40168f:	90                   	nop
  401690:	90                   	nop
  401691:	90                   	nop
  401692:	90                   	nop
  401693:	90                   	nop
  401694:	90                   	nop
  401695:	90                   	nop
  401696:	90                   	nop
  401697:	90                   	nop
  401698:	90                   	nop
  401699:	90                   	nop
  40169a:	90                   	nop
  40169b:	90                   	nop
  40169c:	90                   	nop
  40169d:	90                   	nop
  40169e:	90                   	nop
  40169f:	90                   	nop
  4016a0:	90                   	nop
  4016a1:	90                   	nop
  4016a2:	90                   	nop
  4016a3:	90                   	nop
  4016a4:	90                   	nop
  4016a5:	90                   	nop
  4016a6:	90                   	nop
  4016a7:	90                   	nop
  4016a8:	90                   	nop
  4016a9:	90                   	nop
  4016aa:	90                   	nop
  4016ab:	90                   	nop
  4016ac:	90                   	nop
  4016ad:	90                   	nop
  4016ae:	90                   	nop
  4016af:	90                   	nop
  4016b0:	90                   	nop
  4016b1:	90                   	nop
  4016b2:	90                   	nop
  4016b3:	90                   	nop
  4016b4:	90                   	nop
  4016b5:	90                   	nop
  4016b6:	90                   	nop
  4016b7:	90                   	nop
  4016b8:	90                   	nop
  4016b9:	90                   	nop
  4016ba:	90                   	nop
  4016bb:	90                   	nop
  4016bc:	90                   	nop
  4016bd:	90                   	nop
  4016be:	90                   	nop
  4016bf:	90                   	nop
  4016c0:	90                   	nop
  4016c1:	90                   	nop
  4016c2:	90                   	nop
  4016c3:	90                   	nop
  4016c4:	90                   	nop
  4016c5:	90                   	nop
  4016c6:	90                   	nop
  4016c7:	90                   	nop
  4016c8:	90                   	nop
  4016c9:	90                   	nop
  4016ca:	90                   	nop
  4016cb:	90                   	nop
  4016cc:	90                   	nop
  4016cd:	90                   	nop
  4016ce:	90                   	nop
  4016cf:	90                   	nop
  4016d0:	90                   	nop
  4016d1:	90                   	nop
  4016d2:	90                   	nop
  4016d3:	90                   	nop
  4016d4:	90                   	nop
  4016d5:	90                   	nop
  4016d6:	90                   	nop
  4016d7:	90                   	nop
  4016d8:	90                   	nop
  4016d9:	90                   	nop
  4016da:	90                   	nop
  4016db:	90                   	nop
  4016dc:	90                   	nop
  4016dd:	90                   	nop
  4016de:	90                   	nop
  4016df:	90                   	nop
  4016e0:	90                   	nop
  4016e1:	90                   	nop
  4016e2:	90                   	nop
  4016e3:	90                   	nop
  4016e4:	90                   	nop
  4016e5:	90                   	nop
  4016e6:	90                   	nop
  4016e7:	90                   	nop
  4016e8:	90                   	nop
  4016e9:	90                   	nop
  4016ea:	90                   	nop
  4016eb:	90                   	nop
  4016ec:	90                   	nop
  4016ed:	90                   	nop
  4016ee:	90                   	nop
  4016ef:	90                   	nop
  4016f0:	90                   	nop
  4016f1:	90                   	nop
  4016f2:	90                   	nop
  4016f3:	90                   	nop
  4016f4:	90                   	nop
  4016f5:	90                   	nop
  4016f6:	90                   	nop
  4016f7:	90                   	nop
  4016f8:	90                   	nop
  4016f9:	90                   	nop
  4016fa:	90                   	nop
  4016fb:	90                   	nop
  4016fc:	90                   	nop
  4016fd:	90                   	nop
  4016fe:	90                   	nop
  4016ff:	90                   	nop
  401700:	90                   	nop
  401701:	90                   	nop
  401702:	90                   	nop
  401703:	90                   	nop
  401704:	90                   	nop
  401705:	90                   	nop
  401706:	90                   	nop
  401707:	90                   	nop
  401708:	90                   	nop
  401709:	90                   	nop
  40170a:	90                   	nop
  40170b:	90                   	nop
  40170c:	90                   	nop
  40170d:	90                   	nop
  40170e:	90                   	nop
  40170f:	90                   	nop
  401710:	90                   	nop
  401711:	90                   	nop
  401712:	90                   	nop
  401713:	90                   	nop
  401714:	90                   	nop
  401715:	90                   	nop
  401716:	90                   	nop
  401717:	90                   	nop
  401718:	90                   	nop
  401719:	90                   	nop
  40171a:	90                   	nop
  40171b:	90                   	nop
  40171c:	90                   	nop
  40171d:	90                   	nop
  40171e:	90                   	nop
  40171f:	90                   	nop
  401720:	90                   	nop
  401721:	90                   	nop
  401722:	90                   	nop
  401723:	90                   	nop
  401724:	90                   	nop
  401725:	90                   	nop
  401726:	90                   	nop
  401727:	90                   	nop
  401728:	90                   	nop
  401729:	90                   	nop
  40172a:	90                   	nop
  40172b:	90                   	nop
  40172c:	90                   	nop
  40172d:	90                   	nop
  40172e:	90                   	nop
  40172f:	90                   	nop
  401730:	90                   	nop
  401731:	90                   	nop
  401732:	90                   	nop
  401733:	90                   	nop
  401734:	90                   	nop
  401735:	90                   	nop
  401736:	90                   	nop
  401737:	90                   	nop
  401738:	90                   	nop
  401739:	90                   	nop
  40173a:	90                   	nop
  40173b:	90                   	nop
  40173c:	90                   	nop
  40173d:	90                   	nop
  40173e:	90                   	nop
  40173f:	90                   	nop
  401740:	90                   	nop
  401741:	90                   	nop
  401742:	90                   	nop
  401743:	90                   	nop
  401744:	90                   	nop
  401745:	90                   	nop
  401746:	90                   	nop
  401747:	90                   	nop
  401748:	90                   	nop
  401749:	90                   	nop
  40174a:	90                   	nop
  40174b:	90                   	nop
  40174c:	90                   	nop
  40174d:	90                   	nop
  40174e:	90                   	nop
  40174f:	90                   	nop
  401750:	90                   	nop
  401751:	90                   	nop
  401752:	90                   	nop
  401753:	90                   	nop
  401754:	90                   	nop
  401755:	90                   	nop
  401756:	90                   	nop
  401757:	90                   	nop
  401758:	90                   	nop
  401759:	90                   	nop
  40175a:	90                   	nop
  40175b:	90                   	nop
  40175c:	90                   	nop
  40175d:	90                   	nop
  40175e:	90                   	nop
  40175f:	90                   	nop
  401760:	90                   	nop
  401761:	90                   	nop
  401762:	90                   	nop
  401763:	90                   	nop
  401764:	90                   	nop
  401765:	90                   	nop
  401766:	90                   	nop
  401767:	90                   	nop
  401768:	90                   	nop
  401769:	90                   	nop
  40176a:	90                   	nop
  40176b:	90                   	nop
  40176c:	90                   	nop
  40176d:	90                   	nop
  40176e:	90                   	nop
  40176f:	90                   	nop
  401770:	90                   	nop
  401771:	90                   	nop
  401772:	90                   	nop
  401773:	90                   	nop
  401774:	90                   	nop
  401775:	90                   	nop
  401776:	90                   	nop
  401777:	90                   	nop
  401778:	90                   	nop
  401779:	90                   	nop
  40177a:	90                   	nop
  40177b:	90                   	nop
  40177c:	90                   	nop
  40177d:	90                   	nop
  40177e:	90                   	nop
  40177f:	90                   	nop
  401780:	90                   	nop
  401781:	90                   	nop
  401782:	90                   	nop
  401783:	90                   	nop
  401784:	90                   	nop
  401785:	90                   	nop
  401786:	90                   	nop
  401787:	90                   	nop
  401788:	90                   	nop
  401789:	90                   	nop
  40178a:	90                   	nop
  40178b:	90                   	nop
  40178c:	90                   	nop
  40178d:	90                   	nop
  40178e:	90                   	nop
  40178f:	90                   	nop
  401790:	90                   	nop
  401791:	90                   	nop
  401792:	90                   	nop
  401793:	90                   	nop
  401794:	90                   	nop
  401795:	90                   	nop
  401796:	90                   	nop
  401797:	90                   	nop
  401798:	90                   	nop
  401799:	90                   	nop
  40179a:	90                   	nop
  40179b:	90                   	nop
  40179c:	90                   	nop
  40179d:	90                   	nop
  40179e:	90                   	nop
  40179f:	90                   	nop
  4017a0:	90                   	nop
  4017a1:	90                   	nop
  4017a2:	90                   	nop
  4017a3:	90                   	nop
  4017a4:	90                   	nop
  4017a5:	90                   	nop
  4017a6:	90                   	nop
  4017a7:	90                   	nop
  4017a8:	90                   	nop
  4017a9:	90                   	nop
  4017aa:	90                   	nop
  4017ab:	90                   	nop
  4017ac:	90                   	nop
  4017ad:	90                   	nop
  4017ae:	90                   	nop
  4017af:	90                   	nop
  4017b0:	90                   	nop
  4017b1:	90                   	nop
  4017b2:	90                   	nop
  4017b3:	90                   	nop
  4017b4:	90                   	nop
  4017b5:	90                   	nop
  4017b6:	90                   	nop
  4017b7:	90                   	nop
  4017b8:	90                   	nop
  4017b9:	90                   	nop
  4017ba:	90                   	nop
  4017bb:	90                   	nop
  4017bc:	90                   	nop
  4017bd:	90                   	nop
  4017be:	90                   	nop
  4017bf:	90                   	nop
  4017c0:	90                   	nop
  4017c1:	90                   	nop
  4017c2:	90                   	nop
  4017c3:	90                   	nop
  4017c4:	90                   	nop
  4017c5:	90                   	nop
  4017c6:	90                   	nop
  4017c7:	90                   	nop
  4017c8:	90                   	nop
  4017c9:	90                   	nop
  4017ca:	90                   	nop
  4017cb:	90                   	nop
  4017cc:	90                   	nop
  4017cd:	90                   	nop
  4017ce:	90                   	nop
  4017cf:	90                   	nop
  4017d0:	90                   	nop
  4017d1:	90                   	nop
  4017d2:	90                   	nop
  4017d3:	90                   	nop
  4017d4:	90                   	nop
  4017d5:	90                   	nop
  4017d6:	90                   	nop
  4017d7:	90                   	nop
  4017d8:	90                   	nop
  4017d9:	90                   	nop
  4017da:	90                   	nop
  4017db:	90                   	nop
  4017dc:	90                   	nop
  4017dd:	90                   	nop
  4017de:	90                   	nop
  4017df:	90                   	nop
  4017e0:	90                   	nop
  4017e1:	90                   	nop
  4017e2:	90                   	nop
  4017e3:	90                   	nop
  4017e4:	90                   	nop
  4017e5:	90                   	nop
  4017e6:	90                   	nop
  4017e7:	90                   	nop
  4017e8:	90                   	nop
  4017e9:	90                   	nop
  4017ea:	90                   	nop
  4017eb:	90                   	nop
  4017ec:	90                   	nop
  4017ed:	90                   	nop
  4017ee:	90                   	nop
  4017ef:	90                   	nop
  4017f0:	90                   	nop
  4017f1:	90                   	nop
  4017f2:	90                   	nop
  4017f3:	90                   	nop
  4017f4:	90                   	nop
  4017f5:	90                   	nop
  4017f6:	90                   	nop
  4017f7:	90                   	nop
  4017f8:	90                   	nop
  4017f9:	90                   	nop
  4017fa:	90                   	nop
  4017fb:	90                   	nop
  4017fc:	90                   	nop
  4017fd:	90                   	nop
  4017fe:	90                   	nop
  4017ff:	90                   	nop
  401800:	90                   	nop
  401801:	90                   	nop
  401802:	90                   	nop
  401803:	90                   	nop
  401804:	90                   	nop
  401805:	90                   	nop
  401806:	90                   	nop
  401807:	90                   	nop
  401808:	90                   	nop
  401809:	90                   	nop
  40180a:	90                   	nop
  40180b:	90                   	nop
  40180c:	90                   	nop
  40180d:	90                   	nop
  40180e:	90                   	nop
  40180f:	90                   	nop
  401810:	90                   	nop
  401811:	90                   	nop
  401812:	90                   	nop
  401813:	90                   	nop
  401814:	90                   	nop
  401815:	90                   	nop
  401816:	90                   	nop
  401817:	90                   	nop
  401818:	90                   	nop
  401819:	90                   	nop
  40181a:	90                   	nop
  40181b:	90                   	nop
  40181c:	90                   	nop
  40181d:	90                   	nop
  40181e:	90                   	nop
  40181f:	90                   	nop
  401820:	90                   	nop
  401821:	90                   	nop
  401822:	90                   	nop
  401823:	90                   	nop
  401824:	90                   	nop
  401825:	90                   	nop
  401826:	90                   	nop
  401827:	90                   	nop
  401828:	90                   	nop
  401829:	90                   	nop
  40182a:	90                   	nop
  40182b:	90                   	nop
  40182c:	90                   	nop
  40182d:	90                   	nop
  40182e:	90                   	nop
  40182f:	90                   	nop
  401830:	90                   	nop
  401831:	90                   	nop
  401832:	90                   	nop
  401833:	90                   	nop
  401834:	90                   	nop
  401835:	90                   	nop
  401836:	90                   	nop
  401837:	90                   	nop
  401838:	90                   	nop
  401839:	90                   	nop
  40183a:	90                   	nop
  40183b:	90                   	nop
  40183c:	90                   	nop
  40183d:	90                   	nop
  40183e:	90                   	nop
  40183f:	90                   	nop
  401840:	90                   	nop
  401841:	90                   	nop
  401842:	90                   	nop
  401843:	90                   	nop
  401844:	90                   	nop
  401845:	90                   	nop
  401846:	90                   	nop
  401847:	90                   	nop
  401848:	90                   	nop
  401849:	90                   	nop
  40184a:	90                   	nop
  40184b:	90                   	nop
  40184c:	90                   	nop
  40184d:	90                   	nop
  40184e:	90                   	nop
  40184f:	90                   	nop
  401850:	90                   	nop
  401851:	90                   	nop
  401852:	90                   	nop
  401853:	90                   	nop
  401854:	90                   	nop
  401855:	90                   	nop
  401856:	90                   	nop
  401857:	90                   	nop
  401858:	90                   	nop
  401859:	90                   	nop
  40185a:	90                   	nop
  40185b:	90                   	nop
  40185c:	90                   	nop
  40185d:	90                   	nop
  40185e:	90                   	nop
  40185f:	90                   	nop
  401860:	90                   	nop
  401861:	90                   	nop
  401862:	90                   	nop
  401863:	90                   	nop
  401864:	90                   	nop
  401865:	90                   	nop
  401866:	90                   	nop
  401867:	90                   	nop
  401868:	90                   	nop
  401869:	90                   	nop
  40186a:	90                   	nop
  40186b:	90                   	nop
  40186c:	90                   	nop
  40186d:	90                   	nop
  40186e:	90                   	nop
  40186f:	90                   	nop
  401870:	90                   	nop
  401871:	90                   	nop
  401872:	90                   	nop
  401873:	90                   	nop
  401874:	90                   	nop
  401875:	90                   	nop
  401876:	90                   	nop
  401877:	90                   	nop
  401878:	90                   	nop
  401879:	90                   	nop
  40187a:	90                   	nop
  40187b:	90                   	nop
  40187c:	90                   	nop
  40187d:	90                   	nop
  40187e:	90                   	nop
  40187f:	90                   	nop
  401880:	90                   	nop
  401881:	90                   	nop
  401882:	90                   	nop
  401883:	90                   	nop
  401884:	90                   	nop
  401885:	90                   	nop
  401886:	90                   	nop
  401887:	90                   	nop
  401888:	90                   	nop
  401889:	90                   	nop
  40188a:	90                   	nop
  40188b:	90                   	nop
  40188c:	90                   	nop
  40188d:	90                   	nop
  40188e:	90                   	nop
  40188f:	90                   	nop
  401890:	90                   	nop
  401891:	90                   	nop
  401892:	90                   	nop
  401893:	90                   	nop
  401894:	90                   	nop
  401895:	90                   	nop
  401896:	90                   	nop
  401897:	90                   	nop
  401898:	90                   	nop
  401899:	90                   	nop
  40189a:	90                   	nop
  40189b:	90                   	nop
  40189c:	90                   	nop
  40189d:	90                   	nop
  40189e:	90                   	nop
  40189f:	90                   	nop
  4018a0:	90                   	nop
  4018a1:	90                   	nop
  4018a2:	90                   	nop
  4018a3:	90                   	nop
  4018a4:	90                   	nop
  4018a5:	90                   	nop
  4018a6:	90                   	nop
  4018a7:	90                   	nop
  4018a8:	90                   	nop
  4018a9:	90                   	nop
  4018aa:	90                   	nop
  4018ab:	90                   	nop
  4018ac:	90                   	nop
  4018ad:	90                   	nop
  4018ae:	90                   	nop
  4018af:	90                   	nop
  4018b0:	90                   	nop
  4018b1:	90                   	nop
  4018b2:	90                   	nop
  4018b3:	90                   	nop
  4018b4:	90                   	nop
  4018b5:	90                   	nop
  4018b6:	90                   	nop
  4018b7:	90                   	nop
  4018b8:	90                   	nop
  4018b9:	90                   	nop
  4018ba:	90                   	nop
  4018bb:	90                   	nop
  4018bc:	90                   	nop
  4018bd:	90                   	nop
  4018be:	90                   	nop
  4018bf:	90                   	nop
  4018c0:	90                   	nop
  4018c1:	90                   	nop
  4018c2:	90                   	nop
  4018c3:	90                   	nop
  4018c4:	90                   	nop
  4018c5:	90                   	nop
  4018c6:	90                   	nop
  4018c7:	90                   	nop
  4018c8:	90                   	nop
  4018c9:	90                   	nop
  4018ca:	90                   	nop
  4018cb:	90                   	nop
  4018cc:	90                   	nop
  4018cd:	90                   	nop
  4018ce:	90                   	nop
  4018cf:	90                   	nop
  4018d0:	90                   	nop
  4018d1:	90                   	nop
  4018d2:	90                   	nop
  4018d3:	90                   	nop
  4018d4:	90                   	nop
  4018d5:	90                   	nop
  4018d6:	90                   	nop
  4018d7:	90                   	nop
  4018d8:	90                   	nop
  4018d9:	90                   	nop
  4018da:	90                   	nop
  4018db:	90                   	nop
  4018dc:	90                   	nop
  4018dd:	90                   	nop
  4018de:	90                   	nop
  4018df:	90                   	nop
  4018e0:	90                   	nop
  4018e1:	90                   	nop
  4018e2:	90                   	nop
  4018e3:	90                   	nop
  4018e4:	90                   	nop
  4018e5:	90                   	nop
  4018e6:	90                   	nop
  4018e7:	90                   	nop
  4018e8:	90                   	nop
  4018e9:	90                   	nop
  4018ea:	90                   	nop
  4018eb:	90                   	nop
  4018ec:	90                   	nop
  4018ed:	90                   	nop
  4018ee:	90                   	nop
  4018ef:	90                   	nop
  4018f0:	90                   	nop
  4018f1:	90                   	nop
  4018f2:	90                   	nop
  4018f3:	90                   	nop
  4018f4:	90                   	nop
  4018f5:	90                   	nop
  4018f6:	90                   	nop
  4018f7:	90                   	nop
  4018f8:	90                   	nop
  4018f9:	90                   	nop
  4018fa:	90                   	nop
  4018fb:	90                   	nop
  4018fc:	90                   	nop
  4018fd:	90                   	nop
  4018fe:	90                   	nop
  4018ff:	90                   	nop
  401900:	90                   	nop
  401901:	90                   	nop
  401902:	90                   	nop
  401903:	90                   	nop
  401904:	90                   	nop
  401905:	90                   	nop
  401906:	90                   	nop
  401907:	90                   	nop
  401908:	90                   	nop
  401909:	90                   	nop
  40190a:	90                   	nop
  40190b:	90                   	nop
  40190c:	90                   	nop
  40190d:	90                   	nop
  40190e:	90                   	nop
  40190f:	90                   	nop
  401910:	90                   	nop
  401911:	90                   	nop
  401912:	90                   	nop
  401913:	90                   	nop
  401914:	90                   	nop
  401915:	90                   	nop
  401916:	90                   	nop
  401917:	90                   	nop
  401918:	90                   	nop
  401919:	90                   	nop
  40191a:	90                   	nop
  40191b:	90                   	nop
  40191c:	90                   	nop
  40191d:	90                   	nop
  40191e:	90                   	nop
  40191f:	90                   	nop
  401920:	90                   	nop
  401921:	90                   	nop
  401922:	90                   	nop
  401923:	90                   	nop
  401924:	90                   	nop
  401925:	90                   	nop
  401926:	90                   	nop
  401927:	90                   	nop
  401928:	90                   	nop
  401929:	90                   	nop
  40192a:	90                   	nop
  40192b:	90                   	nop
  40192c:	90                   	nop
  40192d:	90                   	nop
  40192e:	90                   	nop
  40192f:	90                   	nop
  401930:	90                   	nop
  401931:	90                   	nop
  401932:	90                   	nop
  401933:	90                   	nop
  401934:	90                   	nop
  401935:	90                   	nop
  401936:	90                   	nop
  401937:	90                   	nop
  401938:	90                   	nop
  401939:	90                   	nop
  40193a:	90                   	nop
  40193b:	90                   	nop
  40193c:	90                   	nop
  40193d:	90                   	nop
  40193e:	90                   	nop
  40193f:	90                   	nop
  401940:	90                   	nop
  401941:	90                   	nop
  401942:	90                   	nop
  401943:	90                   	nop
  401944:	90                   	nop
  401945:	90                   	nop
  401946:	90                   	nop
  401947:	90                   	nop
  401948:	90                   	nop
  401949:	90                   	nop
  40194a:	90                   	nop
  40194b:	90                   	nop
  40194c:	90                   	nop
  40194d:	90                   	nop
  40194e:	90                   	nop
  40194f:	90                   	nop
  401950:	90                   	nop
  401951:	90                   	nop
  401952:	90                   	nop
  401953:	90                   	nop
  401954:	90                   	nop
  401955:	90                   	nop
  401956:	90                   	nop
  401957:	90                   	nop
  401958:	90                   	nop
  401959:	90                   	nop
  40195a:	90                   	nop
  40195b:	90                   	nop
  40195c:	90                   	nop
  40195d:	90                   	nop
  40195e:	90                   	nop
  40195f:	90                   	nop
  401960:	90                   	nop
  401961:	90                   	nop
  401962:	90                   	nop
  401963:	90                   	nop
  401964:	90                   	nop
  401965:	90                   	nop
  401966:	90                   	nop
  401967:	90                   	nop
  401968:	90                   	nop
  401969:	90                   	nop
  40196a:	90                   	nop
  40196b:	90                   	nop
  40196c:	90                   	nop
  40196d:	90                   	nop
  40196e:	90                   	nop
  40196f:	90                   	nop
  401970:	90                   	nop
  401971:	90                   	nop
  401972:	90                   	nop
  401973:	90                   	nop
  401974:	90                   	nop
  401975:	90                   	nop
  401976:	90                   	nop
  401977:	90                   	nop
  401978:	90                   	nop
  401979:	90                   	nop
  40197a:	90                   	nop
  40197b:	90                   	nop
  40197c:	90                   	nop
  40197d:	90                   	nop
  40197e:	90                   	nop
  40197f:	90                   	nop
  401980:	90                   	nop
  401981:	90                   	nop
  401982:	90                   	nop
  401983:	90                   	nop
  401984:	90                   	nop
  401985:	90                   	nop
  401986:	90                   	nop
  401987:	90                   	nop
  401988:	90                   	nop
  401989:	90                   	nop
  40198a:	90                   	nop
  40198b:	90                   	nop
  40198c:	90                   	nop
  40198d:	90                   	nop
  40198e:	90                   	nop
  40198f:	90                   	nop
  401990:	90                   	nop
  401991:	90                   	nop
  401992:	90                   	nop
  401993:	90                   	nop
  401994:	90                   	nop
  401995:	90                   	nop
  401996:	90                   	nop
  401997:	90                   	nop
  401998:	90                   	nop
  401999:	90                   	nop
  40199a:	90                   	nop
  40199b:	90                   	nop
  40199c:	90                   	nop
  40199d:	90                   	nop
  40199e:	90                   	nop
  40199f:	90                   	nop
  4019a0:	90                   	nop
  4019a1:	90                   	nop
  4019a2:	90                   	nop
  4019a3:	90                   	nop
  4019a4:	90                   	nop
  4019a5:	90                   	nop
  4019a6:	90                   	nop
  4019a7:	90                   	nop
  4019a8:	90                   	nop
  4019a9:	90                   	nop
  4019aa:	90                   	nop
  4019ab:	90                   	nop
  4019ac:	90                   	nop
  4019ad:	90                   	nop
  4019ae:	90                   	nop
  4019af:	90                   	nop
  4019b0:	90                   	nop
  4019b1:	90                   	nop
  4019b2:	90                   	nop
  4019b3:	90                   	nop
  4019b4:	90                   	nop
  4019b5:	90                   	nop
  4019b6:	90                   	nop
  4019b7:	90                   	nop
  4019b8:	90                   	nop
  4019b9:	90                   	nop
  4019ba:	90                   	nop
  4019bb:	90                   	nop
  4019bc:	90                   	nop
  4019bd:	90                   	nop
  4019be:	90                   	nop
  4019bf:	90                   	nop
  4019c0:	90                   	nop
  4019c1:	90                   	nop
  4019c2:	90                   	nop
  4019c3:	90                   	nop
  4019c4:	90                   	nop
  4019c5:	90                   	nop
  4019c6:	90                   	nop
  4019c7:	90                   	nop
  4019c8:	90                   	nop
  4019c9:	90                   	nop
  4019ca:	90                   	nop
  4019cb:	90                   	nop
  4019cc:	90                   	nop
  4019cd:	90                   	nop
  4019ce:	90                   	nop
  4019cf:	90                   	nop
  4019d0:	90                   	nop
  4019d1:	90                   	nop
  4019d2:	90                   	nop
  4019d3:	90                   	nop
  4019d4:	90                   	nop
  4019d5:	90                   	nop
  4019d6:	90                   	nop
  4019d7:	90                   	nop
  4019d8:	90                   	nop
  4019d9:	90                   	nop
  4019da:	90                   	nop
  4019db:	90                   	nop
  4019dc:	90                   	nop
  4019dd:	90                   	nop
  4019de:	90                   	nop
  4019df:	90                   	nop
  4019e0:	90                   	nop
  4019e1:	90                   	nop
  4019e2:	90                   	nop
  4019e3:	90                   	nop
  4019e4:	90                   	nop
  4019e5:	90                   	nop
  4019e6:	90                   	nop
  4019e7:	90                   	nop
  4019e8:	90                   	nop
  4019e9:	90                   	nop
  4019ea:	90                   	nop
  4019eb:	90                   	nop
  4019ec:	90                   	nop
  4019ed:	90                   	nop
  4019ee:	90                   	nop
  4019ef:	90                   	nop
  4019f0:	90                   	nop
  4019f1:	90                   	nop
  4019f2:	90                   	nop
  4019f3:	90                   	nop
  4019f4:	90                   	nop
  4019f5:	90                   	nop
  4019f6:	90                   	nop
  4019f7:	90                   	nop
  4019f8:	90                   	nop
  4019f9:	90                   	nop
  4019fa:	90                   	nop
  4019fb:	90                   	nop
  4019fc:	90                   	nop
  4019fd:	90                   	nop
  4019fe:	90                   	nop
  4019ff:	90                   	nop
  401a00:	90                   	nop
  401a01:	90                   	nop
  401a02:	90                   	nop
  401a03:	90                   	nop
  401a04:	90                   	nop
  401a05:	90                   	nop
  401a06:	90                   	nop
  401a07:	90                   	nop
  401a08:	90                   	nop
  401a09:	90                   	nop
  401a0a:	90                   	nop
  401a0b:	90                   	nop
  401a0c:	90                   	nop
  401a0d:	90                   	nop
  401a0e:	90                   	nop
  401a0f:	90                   	nop
  401a10:	90                   	nop
  401a11:	90                   	nop
  401a12:	90                   	nop
  401a13:	90                   	nop
  401a14:	90                   	nop
  401a15:	90                   	nop
  401a16:	90                   	nop
  401a17:	90                   	nop
  401a18:	90                   	nop
  401a19:	90                   	nop
  401a1a:	90                   	nop
  401a1b:	90                   	nop
  401a1c:	90                   	nop
  401a1d:	90                   	nop
  401a1e:	90                   	nop
  401a1f:	90                   	nop
  401a20:	90                   	nop
  401a21:	90                   	nop
  401a22:	90                   	nop
  401a23:	90                   	nop
  401a24:	90                   	nop
  401a25:	90                   	nop
  401a26:	90                   	nop
  401a27:	90                   	nop
  401a28:	90                   	nop
  401a29:	90                   	nop
  401a2a:	90                   	nop
  401a2b:	90                   	nop
  401a2c:	90                   	nop
  401a2d:	90                   	nop
  401a2e:	90                   	nop
  401a2f:	90                   	nop
  401a30:	90                   	nop
  401a31:	90                   	nop
  401a32:	90                   	nop
  401a33:	90                   	nop
  401a34:	90                   	nop
  401a35:	90                   	nop
  401a36:	90                   	nop
  401a37:	90                   	nop
  401a38:	90                   	nop
  401a39:	90                   	nop
  401a3a:	90                   	nop
  401a3b:	90                   	nop
  401a3c:	90                   	nop
  401a3d:	90                   	nop
  401a3e:	90                   	nop
  401a3f:	90                   	nop
  401a40:	90                   	nop
  401a41:	90                   	nop
  401a42:	90                   	nop
  401a43:	90                   	nop
  401a44:	90                   	nop
  401a45:	90                   	nop
  401a46:	90                   	nop
  401a47:	90                   	nop
  401a48:	90                   	nop
  401a49:	90                   	nop
  401a4a:	90                   	nop
  401a4b:	90                   	nop
  401a4c:	90                   	nop
  401a4d:	90                   	nop
  401a4e:	90                   	nop
  401a4f:	90                   	nop
  401a50:	90                   	nop
  401a51:	90                   	nop
  401a52:	90                   	nop
  401a53:	90                   	nop
  401a54:	90                   	nop
  401a55:	90                   	nop
  401a56:	90                   	nop
  401a57:	90                   	nop
  401a58:	90                   	nop
  401a59:	90                   	nop
  401a5a:	90                   	nop
  401a5b:	90                   	nop
  401a5c:	90                   	nop
  401a5d:	90                   	nop
  401a5e:	90                   	nop
  401a5f:	90                   	nop
  401a60:	90                   	nop
  401a61:	90                   	nop
  401a62:	90                   	nop
  401a63:	90                   	nop
  401a64:	90                   	nop
  401a65:	90                   	nop
  401a66:	90                   	nop
  401a67:	90                   	nop
  401a68:	90                   	nop
  401a69:	90                   	nop
  401a6a:	90                   	nop
  401a6b:	90                   	nop
  401a6c:	90                   	nop
  401a6d:	90                   	nop
  401a6e:	90                   	nop
  401a6f:	90                   	nop
  401a70:	90                   	nop
  401a71:	90                   	nop
  401a72:	90                   	nop
  401a73:	90                   	nop
  401a74:	90                   	nop
  401a75:	90                   	nop
  401a76:	90                   	nop
  401a77:	90                   	nop
  401a78:	90                   	nop
  401a79:	90                   	nop
  401a7a:	90                   	nop
  401a7b:	90                   	nop
  401a7c:	90                   	nop
  401a7d:	90                   	nop
  401a7e:	90                   	nop
  401a7f:	90                   	nop
  401a80:	90                   	nop
  401a81:	90                   	nop
  401a82:	90                   	nop
  401a83:	90                   	nop
  401a84:	90                   	nop
  401a85:	90                   	nop
  401a86:	90                   	nop
  401a87:	90                   	nop
  401a88:	90                   	nop
  401a89:	90                   	nop
  401a8a:	90                   	nop
  401a8b:	90                   	nop
  401a8c:	90                   	nop
  401a8d:	90                   	nop
  401a8e:	90                   	nop
  401a8f:	90                   	nop
  401a90:	90                   	nop
  401a91:	90                   	nop
  401a92:	90                   	nop
  401a93:	90                   	nop
  401a94:	90                   	nop
  401a95:	90                   	nop
  401a96:	90                   	nop
  401a97:	90                   	nop
  401a98:	90                   	nop
  401a99:	90                   	nop
  401a9a:	90                   	nop
  401a9b:	90                   	nop
  401a9c:	90                   	nop
  401a9d:	90                   	nop
  401a9e:	90                   	nop
  401a9f:	90                   	nop
  401aa0:	90                   	nop
  401aa1:	90                   	nop
  401aa2:	90                   	nop
  401aa3:	90                   	nop
  401aa4:	90                   	nop
  401aa5:	90                   	nop
  401aa6:	90                   	nop
  401aa7:	90                   	nop
  401aa8:	90                   	nop
  401aa9:	90                   	nop
  401aaa:	90                   	nop
  401aab:	90                   	nop
  401aac:	90                   	nop
  401aad:	90                   	nop
  401aae:	90                   	nop
  401aaf:	90                   	nop
  401ab0:	90                   	nop
  401ab1:	90                   	nop
  401ab2:	90                   	nop
  401ab3:	90                   	nop
  401ab4:	90                   	nop
  401ab5:	90                   	nop
  401ab6:	90                   	nop
  401ab7:	90                   	nop
  401ab8:	90                   	nop
  401ab9:	90                   	nop
  401aba:	90                   	nop
  401abb:	90                   	nop
  401abc:	90                   	nop
  401abd:	90                   	nop
  401abe:	90                   	nop
  401abf:	90                   	nop
  401ac0:	90                   	nop
  401ac1:	90                   	nop
  401ac2:	90                   	nop
  401ac3:	90                   	nop
  401ac4:	90                   	nop
  401ac5:	90                   	nop
  401ac6:	90                   	nop
  401ac7:	90                   	nop
  401ac8:	90                   	nop
  401ac9:	90                   	nop
  401aca:	90                   	nop
  401acb:	90                   	nop
  401acc:	90                   	nop
  401acd:	90                   	nop
  401ace:	90                   	nop
  401acf:	90                   	nop
  401ad0:	90                   	nop
  401ad1:	90                   	nop
  401ad2:	90                   	nop
  401ad3:	90                   	nop
  401ad4:	90                   	nop
  401ad5:	90                   	nop
  401ad6:	90                   	nop
  401ad7:	90                   	nop
  401ad8:	90                   	nop
  401ad9:	90                   	nop
  401ada:	90                   	nop
  401adb:	90                   	nop
  401adc:	90                   	nop
  401add:	90                   	nop
  401ade:	90                   	nop
  401adf:	90                   	nop
  401ae0:	90                   	nop
  401ae1:	90                   	nop
  401ae2:	90                   	nop
  401ae3:	90                   	nop
  401ae4:	90                   	nop
  401ae5:	90                   	nop
  401ae6:	90                   	nop
  401ae7:	90                   	nop
  401ae8:	90                   	nop
  401ae9:	90                   	nop
  401aea:	90                   	nop
  401aeb:	90                   	nop
  401aec:	90                   	nop
  401aed:	90                   	nop
  401aee:	90                   	nop
  401aef:	90                   	nop
  401af0:	90                   	nop
  401af1:	90                   	nop
  401af2:	90                   	nop
  401af3:	90                   	nop
  401af4:	90                   	nop
  401af5:	90                   	nop
  401af6:	90                   	nop
  401af7:	90                   	nop
  401af8:	90                   	nop
  401af9:	90                   	nop
  401afa:	90                   	nop
  401afb:	90                   	nop
  401afc:	90                   	nop
  401afd:	90                   	nop
  401afe:	90                   	nop
  401aff:	90                   	nop
  401b00:	90                   	nop
  401b01:	90                   	nop
  401b02:	90                   	nop
  401b03:	90                   	nop
  401b04:	90                   	nop
  401b05:	90                   	nop
  401b06:	90                   	nop
  401b07:	90                   	nop
  401b08:	90                   	nop
  401b09:	90                   	nop
  401b0a:	90                   	nop
  401b0b:	90                   	nop
  401b0c:	90                   	nop
  401b0d:	90                   	nop
  401b0e:	90                   	nop
  401b0f:	90                   	nop
  401b10:	90                   	nop
  401b11:	90                   	nop
  401b12:	90                   	nop
  401b13:	90                   	nop
  401b14:	90                   	nop
  401b15:	90                   	nop
  401b16:	90                   	nop
  401b17:	90                   	nop
  401b18:	90                   	nop
  401b19:	90                   	nop
  401b1a:	90                   	nop
  401b1b:	90                   	nop
  401b1c:	90                   	nop
  401b1d:	90                   	nop
  401b1e:	90                   	nop
  401b1f:	90                   	nop
  401b20:	90                   	nop
  401b21:	90                   	nop
  401b22:	90                   	nop
  401b23:	90                   	nop
  401b24:	90                   	nop
  401b25:	90                   	nop
  401b26:	90                   	nop
  401b27:	90                   	nop
  401b28:	90                   	nop
  401b29:	90                   	nop
  401b2a:	90                   	nop
  401b2b:	90                   	nop
  401b2c:	90                   	nop
  401b2d:	90                   	nop
  401b2e:	90                   	nop
  401b2f:	90                   	nop
  401b30:	90                   	nop
  401b31:	90                   	nop
  401b32:	90                   	nop
  401b33:	90                   	nop
  401b34:	90                   	nop
  401b35:	90                   	nop
  401b36:	90                   	nop
  401b37:	90                   	nop
  401b38:	90                   	nop
  401b39:	90                   	nop
  401b3a:	90                   	nop
  401b3b:	90                   	nop
  401b3c:	90                   	nop
  401b3d:	90                   	nop
  401b3e:	90                   	nop
  401b3f:	90                   	nop
  401b40:	90                   	nop
  401b41:	90                   	nop
  401b42:	90                   	nop
  401b43:	90                   	nop
  401b44:	90                   	nop
  401b45:	90                   	nop
  401b46:	90                   	nop
  401b47:	90                   	nop
  401b48:	90                   	nop
  401b49:	90                   	nop
  401b4a:	90                   	nop
  401b4b:	90                   	nop
  401b4c:	90                   	nop
  401b4d:	90                   	nop
  401b4e:	90                   	nop
  401b4f:	90                   	nop
  401b50:	90                   	nop
  401b51:	90                   	nop
  401b52:	90                   	nop
  401b53:	90                   	nop
  401b54:	90                   	nop
  401b55:	90                   	nop
  401b56:	90                   	nop
  401b57:	90                   	nop
  401b58:	90                   	nop
  401b59:	90                   	nop
  401b5a:	90                   	nop
  401b5b:	90                   	nop
  401b5c:	90                   	nop
  401b5d:	90                   	nop
  401b5e:	90                   	nop
  401b5f:	90                   	nop
  401b60:	90                   	nop
  401b61:	90                   	nop
  401b62:	90                   	nop
  401b63:	90                   	nop
  401b64:	90                   	nop
  401b65:	90                   	nop
  401b66:	90                   	nop
  401b67:	90                   	nop
  401b68:	90                   	nop
  401b69:	90                   	nop
  401b6a:	90                   	nop
  401b6b:	90                   	nop
  401b6c:	90                   	nop
  401b6d:	90                   	nop
  401b6e:	90                   	nop
  401b6f:	90                   	nop
  401b70:	90                   	nop
  401b71:	90                   	nop
  401b72:	90                   	nop
  401b73:	90                   	nop
  401b74:	90                   	nop
  401b75:	90                   	nop
  401b76:	90                   	nop
  401b77:	90                   	nop
  401b78:	90                   	nop
  401b79:	90                   	nop
  401b7a:	90                   	nop
  401b7b:	90                   	nop
  401b7c:	90                   	nop
  401b7d:	90                   	nop
  401b7e:	90                   	nop
  401b7f:	90                   	nop
  401b80:	90                   	nop
  401b81:	90                   	nop
  401b82:	90                   	nop
  401b83:	90                   	nop
  401b84:	90                   	nop
  401b85:	90                   	nop
  401b86:	90                   	nop
  401b87:	90                   	nop
  401b88:	90                   	nop
  401b89:	90                   	nop
  401b8a:	90                   	nop
  401b8b:	90                   	nop
  401b8c:	90                   	nop
  401b8d:	90                   	nop
  401b8e:	90                   	nop
  401b8f:	90                   	nop
  401b90:	90                   	nop
  401b91:	90                   	nop
  401b92:	90                   	nop
  401b93:	90                   	nop
  401b94:	90                   	nop
  401b95:	90                   	nop
  401b96:	90                   	nop
  401b97:	90                   	nop
  401b98:	90                   	nop
  401b99:	90                   	nop
  401b9a:	90                   	nop
  401b9b:	90                   	nop
  401b9c:	90                   	nop
  401b9d:	90                   	nop
  401b9e:	90                   	nop
  401b9f:	90                   	nop
  401ba0:	90                   	nop
  401ba1:	90                   	nop
  401ba2:	90                   	nop
  401ba3:	90                   	nop
  401ba4:	90                   	nop
  401ba5:	90                   	nop
  401ba6:	90                   	nop
  401ba7:	90                   	nop
  401ba8:	90                   	nop
  401ba9:	90                   	nop
  401baa:	90                   	nop
  401bab:	90                   	nop
  401bac:	90                   	nop
  401bad:	90                   	nop
  401bae:	90                   	nop
  401baf:	90                   	nop
  401bb0:	90                   	nop
  401bb1:	90                   	nop
  401bb2:	90                   	nop
  401bb3:	90                   	nop
  401bb4:	90                   	nop
  401bb5:	90                   	nop
  401bb6:	90                   	nop
  401bb7:	90                   	nop
  401bb8:	90                   	nop
  401bb9:	90                   	nop
  401bba:	90                   	nop
  401bbb:	90                   	nop
  401bbc:	90                   	nop
  401bbd:	90                   	nop
  401bbe:	90                   	nop
  401bbf:	90                   	nop
  401bc0:	90                   	nop
  401bc1:	90                   	nop
  401bc2:	90                   	nop
  401bc3:	90                   	nop
  401bc4:	90                   	nop
  401bc5:	90                   	nop
  401bc6:	90                   	nop
  401bc7:	90                   	nop
  401bc8:	90                   	nop
  401bc9:	90                   	nop
  401bca:	90                   	nop
  401bcb:	90                   	nop
  401bcc:	90                   	nop
  401bcd:	90                   	nop
  401bce:	90                   	nop
  401bcf:	90                   	nop
  401bd0:	90                   	nop
  401bd1:	90                   	nop
  401bd2:	90                   	nop
  401bd3:	90                   	nop
  401bd4:	90                   	nop
  401bd5:	90                   	nop
  401bd6:	90                   	nop
  401bd7:	90                   	nop
  401bd8:	90                   	nop
  401bd9:	90                   	nop
  401bda:	90                   	nop
  401bdb:	90                   	nop
  401bdc:	90                   	nop
  401bdd:	90                   	nop
  401bde:	90                   	nop
  401bdf:	90                   	nop
  401be0:	90                   	nop
  401be1:	90                   	nop
  401be2:	90                   	nop
  401be3:	90                   	nop
  401be4:	90                   	nop
  401be5:	90                   	nop
  401be6:	90                   	nop
  401be7:	90                   	nop
  401be8:	90                   	nop
  401be9:	90                   	nop
  401bea:	90                   	nop
  401beb:	90                   	nop
  401bec:	90                   	nop
  401bed:	90                   	nop
  401bee:	90                   	nop
  401bef:	90                   	nop
  401bf0:	90                   	nop
  401bf1:	90                   	nop
  401bf2:	90                   	nop
  401bf3:	90                   	nop
  401bf4:	90                   	nop
  401bf5:	90                   	nop
  401bf6:	90                   	nop
  401bf7:	90                   	nop
  401bf8:	90                   	nop
  401bf9:	90                   	nop
  401bfa:	90                   	nop
  401bfb:	90                   	nop
  401bfc:	90                   	nop
  401bfd:	90                   	nop
  401bfe:	90                   	nop
  401bff:	90                   	nop
  401c00:	90                   	nop
  401c01:	90                   	nop
  401c02:	90                   	nop
  401c03:	90                   	nop
  401c04:	90                   	nop
  401c05:	90                   	nop
  401c06:	90                   	nop
  401c07:	90                   	nop
  401c08:	90                   	nop
  401c09:	90                   	nop
  401c0a:	90                   	nop
  401c0b:	90                   	nop
  401c0c:	90                   	nop
  401c0d:	90                   	nop
  401c0e:	90                   	nop
  401c0f:	90                   	nop
  401c10:	90                   	nop
  401c11:	90                   	nop
  401c12:	90                   	nop
  401c13:	90                   	nop
  401c14:	90                   	nop
  401c15:	90                   	nop
  401c16:	90                   	nop
  401c17:	90                   	nop
  401c18:	90                   	nop
  401c19:	90                   	nop
  401c1a:	90                   	nop
  401c1b:	90                   	nop
  401c1c:	90                   	nop
  401c1d:	90                   	nop
  401c1e:	90                   	nop
  401c1f:	90                   	nop
  401c20:	90                   	nop
  401c21:	90                   	nop
  401c22:	90                   	nop
  401c23:	90                   	nop
  401c24:	90                   	nop
  401c25:	90                   	nop
  401c26:	90                   	nop
  401c27:	90                   	nop
  401c28:	90                   	nop
  401c29:	90                   	nop
  401c2a:	90                   	nop
  401c2b:	90                   	nop
  401c2c:	90                   	nop
  401c2d:	90                   	nop
  401c2e:	90                   	nop
  401c2f:	90                   	nop
  401c30:	90                   	nop
  401c31:	90                   	nop
  401c32:	90                   	nop
  401c33:	90                   	nop
  401c34:	90                   	nop
  401c35:	90                   	nop
  401c36:	90                   	nop
  401c37:	90                   	nop
  401c38:	90                   	nop
  401c39:	90                   	nop
  401c3a:	90                   	nop
  401c3b:	90                   	nop
  401c3c:	90                   	nop
  401c3d:	90                   	nop
  401c3e:	90                   	nop
  401c3f:	90                   	nop
  401c40:	90                   	nop
  401c41:	90                   	nop
  401c42:	90                   	nop
  401c43:	90                   	nop
  401c44:	90                   	nop
  401c45:	90                   	nop
  401c46:	90                   	nop
  401c47:	90                   	nop
  401c48:	90                   	nop
  401c49:	90                   	nop
  401c4a:	90                   	nop
  401c4b:	90                   	nop
  401c4c:	90                   	nop
  401c4d:	90                   	nop
  401c4e:	90                   	nop
  401c4f:	90                   	nop
  401c50:	90                   	nop
  401c51:	90                   	nop
  401c52:	90                   	nop
  401c53:	90                   	nop
  401c54:	90                   	nop
  401c55:	90                   	nop
  401c56:	90                   	nop
  401c57:	90                   	nop
  401c58:	90                   	nop
  401c59:	90                   	nop
  401c5a:	90                   	nop
  401c5b:	90                   	nop
  401c5c:	90                   	nop
  401c5d:	90                   	nop
  401c5e:	90                   	nop
  401c5f:	90                   	nop
  401c60:	90                   	nop
  401c61:	90                   	nop
  401c62:	90                   	nop
  401c63:	90                   	nop
  401c64:	90                   	nop
  401c65:	90                   	nop
  401c66:	90                   	nop
  401c67:	90                   	nop
  401c68:	90                   	nop
  401c69:	90                   	nop
  401c6a:	90                   	nop
  401c6b:	90                   	nop
  401c6c:	90                   	nop
  401c6d:	90                   	nop
  401c6e:	90                   	nop
  401c6f:	90                   	nop
  401c70:	90                   	nop
  401c71:	90                   	nop
  401c72:	90                   	nop
  401c73:	90                   	nop
  401c74:	90                   	nop
  401c75:	90                   	nop
  401c76:	90                   	nop
  401c77:	90                   	nop
  401c78:	90                   	nop
  401c79:	90                   	nop
  401c7a:	90                   	nop
  401c7b:	90                   	nop
  401c7c:	90                   	nop
  401c7d:	90                   	nop
  401c7e:	90                   	nop
  401c7f:	90                   	nop
  401c80:	90                   	nop
  401c81:	90                   	nop
  401c82:	90                   	nop
  401c83:	90                   	nop
  401c84:	90                   	nop
  401c85:	90                   	nop
  401c86:	90                   	nop
  401c87:	90                   	nop
  401c88:	90                   	nop
  401c89:	90                   	nop
  401c8a:	90                   	nop
  401c8b:	90                   	nop
  401c8c:	90                   	nop
  401c8d:	90                   	nop
  401c8e:	90                   	nop
  401c8f:	90                   	nop
  401c90:	90                   	nop
  401c91:	90                   	nop
  401c92:	90                   	nop
  401c93:	90                   	nop
  401c94:	90                   	nop
  401c95:	90                   	nop
  401c96:	90                   	nop
  401c97:	90                   	nop
  401c98:	90                   	nop
  401c99:	90                   	nop
  401c9a:	90                   	nop
  401c9b:	90                   	nop
  401c9c:	90                   	nop
  401c9d:	90                   	nop
  401c9e:	90                   	nop
  401c9f:	90                   	nop
  401ca0:	90                   	nop
  401ca1:	90                   	nop
  401ca2:	90                   	nop
  401ca3:	90                   	nop
  401ca4:	90                   	nop
  401ca5:	90                   	nop
  401ca6:	90                   	nop
  401ca7:	90                   	nop
  401ca8:	90                   	nop
  401ca9:	90                   	nop
  401caa:	90                   	nop
  401cab:	90                   	nop
  401cac:	48 c7 45 d0 00 00 00 	movq   $0x0,-0x30(%rbp)
  401cb3:	00 
  401cb4:	48 c7 45 d8 00 00 00 	movq   $0x0,-0x28(%rbp)
  401cbb:	00 
  401cbc:	48 c7 45 e0 00 00 00 	movq   $0x0,-0x20(%rbp)
  401cc3:	00 
  401cc4:	48 c7 45 e8 00 00 00 	movq   $0x0,-0x18(%rbp)
  401ccb:	00 
  401ccc:	be 00 00 00 00       	mov    $0x0,%esi
  401cd1:	48 8d 05 dd 85 00 00 	lea    0x85dd(%rip),%rax        # 40a2b5 <puzzle_x86_64+0x2b5>
  401cd8:	48 89 c7             	mov    %rax,%rdi
  401cdb:	b8 00 00 00 00       	mov    $0x0,%eax
  401ce0:	e8 eb 07 00 00       	call   4024d0 <open>
  401ce5:	89 45 cc             	mov    %eax,-0x34(%rbp)
  401ce8:	48 8d 4d d0          	lea    -0x30(%rbp),%rcx
  401cec:	8b 45 cc             	mov    -0x34(%rbp),%eax
  401cef:	ba 20 00 00 00       	mov    $0x20,%edx
  401cf4:	48 89 ce             	mov    %rcx,%rsi
  401cf7:	89 c7                	mov    %eax,%edi
  401cf9:	e8 42 10 00 00       	call   402d40 <read>
  401cfe:	8b 45 cc             	mov    -0x34(%rbp),%eax
  401d01:	89 c7                	mov    %eax,%edi
  401d03:	e8 e8 0f 00 00       	call   402cf0 <close>
  401d08:	48 8d 45 d0          	lea    -0x30(%rbp),%rax
  401d0c:	48 89 c7             	mov    %rax,%rdi
  401d0f:	e8 0c 0c 00 00       	call   402920 <puts>
  401d14:	48 8b 05 ad a2 00 00 	mov    0xa2ad(%rip),%rax        # 40bfc8 <stdout>
  401d1b:	48 89 c7             	mov    %rax,%rdi
  401d1e:	e8 3d 0a 00 00       	call   402760 <fflush>
  401d23:	90                   	nop
  401d24:	48 8b 45 f8          	mov    -0x8(%rbp),%rax
  401d28:	64 48 2b 04 25 28 00 	sub    %fs:0x28,%rax
  401d2f:	00 00 
  401d31:	74 05                	je     401d38 <__libc_deinit_1+0xa67>
  401d33:	e8 38 07 00 00       	call   402470 <__stack_chk_fail>
  401d38:	c9                   	leave  
  401d39:	c3                   	ret    

0000000000401d3a <__libc_init_2>:
  401d3a:	f3 0f 1e fa          	endbr64 
  401d3e:	55                   	push   %rbp
  401d3f:	48 89 e5             	mov    %rsp,%rbp
  401d42:	48 83 ec 40          	sub    $0x40,%rsp
  401d46:	64 48 8b 04 25 28 00 	mov    %fs:0x28,%rax
  401d4d:	00 00 
  401d4f:	48 89 45 f8          	mov    %rax,-0x8(%rbp)
  401d53:	31 c0                	xor    %eax,%eax
  401d55:	48 c7 45 d0 00 00 00 	movq   $0x0,-0x30(%rbp)
  401d5c:	00 
  401d5d:	48 c7 45 d8 00 00 00 	movq   $0x0,-0x28(%rbp)
  401d64:	00 
  401d65:	48 c7 45 e0 00 00 00 	movq   $0x0,-0x20(%rbp)
  401d6c:	00 
  401d6d:	48 c7 45 e8 00 00 00 	movq   $0x0,-0x18(%rbp)
  401d74:	00 
  401d75:	be 00 00 00 00       	mov    $0x0,%esi
  401d7a:	48 8d 05 34 85 00 00 	lea    0x8534(%rip),%rax        # 40a2b5 <puzzle_x86_64+0x2b5>
  401d81:	48 89 c7             	mov    %rax,%rdi
  401d84:	b8 00 00 00 00       	mov    $0x0,%eax
  401d89:	e8 42 07 00 00       	call   4024d0 <open>
  401d8e:	89 45 cc             	mov    %eax,-0x34(%rbp)
  401d91:	48 8d 4d d0          	lea    -0x30(%rbp),%rcx
  401d95:	8b 45 cc             	mov    -0x34(%rbp),%eax
  401d98:	ba 20 00 00 00       	mov    $0x20,%edx
  401d9d:	48 89 ce             	mov    %rcx,%rsi
  401da0:	89 c7                	mov    %eax,%edi
  401da2:	e8 99 0f 00 00       	call   402d40 <read>
  401da7:	8b 45 cc             	mov    -0x34(%rbp),%eax
  401daa:	89 c7                	mov    %eax,%edi
  401dac:	e8 3f 0f 00 00       	call   402cf0 <close>
  401db1:	48 8d 45 d0          	lea    -0x30(%rbp),%rax
  401db5:	48 89 c7             	mov    %rax,%rdi
  401db8:	e8 63 0b 00 00       	call   402920 <puts>
  401dbd:	48 8b 05 04 a2 00 00 	mov    0xa204(%rip),%rax        # 40bfc8 <stdout>
  401dc4:	48 89 c7             	mov    %rax,%rdi
  401dc7:	e8 94 09 00 00       	call   402760 <fflush>
  401dcc:	90                   	nop
  401dcd:	48 8b 45 f8          	mov    -0x8(%rbp),%rax
  401dd1:	64 48 2b 04 25 28 00 	sub    %fs:0x28,%rax
  401dd8:	00 00 
  401dda:	74 05                	je     401de1 <__libc_init_2+0xa7>
  401ddc:	e8 8f 06 00 00       	call   402470 <__stack_chk_fail>
  401de1:	c9                   	leave  
  401de2:	c3                   	ret    

0000000000401de3 <__libc_deinit_2>:
  401de3:	f3 0f 1e fa          	endbr64 
  401de7:	55                   	push   %rbp
  401de8:	48 89 e5             	mov    %rsp,%rbp
  401deb:	48 83 ec 40          	sub    $0x40,%rsp
  401def:	64 48 8b 04 25 28 00 	mov    %fs:0x28,%rax
  401df6:	00 00 
  401df8:	48 89 45 f8          	mov    %rax,-0x8(%rbp)
  401dfc:	31 c0                	xor    %eax,%eax
  401dfe:	48 c7 45 d0 00 00 00 	movq   $0x0,-0x30(%rbp)
  401e05:	00 
  401e06:	48 c7 45 d8 00 00 00 	movq   $0x0,-0x28(%rbp)
  401e0d:	00 
  401e0e:	48 c7 45 e0 00 00 00 	movq   $0x0,-0x20(%rbp)
  401e15:	00 
  401e16:	48 c7 45 e8 00 00 00 	movq   $0x0,-0x18(%rbp)
  401e1d:	00 
  401e1e:	be 00 00 00 00       	mov    $0x0,%esi
  401e23:	48 8d 05 8b 84 00 00 	lea    0x848b(%rip),%rax        # 40a2b5 <puzzle_x86_64+0x2b5>
  401e2a:	48 89 c7             	mov    %rax,%rdi
  401e2d:	b8 00 00 00 00       	mov    $0x0,%eax
  401e32:	e8 99 06 00 00       	call   4024d0 <open>
  401e37:	89 45 cc             	mov    %eax,-0x34(%rbp)
  401e3a:	48 8d 4d d0          	lea    -0x30(%rbp),%rcx
  401e3e:	8b 45 cc             	mov    -0x34(%rbp),%eax
  401e41:	ba 20 00 00 00       	mov    $0x20,%edx
  401e46:	48 89 ce             	mov    %rcx,%rsi
  401e49:	89 c7                	mov    %eax,%edi
  401e4b:	e8 f0 0e 00 00       	call   402d40 <read>
  401e50:	8b 45 cc             	mov    -0x34(%rbp),%eax
  401e53:	89 c7                	mov    %eax,%edi
  401e55:	e8 96 0e 00 00       	call   402cf0 <close>
  401e5a:	48 8d 45 d0          	lea    -0x30(%rbp),%rax
  401e5e:	48 89 c7             	mov    %rax,%rdi
  401e61:	e8 ba 0a 00 00       	call   402920 <puts>
  401e66:	48 8b 05 5b a1 00 00 	mov    0xa15b(%rip),%rax        # 40bfc8 <stdout>
  401e6d:	48 89 c7             	mov    %rax,%rdi
  401e70:	e8 eb 08 00 00       	call   402760 <fflush>
  401e75:	90                   	nop
  401e76:	48 8b 45 f8          	mov    -0x8(%rbp),%rax
  401e7a:	64 48 2b 04 25 28 00 	sub    %fs:0x28,%rax
  401e81:	00 00 
  401e83:	74 05                	je     401e8a <__libc_deinit_2+0xa7>
  401e85:	e8 e6 05 00 00       	call   402470 <__stack_chk_fail>
  401e8a:	c9                   	leave  
  401e8b:	c3                   	ret    

0000000000401e8c <init>:
  401e8c:	f3 0f 1e fa          	endbr64 
  401e90:	55                   	push   %rbp
  401e91:	48 89 e5             	mov    %rsp,%rbp
  401e94:	48 83 ec 10          	sub    $0x10,%rsp
  401e98:	bf 02 00 00 00       	mov    $0x2,%edi
  401e9d:	e8 ce 0d 00 00       	call   402c70 <alarm>
  401ea2:	48 8d 05 90 f2 ff ff 	lea    -0xd70(%rip),%rax        # 401139 <clean_exit_on_sig>
  401ea9:	48 89 c6             	mov    %rax,%rsi
  401eac:	bf 0b 00 00 00       	mov    $0xb,%edi
  401eb1:	e8 1a 08 00 00       	call   4026d0 <signal>
  401eb6:	48 8d 05 01 84 00 00 	lea    0x8401(%rip),%rax        # 40a2be <puzzle_x86_64+0x2be>
  401ebd:	48 89 c7             	mov    %rax,%rdi
  401ec0:	e8 5b 0a 00 00       	call   402920 <puts>
  401ec5:	48 8b 05 fc a0 00 00 	mov    0xa0fc(%rip),%rax        # 40bfc8 <stdout>
  401ecc:	48 89 c7             	mov    %rax,%rdi
  401ecf:	e8 8c 08 00 00       	call   402760 <fflush>
  401ed4:	48 8d 05 49 a3 00 00 	lea    0xa349(%rip),%rax        # 40c224 <puzzle_xor_key>
  401edb:	48 89 c6             	mov    %rax,%rsi
  401ede:	48 8d 05 e5 83 00 00 	lea    0x83e5(%rip),%rax        # 40a2ca <puzzle_x86_64+0x2ca>
  401ee5:	48 89 c7             	mov    %rax,%rdi
  401ee8:	b8 00 00 00 00       	mov    $0x0,%eax
  401eed:	e8 fe 0a 00 00       	call   4029f0 <scanf>
  401ef2:	48 8d 05 2f a3 00 00 	lea    0xa32f(%rip),%rax        # 40c228 <puzzle_solve_number>
  401ef9:	48 89 c6             	mov    %rax,%rsi
  401efc:	48 8d 05 cc 83 00 00 	lea    0x83cc(%rip),%rax        # 40a2cf <puzzle_x86_64+0x2cf>
  401f03:	48 89 c7             	mov    %rax,%rdi
  401f06:	b8 00 00 00 00       	mov    $0x0,%eax
  401f0b:	e8 e0 0a 00 00       	call   4029f0 <scanf>
  401f10:	b8 00 00 00 00       	mov    $0x0,%eax
  401f15:	e8 52 00 00 00       	call   401f6c <install_puzzle>
  401f1a:	48 89 45 f8          	mov    %rax,-0x8(%rbp)
  401f1e:	0f b6 05 ff a2 00 00 	movzbl 0xa2ff(%rip),%eax        # 40c224 <puzzle_xor_key>
  401f25:	0f b6 d0             	movzbl %al,%edx
  401f28:	48 8b 45 f8          	mov    -0x8(%rbp),%rax
  401f2c:	89 d6                	mov    %edx,%esi
  401f2e:	48 89 c7             	mov    %rax,%rdi
  401f31:	e8 d5 00 00 00       	call   40200b <decrypt_puzzle>
  401f36:	8b 15 ec a2 00 00    	mov    0xa2ec(%rip),%edx        # 40c228 <puzzle_solve_number>
  401f3c:	48 8b 45 f8          	mov    -0x8(%rbp),%rax
  401f40:	89 d6                	mov    %edx,%esi
  401f42:	48 89 c7             	mov    %rax,%rdi
  401f45:	e8 0f 01 00 00       	call   402059 <execute_puzzle>
  401f4a:	85 c0                	test   %eax,%eax
  401f4c:	75 0a                	jne    401f58 <init+0xcc>
  401f4e:	bf 02 00 00 00       	mov    $0x2,%edi
  401f53:	e8 b8 f0 ff ff       	call   401010 <exit>
  401f58:	b8 00 00 00 00       	mov    $0x0,%eax
  401f5d:	e8 47 01 00 00       	call   4020a9 <vuln>
  401f62:	bf 80 00 00 00       	mov    $0x80,%edi
  401f67:	e8 a4 f0 ff ff       	call   401010 <exit>

0000000000401f6c <install_puzzle>:
  401f6c:	f3 0f 1e fa          	endbr64 
  401f70:	55                   	push   %rbp
  401f71:	48 89 e5             	mov    %rsp,%rbp
  401f74:	48 83 ec 10          	sub    $0x10,%rsp
  401f78:	41 b9 00 00 00 00    	mov    $0x0,%r9d
  401f7e:	41 b8 ff ff ff ff    	mov    $0xffffffff,%r8d
  401f84:	b9 21 00 00 00       	mov    $0x21,%ecx
  401f89:	ba 06 00 00 00       	mov    $0x6,%edx
  401f8e:	be 00 10 00 00       	mov    $0x1000,%esi
  401f93:	bf 00 00 00 00       	mov    $0x0,%edi
  401f98:	e8 53 06 00 00       	call   4025f0 <__mmap>
  401f9d:	48 89 45 f8          	mov    %rax,-0x8(%rbp)
  401fa1:	48 83 7d f8 ff       	cmpq   $0xffffffffffffffff,-0x8(%rbp)
  401fa6:	75 0a                	jne    401fb2 <install_puzzle+0x46>
  401fa8:	bf 02 00 00 00       	mov    $0x2,%edi
  401fad:	e8 5e f0 ff ff       	call   401010 <exit>
  401fb2:	48 8b 45 f8          	mov    -0x8(%rbp),%rax
  401fb6:	48 8d 15 43 80 00 00 	lea    0x8043(%rip),%rdx        # 40a000 <puzzle_x86_64>
  401fbd:	b9 aa 02 00 00       	mov    $0x2aa,%ecx
  401fc2:	48 8b 32             	mov    (%rdx),%rsi
  401fc5:	48 89 30             	mov    %rsi,(%rax)
  401fc8:	89 ce                	mov    %ecx,%esi
  401fca:	48 01 c6             	add    %rax,%rsi
  401fcd:	48 8d 7e 08          	lea    0x8(%rsi),%rdi
  401fd1:	89 ce                	mov    %ecx,%esi
  401fd3:	48 01 d6             	add    %rdx,%rsi
  401fd6:	48 83 c6 08          	add    $0x8,%rsi
  401fda:	48 8b 76 f0          	mov    -0x10(%rsi),%rsi
  401fde:	48 89 77 f0          	mov    %rsi,-0x10(%rdi)
  401fe2:	48 8d 78 08          	lea    0x8(%rax),%rdi
  401fe6:	48 83 e7 f8          	and    $0xfffffffffffffff8,%rdi
  401fea:	48 29 f8             	sub    %rdi,%rax
  401fed:	48 29 c2             	sub    %rax,%rdx
  401ff0:	01 c1                	add    %eax,%ecx
  401ff2:	83 e1 f8             	and    $0xfffffff8,%ecx
  401ff5:	89 c8                	mov    %ecx,%eax
  401ff7:	c1 e8 03             	shr    $0x3,%eax
  401ffa:	89 c0                	mov    %eax,%eax
  401ffc:	48 89 d6             	mov    %rdx,%rsi
  401fff:	48 89 c1             	mov    %rax,%rcx
  402002:	f3 48 a5             	rep movsq %ds:(%rsi),%es:(%rdi)
  402005:	48 8b 45 f8          	mov    -0x8(%rbp),%rax
  402009:	c9                   	leave  
  40200a:	c3                   	ret    

000000000040200b <decrypt_puzzle>:
  40200b:	f3 0f 1e fa          	endbr64 
  40200f:	55                   	push   %rbp
  402010:	48 89 e5             	mov    %rsp,%rbp
  402013:	48 89 7d e8          	mov    %rdi,-0x18(%rbp)
  402017:	89 f0                	mov    %esi,%eax
  402019:	88 45 e4             	mov    %al,-0x1c(%rbp)
  40201c:	c7 45 fc 00 00 00 00 	movl   $0x0,-0x4(%rbp)
  402023:	eb 26                	jmp    40204b <decrypt_puzzle+0x40>
  402025:	8b 45 fc             	mov    -0x4(%rbp),%eax
  402028:	48 63 d0             	movslq %eax,%rdx
  40202b:	48 8b 45 e8          	mov    -0x18(%rbp),%rax
  40202f:	48 01 d0             	add    %rdx,%rax
  402032:	0f b6 00             	movzbl (%rax),%eax
  402035:	8b 55 fc             	mov    -0x4(%rbp),%edx
  402038:	48 63 ca             	movslq %edx,%rcx
  40203b:	48 8b 55 e8          	mov    -0x18(%rbp),%rdx
  40203f:	48 01 ca             	add    %rcx,%rdx
  402042:	32 45 e4             	xor    -0x1c(%rbp),%al
  402045:	88 02                	mov    %al,(%rdx)
  402047:	83 45 fc 01          	addl   $0x1,-0x4(%rbp)
  40204b:	8b 45 fc             	mov    -0x4(%rbp),%eax
  40204e:	3d a9 02 00 00       	cmp    $0x2a9,%eax
  402053:	76 d0                	jbe    402025 <decrypt_puzzle+0x1a>
  402055:	90                   	nop
  402056:	90                   	nop
  402057:	5d                   	pop    %rbp
  402058:	c3                   	ret    

0000000000402059 <execute_puzzle>:
  402059:	f3 0f 1e fa          	endbr64 
  40205d:	55                   	push   %rbp
  40205e:	48 89 e5             	mov    %rsp,%rbp
  402061:	48 83 ec 20          	sub    $0x20,%rsp
  402065:	48 89 7d e8          	mov    %rdi,-0x18(%rbp)
  402069:	89 75 e4             	mov    %esi,-0x1c(%rbp)
  40206c:	48 8b 45 e8          	mov    -0x18(%rbp),%rax
  402070:	48 89 45 f8          	mov    %rax,-0x8(%rbp)
  402074:	8b 45 e4             	mov    -0x1c(%rbp),%eax
  402077:	48 8b 55 f8          	mov    -0x8(%rbp),%rdx
  40207b:	89 c7                	mov    %eax,%edi
  40207d:	ff d2                	call   *%rdx
  40207f:	85 c0                	test   %eax,%eax
  402081:	75 0a                	jne    40208d <execute_puzzle+0x34>
  402083:	bf ff ff ff ff       	mov    $0xffffffff,%edi
  402088:	e8 83 ef ff ff       	call   401010 <exit>
  40208d:	90                   	nop
  40208e:	c9                   	leave  
  40208f:	c3                   	ret    

0000000000402090 <main>:
  402090:	f3 0f 1e fa          	endbr64 
  402094:	55                   	push   %rbp
  402095:	48 89 e5             	mov    %rsp,%rbp
  402098:	b8 00 00 00 00       	mov    $0x0,%eax
  40209d:	e8 ea fd ff ff       	call   401e8c <init>
  4020a2:	b8 00 00 00 00       	mov    $0x0,%eax
  4020a7:	5d                   	pop    %rbp
  4020a8:	c3                   	ret    

00000000004020a9 <vuln>:
  4020a9:	f3 0f 1e fa          	endbr64 
  4020ad:	55                   	push   %rbp
  4020ae:	48 89 e5             	mov    %rsp,%rbp
  4020b1:	48 81 ec 90 00 00 00 	sub    $0x90,%rsp
  4020b8:	c7 45 fc cd 09 ac 38 	movl   $0x38ac09cd,-0x4(%rbp)
  4020bf:	48 8d 85 70 ff ff ff 	lea    -0x90(%rbp),%rax
  4020c6:	ba f4 01 00 00       	mov    $0x1f4,%edx
  4020cb:	48 89 c6             	mov    %rax,%rsi
  4020ce:	bf 00 00 00 00       	mov    $0x0,%edi
  4020d3:	e8 68 0c 00 00       	call   402d40 <read>
  4020d8:	b8 cd 09 ac 38       	mov    $0x38ac09cd,%eax
  4020dd:	39 45 fc             	cmp    %eax,-0x4(%rbp)
  4020e0:	74 0f                	je     4020f1 <vuln+0x48>
  4020e2:	48 c7 45 f0 00 00 00 	movq   $0x0,-0x10(%rbp)
  4020e9:	00 
  4020ea:	48 8b 45 f0          	mov    -0x10(%rbp),%rax
  4020ee:	c6 00 01             	movb   $0x1,(%rax)
  4020f1:	90                   	nop
  4020f2:	c9                   	leave  
  4020f3:	c3                   	ret    
  4020f4:	66 2e 0f 1f 84 00 00 	cs nopw 0x0(%rax,%rax,1)
  4020fb:	00 00 00 
  4020fe:	66 90                	xchg   %ax,%ax

0000000000402100 <dummy>:
  402100:	f3 0f 1e fa          	endbr64 
  402104:	c3                   	ret    
  402105:	66 2e 0f 1f 84 00 00 	cs nopw 0x0(%rax,%rax,1)
  40210c:	00 00 00 
  40210f:	90                   	nop

0000000000402110 <dummy1>:
  402110:	f3 0f 1e fa          	endbr64 
  402114:	c3                   	ret    
  402115:	66 2e 0f 1f 84 00 00 	cs nopw 0x0(%rax,%rax,1)
  40211c:	00 00 00 
  40211f:	90                   	nop

0000000000402120 <__init_libc>:
  402120:	f3 0f 1e fa          	endbr64 
  402124:	48 81 ec 58 01 00 00 	sub    $0x158,%rsp
  40212b:	48 89 fa             	mov    %rdi,%rdx
  40212e:	31 c0                	xor    %eax,%eax
  402130:	b9 26 00 00 00       	mov    $0x26,%ecx
  402135:	4c 8d 44 24 20       	lea    0x20(%rsp),%r8
  40213a:	48 83 3a 00          	cmpq   $0x0,(%rdx)
  40213e:	4c 89 c7             	mov    %r8,%rdi
  402141:	f3 48 ab             	rep stos %rax,%es:(%rdi)
  402144:	48 c7 c0 e8 c6 40 00 	mov    $0x40c6e8,%rax
  40214b:	48 89 10             	mov    %rdx,(%rax)
  40214e:	0f 84 cc 01 00 00    	je     402320 <__init_libc+0x200>
  402154:	31 c0                	xor    %eax,%eax
  402156:	66 2e 0f 1f 84 00 00 	cs nopw 0x0(%rax,%rax,1)
  40215d:	00 00 00 
  402160:	48 89 c1             	mov    %rax,%rcx
  402163:	48 83 c0 01          	add    $0x1,%rax
  402167:	48 83 3c c2 00       	cmpq   $0x0,(%rdx,%rax,8)
  40216c:	75 f2                	jne    402160 <__init_libc+0x40>
  40216e:	48 8d 04 cd 10 00 00 	lea    0x10(,%rcx,8),%rax
  402175:	00 
  402176:	48 01 d0             	add    %rdx,%rax
  402179:	48 8b 10             	mov    (%rax),%rdx
  40217c:	48 89 05 e5 a0 00 00 	mov    %rax,0xa0e5(%rip)        # 40c268 <__libc+0x8>
  402183:	48 83 c0 08          	add    $0x8,%rax
  402187:	48 85 d2             	test   %rdx,%rdx
  40218a:	0f 84 a0 01 00 00    	je     402330 <__init_libc+0x210>
  402190:	48 83 fa 25          	cmp    $0x25,%rdx
  402194:	77 08                	ja     40219e <__init_libc+0x7e>
  402196:	48 8b 08             	mov    (%rax),%rcx
  402199:	48 89 4c d4 20       	mov    %rcx,0x20(%rsp,%rdx,8)
  40219e:	48 8b 50 08          	mov    0x8(%rax),%rdx
  4021a2:	48 83 c0 10          	add    $0x10,%rax
  4021a6:	48 85 d2             	test   %rdx,%rdx
  4021a9:	75 e5                	jne    402190 <__init_libc+0x70>
  4021ab:	48 8b 8c 24 a0 00 00 	mov    0xa0(%rsp),%rcx
  4021b2:	00 
  4021b3:	48 8b 84 24 20 01 00 	mov    0x120(%rsp),%rax
  4021ba:	00 
  4021bb:	48 8b 54 24 50       	mov    0x50(%rsp),%rdx
  4021c0:	48 89 0d 89 a0 00 00 	mov    %rcx,0xa089(%rip)        # 40c250 <__hwcap>
  4021c7:	48 85 c0             	test   %rax,%rax
  4021ca:	74 07                	je     4021d3 <__init_libc+0xb3>
  4021cc:	48 89 05 65 a0 00 00 	mov    %rax,0xa065(%rip)        # 40c238 <__sysinfo>
  4021d3:	48 89 15 b6 a0 00 00 	mov    %rdx,0xa0b6(%rip)        # 40c290 <__libc+0x30>
  4021da:	48 85 f6             	test   %rsi,%rsi
  4021dd:	0f 84 0d 01 00 00    	je     4022f0 <__init_libc+0x1d0>
  4021e3:	48 c7 c0 40 c2 40 00 	mov    $0x40c240,%rax
  4021ea:	48 c7 c1 48 c2 40 00 	mov    $0x40c248,%rcx
  4021f1:	48 89 30             	mov    %rsi,(%rax)
  4021f4:	48 89 31             	mov    %rsi,(%rcx)
  4021f7:	0f b6 16             	movzbl (%rsi),%edx
  4021fa:	84 d2                	test   %dl,%dl
  4021fc:	74 1d                	je     40221b <__init_libc+0xfb>
  4021fe:	48 8d 46 01          	lea    0x1(%rsi),%rax
  402202:	66 0f 1f 44 00 00    	nopw   0x0(%rax,%rax,1)
  402208:	80 fa 2f             	cmp    $0x2f,%dl
  40220b:	75 03                	jne    402210 <__init_libc+0xf0>
  40220d:	48 89 01             	mov    %rax,(%rcx)
  402210:	0f b6 10             	movzbl (%rax),%edx
  402213:	48 83 c0 01          	add    $0x1,%rax
  402217:	84 d2                	test   %dl,%dl
  402219:	75 ed                	jne    402208 <__init_libc+0xe8>
  40221b:	4c 89 c7             	mov    %r8,%rdi
  40221e:	e8 4d 0c 00 00       	call   402e70 <__init_tls>
  402223:	48 8b bc 24 e8 00 00 	mov    0xe8(%rsp),%rdi
  40222a:	00 
  40222b:	e8 e0 01 00 00       	call   402410 <__init_ssp>
  402230:	48 8b 84 24 80 00 00 	mov    0x80(%rsp),%rax
  402237:	00 
  402238:	48 39 44 24 78       	cmp    %rax,0x78(%rsp)
  40223d:	0f 84 7d 00 00 00    	je     4022c0 <__init_libc+0x1a0>
  402243:	66 0f ef c0          	pxor   %xmm0,%xmm0
  402247:	48 89 e7             	mov    %rsp,%rdi
  40224a:	b8 07 00 00 00       	mov    $0x7,%eax
  40224f:	31 d2                	xor    %edx,%edx
  402251:	48 c7 44 24 10 00 00 	movq   $0x0,0x10(%rsp)
  402258:	00 00 
  40225a:	be 03 00 00 00       	mov    $0x3,%esi
  40225f:	0f 29 04 24          	movaps %xmm0,(%rsp)
  402263:	c7 44 24 10 02 00 00 	movl   $0x2,0x10(%rsp)
  40226a:	00 
  40226b:	c7 44 24 08 01 00 00 	movl   $0x1,0x8(%rsp)
  402272:	00 
  402273:	0f 05                	syscall 
  402275:	85 c0                	test   %eax,%eax
  402277:	79 01                	jns    40227a <__init_libc+0x15a>
  402279:	f4                   	hlt    
  40227a:	48 89 fa             	mov    %rdi,%rdx
  40227d:	4c 8d 44 24 18       	lea    0x18(%rsp),%r8
  402282:	41 b9 02 00 00 00    	mov    $0x2,%r9d
  402288:	be 02 80 00 00       	mov    $0x8002,%esi
  40228d:	48 8d 3d 44 80 00 00 	lea    0x8044(%rip),%rdi        # 40a2d8 <cookie+0x4>
  402294:	f6 42 06 20          	testb  $0x20,0x6(%rdx)
  402298:	74 0b                	je     4022a5 <__init_libc+0x185>
  40229a:	4c 89 c8             	mov    %r9,%rax
  40229d:	0f 05                	syscall 
  40229f:	48 85 c0             	test   %rax,%rax
  4022a2:	79 01                	jns    4022a5 <__init_libc+0x185>
  4022a4:	f4                   	hlt    
  4022a5:	48 83 c2 08          	add    $0x8,%rdx
  4022a9:	4c 39 c2             	cmp    %r8,%rdx
  4022ac:	75 e6                	jne    402294 <__init_libc+0x174>
  4022ae:	c6 05 ad 9f 00 00 01 	movb   $0x1,0x9fad(%rip)        # 40c262 <__libc+0x2>
  4022b5:	48 81 c4 58 01 00 00 	add    $0x158,%rsp
  4022bc:	c3                   	ret    
  4022bd:	0f 1f 00             	nopl   (%rax)
  4022c0:	48 8b 84 24 90 00 00 	mov    0x90(%rsp),%rax
  4022c7:	00 
  4022c8:	48 39 84 24 88 00 00 	cmp    %rax,0x88(%rsp)
  4022cf:	00 
  4022d0:	0f 85 6d ff ff ff    	jne    402243 <__init_libc+0x123>
  4022d6:	48 83 bc 24 d8 00 00 	cmpq   $0x0,0xd8(%rsp)
  4022dd:	00 00 
  4022df:	0f 85 5e ff ff ff    	jne    402243 <__init_libc+0x123>
  4022e5:	eb ce                	jmp    4022b5 <__init_libc+0x195>
  4022e7:	66 0f 1f 84 00 00 00 	nopw   0x0(%rax,%rax,1)
  4022ee:	00 00 
  4022f0:	48 8b 84 24 18 01 00 	mov    0x118(%rsp),%rax
  4022f7:	00 
  4022f8:	48 85 c0             	test   %rax,%rax
  4022fb:	75 43                	jne    402340 <__init_libc+0x220>
  4022fd:	48 c7 c2 40 c2 40 00 	mov    $0x40c240,%rdx
  402304:	48 8d 05 d6 7f 00 00 	lea    0x7fd6(%rip),%rax        # 40a2e1 <cookie+0xd>
  40230b:	48 89 02             	mov    %rax,(%rdx)
  40230e:	48 c7 c2 48 c2 40 00 	mov    $0x40c248,%rdx
  402315:	48 89 02             	mov    %rax,(%rdx)
  402318:	e9 fe fe ff ff       	jmp    40221b <__init_libc+0xfb>
  40231d:	0f 1f 00             	nopl   (%rax)
  402320:	b8 08 00 00 00       	mov    $0x8,%eax
  402325:	e9 4c fe ff ff       	jmp    402176 <__init_libc+0x56>
  40232a:	66 0f 1f 44 00 00    	nopw   0x0(%rax,%rax,1)
  402330:	48 c7 05 15 9f 00 00 	movq   $0x0,0x9f15(%rip)        # 40c250 <__hwcap>
  402337:	00 00 00 00 
  40233b:	e9 93 fe ff ff       	jmp    4021d3 <__init_libc+0xb3>
  402340:	48 89 c6             	mov    %rax,%rsi
  402343:	e9 9b fe ff ff       	jmp    4021e3 <__init_libc+0xc3>
  402348:	0f 1f 84 00 00 00 00 	nopl   0x0(%rax,%rax,1)
  40234f:	00 

0000000000402350 <__libc_start_init>:
  402350:	f3 0f 1e fa          	endbr64 
  402354:	55                   	push   %rbp
  402355:	53                   	push   %rbx
  402356:	48 83 ec 08          	sub    $0x8,%rsp
  40235a:	e8 a1 ec ff ff       	call   401000 <_init>
  40235f:	48 c7 c3 b0 bf 40 00 	mov    $0x40bfb0,%rbx
  402366:	48 c7 c5 b8 bf 40 00 	mov    $0x40bfb8,%rbp
  40236d:	48 39 eb             	cmp    %rbp,%rbx
  402370:	73 11                	jae    402383 <__libc_start_init+0x33>
  402372:	66 0f 1f 44 00 00    	nopw   0x0(%rax,%rax,1)
  402378:	ff 13                	call   *(%rbx)
  40237a:	48 83 c3 08          	add    $0x8,%rbx
  40237e:	48 39 eb             	cmp    %rbp,%rbx
  402381:	72 f5                	jb     402378 <__libc_start_init+0x28>
  402383:	48 83 c4 08          	add    $0x8,%rsp
  402387:	5b                   	pop    %rbx
  402388:	5d                   	pop    %rbp
  402389:	c3                   	ret    
  40238a:	66 0f 1f 44 00 00    	nopw   0x0(%rax,%rax,1)

0000000000402390 <libc_start_main_stage2>:
  402390:	f3 0f 1e fa          	endbr64 
  402394:	41 55                	push   %r13
  402396:	48 63 c6             	movslq %esi,%rax
  402399:	41 54                	push   %r12
  40239b:	4c 8d 6c c2 08       	lea    0x8(%rdx,%rax,8),%r13
  4023a0:	49 89 d4             	mov    %rdx,%r12
  4023a3:	55                   	push   %rbp
  4023a4:	48 89 c5             	mov    %rax,%rbp
  4023a7:	53                   	push   %rbx
  4023a8:	48 89 fb             	mov    %rdi,%rbx
  4023ab:	48 83 ec 08          	sub    $0x8,%rsp
  4023af:	e8 9c ff ff ff       	call   402350 <__libc_start_init>
  4023b4:	89 ef                	mov    %ebp,%edi
  4023b6:	4c 89 ea             	mov    %r13,%rdx
  4023b9:	4c 89 e6             	mov    %r12,%rsi
  4023bc:	ff d3                	call   *%rbx
  4023be:	89 c7                	mov    %eax,%edi
  4023c0:	e8 4b ec ff ff       	call   401010 <exit>
  4023c5:	66 2e 0f 1f 84 00 00 	cs nopw 0x0(%rax,%rax,1)
  4023cc:	00 00 00 
  4023cf:	90                   	nop

00000000004023d0 <__libc_start_main>:
  4023d0:	f3 0f 1e fa          	endbr64 
  4023d4:	41 55                	push   %r13
  4023d6:	48 63 c6             	movslq %esi,%rax
  4023d9:	49 89 fd             	mov    %rdi,%r13
  4023dc:	41 54                	push   %r12
  4023de:	48 8d 7c c2 08       	lea    0x8(%rdx,%rax,8),%rdi
  4023e3:	49 89 d4             	mov    %rdx,%r12
  4023e6:	55                   	push   %rbp
  4023e7:	48 8b 32             	mov    (%rdx),%rsi
  4023ea:	48 89 c5             	mov    %rax,%rbp
  4023ed:	e8 2e fd ff ff       	call   402120 <__init_libc>
  4023f2:	4c 89 e2             	mov    %r12,%rdx
  4023f5:	89 ee                	mov    %ebp,%esi
  4023f7:	4c 89 ef             	mov    %r13,%rdi
  4023fa:	48 8d 05 8f ff ff ff 	lea    -0x71(%rip),%rax        # 402390 <libc_start_main_stage2>
  402401:	5d                   	pop    %rbp
  402402:	41 5c                	pop    %r12
  402404:	41 5d                	pop    %r13
  402406:	ff e0                	jmp    *%rax
  402408:	0f 1f 84 00 00 00 00 	nopl   0x0(%rax,%rax,1)
  40240f:	00 

0000000000402410 <__init_ssp>:
  402410:	f3 0f 1e fa          	endbr64 
  402414:	53                   	push   %rbx
  402415:	48 85 ff             	test   %rdi,%rdi
  402418:	74 36                	je     402450 <__init_ssp+0x40>
  40241a:	48 c7 c3 30 c2 40 00 	mov    $0x40c230,%rbx
  402421:	48 89 fe             	mov    %rdi,%rsi
  402424:	ba 08 00 00 00       	mov    $0x8,%edx
  402429:	48 89 df             	mov    %rbx,%rdi
  40242c:	e8 95 06 00 00       	call   402ac6 <memcpy>
  402431:	c6 43 01 00          	movb   $0x0,0x1(%rbx)
  402435:	48 8b 13             	mov    (%rbx),%rdx
  402438:	64 48 8b 04 25 00 00 	mov    %fs:0x0,%rax
  40243f:	00 00 
  402441:	48 89 50 28          	mov    %rdx,0x28(%rax)
  402445:	5b                   	pop    %rbx
  402446:	c3                   	ret    
  402447:	66 0f 1f 84 00 00 00 	nopw   0x0(%rax,%rax,1)
  40244e:	00 00 
  402450:	48 c7 c3 30 c2 40 00 	mov    $0x40c230,%rbx
  402457:	48 69 c3 6d 4e c6 41 	imul   $0x41c64e6d,%rbx,%rax
  40245e:	48 89 03             	mov    %rax,(%rbx)
  402461:	eb ce                	jmp    402431 <__init_ssp+0x21>
  402463:	66 2e 0f 1f 84 00 00 	cs nopw 0x0(%rax,%rax,1)
  40246a:	00 00 00 
  40246d:	0f 1f 00             	nopl   (%rax)

0000000000402470 <__stack_chk_fail>:
  402470:	f3 0f 1e fa          	endbr64 
  402474:	f4                   	hlt    
  402475:	c3                   	ret    
  402476:	66 2e 0f 1f 84 00 00 	cs nopw 0x0(%rax,%rax,1)
  40247d:	00 00 00 

0000000000402480 <__funcs_on_exit>:
  402480:	f3 0f 1e fa          	endbr64 
  402484:	c3                   	ret    
  402485:	66 2e 0f 1f 84 00 00 	cs nopw 0x0(%rax,%rax,1)
  40248c:	00 00 00 
  40248f:	90                   	nop

0000000000402490 <__libc_exit_fini>:
  402490:	f3 0f 1e fa          	endbr64 
  402494:	55                   	push   %rbp
  402495:	53                   	push   %rbx
  402496:	48 83 ec 08          	sub    $0x8,%rsp
  40249a:	48 c7 c3 c0 bf 40 00 	mov    $0x40bfc0,%rbx
  4024a1:	48 c7 c5 b8 bf 40 00 	mov    $0x40bfb8,%rbp
  4024a8:	48 39 eb             	cmp    %rbp,%rbx
  4024ab:	76 10                	jbe    4024bd <__libc_exit_fini+0x2d>
  4024ad:	0f 1f 00             	nopl   (%rax)
  4024b0:	48 83 eb 08          	sub    $0x8,%rbx
  4024b4:	31 c0                	xor    %eax,%eax
  4024b6:	ff 13                	call   *(%rbx)
  4024b8:	48 39 eb             	cmp    %rbp,%rbx
  4024bb:	77 f3                	ja     4024b0 <__libc_exit_fini+0x20>
  4024bd:	48 83 c4 08          	add    $0x8,%rsp
  4024c1:	31 c0                	xor    %eax,%eax
  4024c3:	5b                   	pop    %rbx
  4024c4:	5d                   	pop    %rbp
  4024c5:	e9 2a 6f 00 00       	jmp    4093f4 <_fini>
  4024ca:	66 0f 1f 44 00 00    	nopw   0x0(%rax,%rax,1)

00000000004024d0 <open>:
  4024d0:	f3 0f 1e fa          	endbr64 
  4024d4:	53                   	push   %rbx
  4024d5:	89 f3                	mov    %esi,%ebx
  4024d7:	49 89 fa             	mov    %rdi,%r10
  4024da:	48 83 ec 50          	sub    $0x50,%rsp
  4024de:	48 89 54 24 30       	mov    %rdx,0x30(%rsp)
  4024e3:	64 48 8b 04 25 28 00 	mov    %fs:0x28,%rax
  4024ea:	00 00 
  4024ec:	48 89 44 24 18       	mov    %rax,0x18(%rsp)
  4024f1:	31 c0                	xor    %eax,%eax
  4024f3:	83 e6 40             	and    $0x40,%esi
  4024f6:	75 60                	jne    402558 <open+0x88>
  4024f8:	89 d8                	mov    %ebx,%eax
  4024fa:	31 c9                	xor    %ecx,%ecx
  4024fc:	25 00 00 41 00       	and    $0x410000,%eax
  402501:	3d 00 00 41 00       	cmp    $0x410000,%eax
  402506:	74 50                	je     402558 <open+0x88>
  402508:	48 83 ec 08          	sub    $0x8,%rsp
  40250c:	89 da                	mov    %ebx,%edx
  40250e:	bf 02 00 00 00       	mov    $0x2,%edi
  402513:	45 31 c9             	xor    %r9d,%r9d
  402516:	6a 00                	push   $0x0
  402518:	80 ce 80             	or     $0x80,%dh
  40251b:	45 31 c0             	xor    %r8d,%r8d
  40251e:	4c 89 d6             	mov    %r10,%rsi
  402521:	48 63 d2             	movslq %edx,%rdx
  402524:	e8 37 07 00 00       	call   402c60 <__syscall_cp>
  402529:	5a                   	pop    %rdx
  40252a:	59                   	pop    %rcx
  40252b:	48 63 f8             	movslq %eax,%rdi
  40252e:	85 c0                	test   %eax,%eax
  402530:	78 08                	js     40253a <open+0x6a>
  402532:	81 e3 00 00 08 00    	and    $0x80000,%ebx
  402538:	75 46                	jne    402580 <open+0xb0>
  40253a:	e8 61 00 00 00       	call   4025a0 <__syscall_ret>
  40253f:	48 8b 54 24 18       	mov    0x18(%rsp),%rdx
  402544:	64 48 2b 14 25 28 00 	sub    %fs:0x28,%rdx
  40254b:	00 00 
  40254d:	75 44                	jne    402593 <open+0xc3>
  40254f:	48 83 c4 50          	add    $0x50,%rsp
  402553:	5b                   	pop    %rbx
  402554:	c3                   	ret    
  402555:	0f 1f 00             	nopl   (%rax)
  402558:	48 8d 44 24 60       	lea    0x60(%rsp),%rax
  40255d:	c7 04 24 10 00 00 00 	movl   $0x10,(%rsp)
  402564:	8b 4c 24 30          	mov    0x30(%rsp),%ecx
  402568:	48 89 44 24 08       	mov    %rax,0x8(%rsp)
  40256d:	48 8d 44 24 20       	lea    0x20(%rsp),%rax
  402572:	48 89 44 24 10       	mov    %rax,0x10(%rsp)
  402577:	eb 8f                	jmp    402508 <open+0x38>
  402579:	0f 1f 80 00 00 00 00 	nopl   0x0(%rax)
  402580:	b8 48 00 00 00       	mov    $0x48,%eax
  402585:	be 02 00 00 00       	mov    $0x2,%esi
  40258a:	ba 01 00 00 00       	mov    $0x1,%edx
  40258f:	0f 05                	syscall 
  402591:	eb a7                	jmp    40253a <open+0x6a>
  402593:	e8 d8 fe ff ff       	call   402470 <__stack_chk_fail>
  402598:	0f 1f 84 00 00 00 00 	nopl   0x0(%rax,%rax,1)
  40259f:	00 

00000000004025a0 <__syscall_ret>:
  4025a0:	f3 0f 1e fa          	endbr64 
  4025a4:	48 81 ff 00 f0 ff ff 	cmp    $0xfffffffffffff000,%rdi
  4025ab:	77 0b                	ja     4025b8 <__syscall_ret+0x18>
  4025ad:	48 89 f8             	mov    %rdi,%rax
  4025b0:	c3                   	ret    
  4025b1:	0f 1f 80 00 00 00 00 	nopl   0x0(%rax)
  4025b8:	48 83 ec 18          	sub    $0x18,%rsp
  4025bc:	48 89 7c 24 08       	mov    %rdi,0x8(%rsp)
  4025c1:	e8 ca 0a 00 00       	call   403090 <__errno_location>
  4025c6:	48 8b 7c 24 08       	mov    0x8(%rsp),%rdi
  4025cb:	f7 df                	neg    %edi
  4025cd:	89 38                	mov    %edi,(%rax)
  4025cf:	48 c7 c0 ff ff ff ff 	mov    $0xffffffffffffffff,%rax
  4025d6:	48 83 c4 18          	add    $0x18,%rsp
  4025da:	c3                   	ret    
  4025db:	0f 1f 44 00 00       	nopl   0x0(%rax,%rax,1)

00000000004025e0 <__vm_wait>:
  4025e0:	f3 0f 1e fa          	endbr64 
  4025e4:	c3                   	ret    
  4025e5:	66 2e 0f 1f 84 00 00 	cs nopw 0x0(%rax,%rax,1)
  4025ec:	00 00 00 
  4025ef:	90                   	nop

00000000004025f0 <__mmap>:
  4025f0:	f3 0f 1e fa          	endbr64 
  4025f4:	41 54                	push   %r12
  4025f6:	53                   	push   %rbx
  4025f7:	48 83 ec 28          	sub    $0x28,%rsp
  4025fb:	41 f7 c1 ff 0f 00 00 	test   $0xfff,%r9d
  402602:	75 7c                	jne    402680 <__mmap+0x90>
  402604:	48 b8 fe ff ff ff ff 	movabs $0x7ffffffffffffffe,%rax
  40260b:	ff ff 7f 
  40260e:	48 39 c6             	cmp    %rax,%rsi
  402611:	77 4d                	ja     402660 <__mmap+0x70>
  402613:	49 89 fc             	mov    %rdi,%r12
  402616:	89 cb                	mov    %ecx,%ebx
  402618:	f6 c1 10             	test   $0x10,%cl
  40261b:	0f 85 7f 00 00 00    	jne    4026a0 <__mmap+0xb0>
  402621:	48 63 d2             	movslq %edx,%rdx
  402624:	4c 63 d3             	movslq %ebx,%r10
  402627:	4d 63 c0             	movslq %r8d,%r8
  40262a:	b8 09 00 00 00       	mov    $0x9,%eax
  40262f:	4c 89 e7             	mov    %r12,%rdi
  402632:	0f 05                	syscall 
  402634:	48 89 c7             	mov    %rax,%rdi
  402637:	48 83 f8 ff          	cmp    $0xffffffffffffffff,%rax
  40263b:	75 16                	jne    402653 <__mmap+0x63>
  40263d:	4d 85 e4             	test   %r12,%r12
  402640:	75 11                	jne    402653 <__mmap+0x63>
  402642:	83 e3 30             	and    $0x30,%ebx
  402645:	48 c7 c0 f4 ff ff ff 	mov    $0xfffffffffffffff4,%rax
  40264c:	83 fb 20             	cmp    $0x20,%ebx
  40264f:	48 0f 44 f8          	cmove  %rax,%rdi
  402653:	48 83 c4 28          	add    $0x28,%rsp
  402657:	5b                   	pop    %rbx
  402658:	41 5c                	pop    %r12
  40265a:	e9 41 ff ff ff       	jmp    4025a0 <__syscall_ret>
  40265f:	90                   	nop
  402660:	e8 2b 0a 00 00       	call   403090 <__errno_location>
  402665:	c7 00 0c 00 00 00    	movl   $0xc,(%rax)
  40266b:	48 83 c4 28          	add    $0x28,%rsp
  40266f:	48 c7 c0 ff ff ff ff 	mov    $0xffffffffffffffff,%rax
  402676:	5b                   	pop    %rbx
  402677:	41 5c                	pop    %r12
  402679:	c3                   	ret    
  40267a:	66 0f 1f 44 00 00    	nopw   0x0(%rax,%rax,1)
  402680:	e8 0b 0a 00 00       	call   403090 <__errno_location>
  402685:	c7 00 16 00 00 00    	movl   $0x16,(%rax)
  40268b:	48 83 c4 28          	add    $0x28,%rsp
  40268f:	48 c7 c0 ff ff ff ff 	mov    $0xffffffffffffffff,%rax
  402696:	5b                   	pop    %rbx
  402697:	41 5c                	pop    %r12
  402699:	c3                   	ret    
  40269a:	66 0f 1f 44 00 00    	nopw   0x0(%rax,%rax,1)
  4026a0:	4c 89 4c 24 18       	mov    %r9,0x18(%rsp)
  4026a5:	44 89 44 24 14       	mov    %r8d,0x14(%rsp)
  4026aa:	89 54 24 10          	mov    %edx,0x10(%rsp)
  4026ae:	48 89 74 24 08       	mov    %rsi,0x8(%rsp)
  4026b3:	e8 28 ff ff ff       	call   4025e0 <__vm_wait>
  4026b8:	4c 8b 4c 24 18       	mov    0x18(%rsp),%r9
  4026bd:	44 8b 44 24 14       	mov    0x14(%rsp),%r8d
  4026c2:	8b 54 24 10          	mov    0x10(%rsp),%edx
  4026c6:	48 8b 74 24 08       	mov    0x8(%rsp),%rsi
  4026cb:	e9 51 ff ff ff       	jmp    402621 <__mmap+0x31>

00000000004026d0 <signal>:
  4026d0:	f3 0f 1e fa          	endbr64 
  4026d4:	48 81 ec 48 01 00 00 	sub    $0x148,%rsp
  4026db:	41 89 f8             	mov    %edi,%r8d
  4026de:	b9 12 00 00 00       	mov    $0x12,%ecx
  4026e3:	64 48 8b 04 25 28 00 	mov    %fs:0x28,%rax
  4026ea:	00 00 
  4026ec:	48 89 84 24 38 01 00 	mov    %rax,0x138(%rsp)
  4026f3:	00 
  4026f4:	31 c0                	xor    %eax,%eax
  4026f6:	48 8d bc 24 a8 00 00 	lea    0xa8(%rsp),%rdi
  4026fd:	00 
  4026fe:	48 89 e2             	mov    %rsp,%rdx
  402701:	48 89 b4 24 a0 00 00 	mov    %rsi,0xa0(%rsp)
  402708:	00 
  402709:	48 8d b4 24 a0 00 00 	lea    0xa0(%rsp),%rsi
  402710:	00 
  402711:	f3 48 ab             	rep stos %rax,%es:(%rdi)
  402714:	44 89 c7             	mov    %r8d,%edi
  402717:	c7 84 24 28 01 00 00 	movl   $0x10000000,0x128(%rsp)
  40271e:	00 00 00 10 
  402722:	e8 99 0b 00 00       	call   4032c0 <__sigaction>
  402727:	85 c0                	test   %eax,%eax
  402729:	48 c7 c0 ff ff ff ff 	mov    $0xffffffffffffffff,%rax
  402730:	48 0f 49 04 24       	cmovns (%rsp),%rax
  402735:	48 8b 94 24 38 01 00 	mov    0x138(%rsp),%rdx
  40273c:	00 
  40273d:	64 48 2b 14 25 28 00 	sub    %fs:0x28,%rdx
  402744:	00 00 
  402746:	75 08                	jne    402750 <signal+0x80>
  402748:	48 81 c4 48 01 00 00 	add    $0x148,%rsp
  40274f:	c3                   	ret    
  402750:	e8 1b fd ff ff       	call   402470 <__stack_chk_fail>
  402755:	66 2e 0f 1f 84 00 00 	cs nopw 0x0(%rax,%rax,1)
  40275c:	00 00 00 
  40275f:	90                   	nop

0000000000402760 <fflush>:
  402760:	f3 0f 1e fa          	endbr64 
  402764:	41 54                	push   %r12
  402766:	55                   	push   %rbp
  402767:	53                   	push   %rbx
  402768:	48 85 ff             	test   %rdi,%rdi
  40276b:	0f 84 a7 00 00 00    	je     402818 <fflush+0xb8>
  402771:	8b 87 8c 00 00 00    	mov    0x8c(%rdi),%eax
  402777:	48 89 fd             	mov    %rdi,%rbp
  40277a:	45 31 e4             	xor    %r12d,%r12d
  40277d:	85 c0                	test   %eax,%eax
  40277f:	79 6f                	jns    4027f0 <fflush+0x90>
  402781:	48 8b 45 38          	mov    0x38(%rbp),%rax
  402785:	48 39 45 28          	cmp    %rax,0x28(%rbp)
  402789:	74 15                	je     4027a0 <fflush+0x40>
  40278b:	31 d2                	xor    %edx,%edx
  40278d:	31 f6                	xor    %esi,%esi
  40278f:	48 89 ef             	mov    %rbp,%rdi
  402792:	ff 55 48             	call   *0x48(%rbp)
  402795:	48 83 7d 28 00       	cmpq   $0x0,0x28(%rbp)
  40279a:	0f 84 29 01 00 00    	je     4028c9 <fflush+0x169>
  4027a0:	48 8b 75 08          	mov    0x8(%rbp),%rsi
  4027a4:	48 8b 45 10          	mov    0x10(%rbp),%rax
  4027a8:	48 39 c6             	cmp    %rax,%rsi
  4027ab:	74 0e                	je     4027bb <fflush+0x5b>
  4027ad:	48 29 c6             	sub    %rax,%rsi
  4027b0:	ba 01 00 00 00       	mov    $0x1,%edx
  4027b5:	48 89 ef             	mov    %rbp,%rdi
  4027b8:	ff 55 50             	call   *0x50(%rbp)
  4027bb:	48 c7 45 20 00 00 00 	movq   $0x0,0x20(%rbp)
  4027c2:	00 
  4027c3:	48 c7 45 38 00 00 00 	movq   $0x0,0x38(%rbp)
  4027ca:	00 
  4027cb:	48 c7 45 28 00 00 00 	movq   $0x0,0x28(%rbp)
  4027d2:	00 
  4027d3:	48 c7 45 10 00 00 00 	movq   $0x0,0x10(%rbp)
  4027da:	00 
  4027db:	48 c7 45 08 00 00 00 	movq   $0x0,0x8(%rbp)
  4027e2:	00 
  4027e3:	45 85 e4             	test   %r12d,%r12d
  4027e6:	75 18                	jne    402800 <fflush+0xa0>
  4027e8:	44 89 e0             	mov    %r12d,%eax
  4027eb:	5b                   	pop    %rbx
  4027ec:	5d                   	pop    %rbp
  4027ed:	41 5c                	pop    %r12
  4027ef:	c3                   	ret    
  4027f0:	e8 cb 0b 00 00       	call   4033c0 <__lockfile>
  4027f5:	41 89 c4             	mov    %eax,%r12d
  4027f8:	eb 87                	jmp    402781 <fflush+0x21>
  4027fa:	66 0f 1f 44 00 00    	nopw   0x0(%rax,%rax,1)
  402800:	48 89 ef             	mov    %rbp,%rdi
  402803:	45 31 e4             	xor    %r12d,%r12d
  402806:	e8 95 0c 00 00       	call   4034a0 <__unlockfile>
  40280b:	44 89 e0             	mov    %r12d,%eax
  40280e:	5b                   	pop    %rbx
  40280f:	5d                   	pop    %rbp
  402810:	41 5c                	pop    %r12
  402812:	c3                   	ret    
  402813:	0f 1f 44 00 00       	nopl   0x0(%rax,%rax,1)
  402818:	48 8b 05 f1 97 00 00 	mov    0x97f1(%rip),%rax        # 40c010 <__stdout_used>
  40281f:	45 31 e4             	xor    %r12d,%r12d
  402822:	48 85 c0             	test   %rax,%rax
  402825:	74 0f                	je     402836 <fflush+0xd6>
  402827:	48 8b 3d e2 97 00 00 	mov    0x97e2(%rip),%rdi        # 40c010 <__stdout_used>
  40282e:	e8 2d ff ff ff       	call   402760 <fflush>
  402833:	41 89 c4             	mov    %eax,%r12d
  402836:	48 8b 05 8b 9a 00 00 	mov    0x9a8b(%rip),%rax        # 40c2c8 <__stderr_used>
  40283d:	48 85 c0             	test   %rax,%rax
  402840:	74 0f                	je     402851 <fflush+0xf1>
  402842:	48 8b 3d 7f 9a 00 00 	mov    0x9a7f(%rip),%rdi        # 40c2c8 <__stderr_used>
  402849:	e8 12 ff ff ff       	call   402760 <fflush>
  40284e:	41 09 c4             	or     %eax,%r12d
  402851:	e8 9a 00 00 00       	call   4028f0 <__ofl_lock>
  402856:	48 8b 28             	mov    (%rax),%rbp
  402859:	48 85 ed             	test   %rbp,%rbp
  40285c:	75 20                	jne    40287e <fflush+0x11e>
  40285e:	eb 5c                	jmp    4028bc <fflush+0x15c>
  402860:	48 8b 45 38          	mov    0x38(%rbp),%rax
  402864:	48 39 45 28          	cmp    %rax,0x28(%rbp)
  402868:	74 0b                	je     402875 <fflush+0x115>
  40286a:	48 89 ef             	mov    %rbp,%rdi
  40286d:	e8 ee fe ff ff       	call   402760 <fflush>
  402872:	41 09 c4             	or     %eax,%r12d
  402875:	48 8b 6d 70          	mov    0x70(%rbp),%rbp
  402879:	48 85 ed             	test   %rbp,%rbp
  40287c:	74 3e                	je     4028bc <fflush+0x15c>
  40287e:	8b 85 8c 00 00 00    	mov    0x8c(%rbp),%eax
  402884:	85 c0                	test   %eax,%eax
  402886:	78 d8                	js     402860 <fflush+0x100>
  402888:	48 89 ef             	mov    %rbp,%rdi
  40288b:	e8 30 0b 00 00       	call   4033c0 <__lockfile>
  402890:	89 c3                	mov    %eax,%ebx
  402892:	48 8b 45 38          	mov    0x38(%rbp),%rax
  402896:	48 39 45 28          	cmp    %rax,0x28(%rbp)
  40289a:	74 0b                	je     4028a7 <fflush+0x147>
  40289c:	48 89 ef             	mov    %rbp,%rdi
  40289f:	e8 bc fe ff ff       	call   402760 <fflush>
  4028a4:	41 09 c4             	or     %eax,%r12d
  4028a7:	85 db                	test   %ebx,%ebx
  4028a9:	74 ca                	je     402875 <fflush+0x115>
  4028ab:	48 89 ef             	mov    %rbp,%rdi
  4028ae:	e8 ed 0b 00 00       	call   4034a0 <__unlockfile>
  4028b3:	48 8b 6d 70          	mov    0x70(%rbp),%rbp
  4028b7:	48 85 ed             	test   %rbp,%rbp
  4028ba:	75 c2                	jne    40287e <fflush+0x11e>
  4028bc:	e8 4f 00 00 00       	call   402910 <__ofl_unlock>
  4028c1:	44 89 e0             	mov    %r12d,%eax
  4028c4:	5b                   	pop    %rbx
  4028c5:	5d                   	pop    %rbp
  4028c6:	41 5c                	pop    %r12
  4028c8:	c3                   	ret    
  4028c9:	45 85 e4             	test   %r12d,%r12d
  4028cc:	75 0b                	jne    4028d9 <fflush+0x179>
  4028ce:	41 bc ff ff ff ff    	mov    $0xffffffff,%r12d
  4028d4:	e9 0f ff ff ff       	jmp    4027e8 <fflush+0x88>
  4028d9:	48 89 ef             	mov    %rbp,%rdi
  4028dc:	41 83 cc ff          	or     $0xffffffff,%r12d
  4028e0:	e8 bb 0b 00 00       	call   4034a0 <__unlockfile>
  4028e5:	e9 fe fe ff ff       	jmp    4027e8 <fflush+0x88>
  4028ea:	66 0f 1f 44 00 00    	nopw   0x0(%rax,%rax,1)

00000000004028f0 <__ofl_lock>:
  4028f0:	f3 0f 1e fa          	endbr64 
  4028f4:	48 83 ec 08          	sub    $0x8,%rsp
  4028f8:	48 8d 3d d1 99 00 00 	lea    0x99d1(%rip),%rdi        # 40c2d0 <ofl_lock>
  4028ff:	e8 fc 01 00 00       	call   402b00 <__lock>
  402904:	48 8d 05 cd 99 00 00 	lea    0x99cd(%rip),%rax        # 40c2d8 <ofl_head>
  40290b:	48 83 c4 08          	add    $0x8,%rsp
  40290f:	c3                   	ret    

0000000000402910 <__ofl_unlock>:
  402910:	f3 0f 1e fa          	endbr64 
  402914:	48 8d 3d b5 99 00 00 	lea    0x99b5(%rip),%rdi        # 40c2d0 <ofl_lock>
  40291b:	e9 d0 02 00 00       	jmp    402bf0 <__unlock>

0000000000402920 <puts>:
  402920:	f3 0f 1e fa          	endbr64 
  402924:	41 55                	push   %r13
  402926:	4c 8d 2d f3 96 00 00 	lea    0x96f3(%rip),%r13        # 40c020 <__stdout_FILE>
  40292d:	41 54                	push   %r12
  40292f:	55                   	push   %rbp
  402930:	48 89 fd             	mov    %rdi,%rbp
  402933:	53                   	push   %rbx
  402934:	48 83 ec 08          	sub    $0x8,%rsp
  402938:	8b 05 6e 97 00 00    	mov    0x976e(%rip),%eax        # 40c0ac <__stdout_FILE+0x8c>
  40293e:	85 c0                	test   %eax,%eax
  402940:	79 76                	jns    4029b8 <puts+0x98>
  402942:	4c 89 ee             	mov    %r13,%rsi
  402945:	41 bc ff ff ff ff    	mov    $0xffffffff,%r12d
  40294b:	31 db                	xor    %ebx,%ebx
  40294d:	e8 9e 0d 00 00       	call   4036f0 <fputs>
  402952:	85 c0                	test   %eax,%eax
  402954:	78 36                	js     40298c <puts+0x6c>
  402956:	83 3d 53 97 00 00 0a 	cmpl   $0xa,0x9753(%rip)        # 40c0b0 <__stdout_FILE+0x90>
  40295d:	74 41                	je     4029a0 <puts+0x80>
  40295f:	48 8b 05 e2 96 00 00 	mov    0x96e2(%rip),%rax        # 40c048 <__stdout_FILE+0x28>
  402966:	48 3b 05 d3 96 00 00 	cmp    0x96d3(%rip),%rax        # 40c040 <__stdout_FILE+0x20>
  40296d:	74 31                	je     4029a0 <puts+0x80>
  40296f:	48 8d 50 01          	lea    0x1(%rax),%rdx
  402973:	45 31 e4             	xor    %r12d,%r12d
  402976:	48 89 15 cb 96 00 00 	mov    %rdx,0x96cb(%rip)        # 40c048 <__stdout_FILE+0x28>
  40297d:	c6 00 0a             	movb   $0xa,(%rax)
  402980:	85 db                	test   %ebx,%ebx
  402982:	74 08                	je     40298c <puts+0x6c>
  402984:	4c 89 ef             	mov    %r13,%rdi
  402987:	e8 14 0b 00 00       	call   4034a0 <__unlockfile>
  40298c:	48 83 c4 08          	add    $0x8,%rsp
  402990:	44 89 e0             	mov    %r12d,%eax
  402993:	5b                   	pop    %rbx
  402994:	5d                   	pop    %rbp
  402995:	41 5c                	pop    %r12
  402997:	41 5d                	pop    %r13
  402999:	c3                   	ret    
  40299a:	66 0f 1f 44 00 00    	nopw   0x0(%rax,%rax,1)
  4029a0:	be 0a 00 00 00       	mov    $0xa,%esi
  4029a5:	4c 89 ef             	mov    %r13,%rdi
  4029a8:	e8 43 0b 00 00       	call   4034f0 <__overflow>
  4029ad:	c1 f8 1f             	sar    $0x1f,%eax
  4029b0:	41 89 c4             	mov    %eax,%r12d
  4029b3:	eb cb                	jmp    402980 <puts+0x60>
  4029b5:	0f 1f 00             	nopl   (%rax)
  4029b8:	4c 89 ef             	mov    %r13,%rdi
  4029bb:	41 bc ff ff ff ff    	mov    $0xffffffff,%r12d
  4029c1:	e8 fa 09 00 00       	call   4033c0 <__lockfile>
  4029c6:	4c 89 ee             	mov    %r13,%rsi
  4029c9:	48 89 ef             	mov    %rbp,%rdi
  4029cc:	89 c3                	mov    %eax,%ebx
  4029ce:	e8 1d 0d 00 00       	call   4036f0 <fputs>
  4029d3:	85 c0                	test   %eax,%eax
  4029d5:	78 a9                	js     402980 <puts+0x60>
  4029d7:	83 3d d2 96 00 00 0a 	cmpl   $0xa,0x96d2(%rip)        # 40c0b0 <__stdout_FILE+0x90>
  4029de:	0f 85 7b ff ff ff    	jne    40295f <puts+0x3f>
  4029e4:	eb ba                	jmp    4029a0 <puts+0x80>
  4029e6:	66 2e 0f 1f 84 00 00 	cs nopw 0x0(%rax,%rax,1)
  4029ed:	00 00 00 

00000000004029f0 <scanf>:
  4029f0:	f3 0f 1e fa          	endbr64 
  4029f4:	48 81 ec d8 00 00 00 	sub    $0xd8,%rsp
  4029fb:	48 89 74 24 28       	mov    %rsi,0x28(%rsp)
  402a00:	48 89 54 24 30       	mov    %rdx,0x30(%rsp)
  402a05:	48 89 4c 24 38       	mov    %rcx,0x38(%rsp)
  402a0a:	4c 89 44 24 40       	mov    %r8,0x40(%rsp)
  402a0f:	4c 89 4c 24 48       	mov    %r9,0x48(%rsp)
  402a14:	84 c0                	test   %al,%al
  402a16:	74 37                	je     402a4f <scanf+0x5f>
  402a18:	0f 29 44 24 50       	movaps %xmm0,0x50(%rsp)
  402a1d:	0f 29 4c 24 60       	movaps %xmm1,0x60(%rsp)
  402a22:	0f 29 54 24 70       	movaps %xmm2,0x70(%rsp)
  402a27:	0f 29 9c 24 80 00 00 	movaps %xmm3,0x80(%rsp)
  402a2e:	00 
  402a2f:	0f 29 a4 24 90 00 00 	movaps %xmm4,0x90(%rsp)
  402a36:	00 
  402a37:	0f 29 ac 24 a0 00 00 	movaps %xmm5,0xa0(%rsp)
  402a3e:	00 
  402a3f:	0f 29 b4 24 b0 00 00 	movaps %xmm6,0xb0(%rsp)
  402a46:	00 
  402a47:	0f 29 bc 24 c0 00 00 	movaps %xmm7,0xc0(%rsp)
  402a4e:	00 
  402a4f:	64 48 8b 04 25 28 00 	mov    %fs:0x28,%rax
  402a56:	00 00 
  402a58:	48 89 44 24 18       	mov    %rax,0x18(%rsp)
  402a5d:	31 c0                	xor    %eax,%eax
  402a5f:	48 8d 84 24 e0 00 00 	lea    0xe0(%rsp),%rax
  402a66:	00 
  402a67:	48 89 e6             	mov    %rsp,%rsi
  402a6a:	c7 04 24 08 00 00 00 	movl   $0x8,(%rsp)
  402a71:	48 89 44 24 08       	mov    %rax,0x8(%rsp)
  402a76:	48 8d 44 24 20       	lea    0x20(%rsp),%rax
  402a7b:	c7 44 24 04 30 00 00 	movl   $0x30,0x4(%rsp)
  402a82:	00 
  402a83:	48 89 44 24 10       	mov    %rax,0x10(%rsp)
  402a88:	e8 23 00 00 00       	call   402ab0 <vscanf>
  402a8d:	48 8b 54 24 18       	mov    0x18(%rsp),%rdx
  402a92:	64 48 2b 14 25 28 00 	sub    %fs:0x28,%rdx
  402a99:	00 00 
  402a9b:	75 08                	jne    402aa5 <scanf+0xb5>
  402a9d:	48 81 c4 d8 00 00 00 	add    $0xd8,%rsp
  402aa4:	c3                   	ret    
  402aa5:	e8 c6 f9 ff ff       	call   402470 <__stack_chk_fail>
  402aaa:	66 0f 1f 44 00 00    	nopw   0x0(%rax,%rax,1)

0000000000402ab0 <vscanf>:
  402ab0:	f3 0f 1e fa          	endbr64 
  402ab4:	48 89 f2             	mov    %rsi,%rdx
  402ab7:	48 89 fe             	mov    %rdi,%rsi
  402aba:	48 8d 3d 5f 96 00 00 	lea    0x965f(%rip),%rdi        # 40c120 <__stdin_FILE>
  402ac1:	e9 ba 0e 00 00       	jmp    403980 <vfscanf>

0000000000402ac6 <memcpy>:
  402ac6:	48 89 f8             	mov    %rdi,%rax
  402ac9:	48 83 fa 08          	cmp    $0x8,%rdx
  402acd:	72 14                	jb     402ae3 <memcpy+0x1d>
  402acf:	f7 c7 07 00 00 00    	test   $0x7,%edi
  402ad5:	74 0c                	je     402ae3 <memcpy+0x1d>
  402ad7:	a4                   	movsb  %ds:(%rsi),%es:(%rdi)
  402ad8:	48 ff ca             	dec    %rdx
  402adb:	f7 c7 07 00 00 00    	test   $0x7,%edi
  402ae1:	75 f4                	jne    402ad7 <memcpy+0x11>
  402ae3:	48 89 d1             	mov    %rdx,%rcx
  402ae6:	48 c1 e9 03          	shr    $0x3,%rcx
  402aea:	f3 48 a5             	rep movsq %ds:(%rsi),%es:(%rdi)
  402aed:	83 e2 07             	and    $0x7,%edx
  402af0:	74 05                	je     402af7 <memcpy+0x31>
  402af2:	a4                   	movsb  %ds:(%rsi),%es:(%rdi)
  402af3:	ff ca                	dec    %edx
  402af5:	75 fb                	jne    402af2 <memcpy+0x2c>
  402af7:	c3                   	ret    
  402af8:	0f 1f 84 00 00 00 00 	nopl   0x0(%rax,%rax,1)
  402aff:	00 

0000000000402b00 <__lock>:
  402b00:	f3 0f 1e fa          	endbr64 
  402b04:	0f be 0d 58 97 00 00 	movsbl 0x9758(%rip),%ecx        # 40c263 <__libc+0x3>
  402b0b:	85 c9                	test   %ecx,%ecx
  402b0d:	74 51                	je     402b60 <__lock+0x60>
  402b0f:	31 c0                	xor    %eax,%eax
  402b11:	ba 01 00 00 80       	mov    $0x80000001,%edx
  402b16:	f0 0f b1 17          	lock cmpxchg %edx,(%rdi)
  402b1a:	89 c2                	mov    %eax,%edx
  402b1c:	85 c9                	test   %ecx,%ecx
  402b1e:	78 48                	js     402b68 <__lock+0x68>
  402b20:	85 c0                	test   %eax,%eax
  402b22:	74 3c                	je     402b60 <__lock+0x60>
  402b24:	41 b8 0a 00 00 00    	mov    $0xa,%r8d
  402b2a:	eb 1e                	jmp    402b4a <__lock+0x4a>
  402b2c:	0f 1f 40 00          	nopl   0x0(%rax)
  402b30:	8d b2 01 00 00 80    	lea    -0x7fffffff(%rdx),%esi
  402b36:	89 d1                	mov    %edx,%ecx
  402b38:	89 c8                	mov    %ecx,%eax
  402b3a:	f0 0f b1 37          	lock cmpxchg %esi,(%rdi)
  402b3e:	89 c2                	mov    %eax,%edx
  402b40:	39 c1                	cmp    %eax,%ecx
  402b42:	74 1c                	je     402b60 <__lock+0x60>
  402b44:	41 83 e8 01          	sub    $0x1,%r8d
  402b48:	74 2e                	je     402b78 <__lock+0x78>
  402b4a:	85 d2                	test   %edx,%edx
  402b4c:	79 e2                	jns    402b30 <__lock+0x30>
  402b4e:	8d 8a ff ff ff 7f    	lea    0x7fffffff(%rdx),%ecx
  402b54:	89 d6                	mov    %edx,%esi
  402b56:	eb e0                	jmp    402b38 <__lock+0x38>
  402b58:	0f 1f 84 00 00 00 00 	nopl   0x0(%rax,%rax,1)
  402b5f:	00 
  402b60:	c3                   	ret    
  402b61:	0f 1f 80 00 00 00 00 	nopl   0x0(%rax)
  402b68:	c6 05 f4 96 00 00 00 	movb   $0x0,0x96f4(%rip)        # 40c263 <__libc+0x3>
  402b6f:	85 c0                	test   %eax,%eax
  402b71:	75 b1                	jne    402b24 <__lock+0x24>
  402b73:	eb eb                	jmp    402b60 <__lock+0x60>
  402b75:	0f 1f 00             	nopl   (%rax)
  402b78:	53                   	push   %rbx
  402b79:	41 b8 01 00 00 00    	mov    $0x1,%r8d
  402b7f:	f0 44 0f c1 07       	lock xadd %r8d,(%rdi)
  402b84:	41 b9 ca 00 00 00    	mov    $0xca,%r9d
  402b8a:	41 83 c0 01          	add    $0x1,%r8d
  402b8e:	bb 80 00 00 00       	mov    $0x80,%ebx
  402b93:	eb 18                	jmp    402bad <__lock+0xad>
  402b95:	0f 1f 00             	nopl   (%rax)
  402b98:	44 8d 82 00 00 00 80 	lea    -0x80000000(%rdx),%r8d
  402b9f:	89 d0                	mov    %edx,%eax
  402ba1:	f0 44 0f b1 07       	lock cmpxchg %r8d,(%rdi)
  402ba6:	41 89 c0             	mov    %eax,%r8d
  402ba9:	39 c2                	cmp    %eax,%edx
  402bab:	74 33                	je     402be0 <__lock+0xe0>
  402bad:	44 89 c2             	mov    %r8d,%edx
  402bb0:	45 85 c0             	test   %r8d,%r8d
  402bb3:	79 e3                	jns    402b98 <__lock+0x98>
  402bb5:	49 63 d0             	movslq %r8d,%rdx
  402bb8:	45 31 d2             	xor    %r10d,%r10d
  402bbb:	4c 89 c8             	mov    %r9,%rax
  402bbe:	48 89 de             	mov    %rbx,%rsi
  402bc1:	0f 05                	syscall 
  402bc3:	48 83 f8 da          	cmp    $0xffffffffffffffda,%rax
  402bc7:	75 07                	jne    402bd0 <__lock+0xd0>
  402bc9:	31 f6                	xor    %esi,%esi
  402bcb:	4c 89 c8             	mov    %r9,%rax
  402bce:	0f 05                	syscall 
  402bd0:	41 8d 90 ff ff ff 7f 	lea    0x7fffffff(%r8),%edx
  402bd7:	eb bf                	jmp    402b98 <__lock+0x98>
  402bd9:	0f 1f 80 00 00 00 00 	nopl   0x0(%rax)
  402be0:	5b                   	pop    %rbx
  402be1:	c3                   	ret    
  402be2:	66 2e 0f 1f 84 00 00 	cs nopw 0x0(%rax,%rax,1)
  402be9:	00 00 00 
  402bec:	0f 1f 40 00          	nopl   0x0(%rax)

0000000000402bf0 <__unlock>:
  402bf0:	f3 0f 1e fa          	endbr64 
  402bf4:	8b 07                	mov    (%rdi),%eax
  402bf6:	85 c0                	test   %eax,%eax
  402bf8:	78 06                	js     402c00 <__unlock+0x10>
  402bfa:	c3                   	ret    
  402bfb:	0f 1f 44 00 00       	nopl   0x0(%rax,%rax,1)
  402c00:	b8 ff ff ff 7f       	mov    $0x7fffffff,%eax
  402c05:	f0 0f c1 07          	lock xadd %eax,(%rdi)
  402c09:	3d 01 00 00 80       	cmp    $0x80000001,%eax
  402c0e:	74 ea                	je     402bfa <__unlock+0xa>
  402c10:	41 b8 ca 00 00 00    	mov    $0xca,%r8d
  402c16:	ba 01 00 00 00       	mov    $0x1,%edx
  402c1b:	be 81 00 00 00       	mov    $0x81,%esi
  402c20:	4c 89 c0             	mov    %r8,%rax
  402c23:	0f 05                	syscall 
  402c25:	48 83 f8 da          	cmp    $0xffffffffffffffda,%rax
  402c29:	75 cf                	jne    402bfa <__unlock+0xa>
  402c2b:	4c 89 c0             	mov    %r8,%rax
  402c2e:	48 89 d6             	mov    %rdx,%rsi
  402c31:	0f 05                	syscall 
  402c33:	c3                   	ret    
  402c34:	66 2e 0f 1f 84 00 00 	cs nopw 0x0(%rax,%rax,1)
  402c3b:	00 00 00 
  402c3e:	66 90                	xchg   %ax,%ax

0000000000402c40 <__syscall_cp_c>:
  402c40:	f3 0f 1e fa          	endbr64 
  402c44:	48 89 f8             	mov    %rdi,%rax
  402c47:	4d 89 c2             	mov    %r8,%r10
  402c4a:	48 89 f7             	mov    %rsi,%rdi
  402c4d:	4d 89 c8             	mov    %r9,%r8
  402c50:	48 89 d6             	mov    %rdx,%rsi
  402c53:	4c 8b 4c 24 08       	mov    0x8(%rsp),%r9
  402c58:	48 89 ca             	mov    %rcx,%rdx
  402c5b:	0f 05                	syscall 
  402c5d:	c3                   	ret    
  402c5e:	66 90                	xchg   %ax,%ax

0000000000402c60 <__syscall_cp>:
  402c60:	f3 0f 1e fa          	endbr64 
  402c64:	e9 d7 ff ff ff       	jmp    402c40 <__syscall_cp_c>
  402c69:	0f 1f 80 00 00 00 00 	nopl   0x0(%rax)

0000000000402c70 <alarm>:
  402c70:	f3 0f 1e fa          	endbr64 
  402c74:	48 83 ec 58          	sub    $0x58,%rsp
  402c78:	66 0f ef c0          	pxor   %xmm0,%xmm0
  402c7c:	64 48 8b 04 25 28 00 	mov    %fs:0x28,%rax
  402c83:	00 00 
  402c85:	48 89 44 24 48       	mov    %rax,0x48(%rsp)
  402c8a:	31 c0                	xor    %eax,%eax
  402c8c:	48 8d 54 24 20       	lea    0x20(%rsp),%rdx
  402c91:	89 f8                	mov    %edi,%eax
  402c93:	48 89 e6             	mov    %rsp,%rsi
  402c96:	31 ff                	xor    %edi,%edi
  402c98:	0f 29 44 24 10       	movaps %xmm0,0x10(%rsp)
  402c9d:	0f 29 04 24          	movaps %xmm0,(%rsp)
  402ca1:	48 89 44 24 10       	mov    %rax,0x10(%rsp)
  402ca6:	0f 29 44 24 20       	movaps %xmm0,0x20(%rsp)
  402cab:	0f 29 44 24 30       	movaps %xmm0,0x30(%rsp)
  402cb0:	e8 1b 04 00 00       	call   4030d0 <setitimer>
  402cb5:	31 c0                	xor    %eax,%eax
  402cb7:	48 83 7c 24 38 00    	cmpq   $0x0,0x38(%rsp)
  402cbd:	0f 95 c0             	setne  %al
  402cc0:	03 44 24 30          	add    0x30(%rsp),%eax
  402cc4:	48 8b 54 24 48       	mov    0x48(%rsp),%rdx
  402cc9:	64 48 2b 14 25 28 00 	sub    %fs:0x28,%rdx
  402cd0:	00 00 
  402cd2:	75 05                	jne    402cd9 <alarm+0x69>
  402cd4:	48 83 c4 58          	add    $0x58,%rsp
  402cd8:	c3                   	ret    
  402cd9:	e8 92 f7 ff ff       	call   402470 <__stack_chk_fail>
  402cde:	66 90                	xchg   %ax,%ax

0000000000402ce0 <__aio_close>:
  402ce0:	f3 0f 1e fa          	endbr64 
  402ce4:	89 f8                	mov    %edi,%eax
  402ce6:	c3                   	ret    
  402ce7:	66 0f 1f 84 00 00 00 	nopw   0x0(%rax,%rax,1)
  402cee:	00 00 

0000000000402cf0 <close>:
  402cf0:	f3 0f 1e fa          	endbr64 
  402cf4:	48 83 ec 08          	sub    $0x8,%rsp
  402cf8:	e8 e3 ff ff ff       	call   402ce0 <__aio_close>
  402cfd:	48 83 ec 08          	sub    $0x8,%rsp
  402d01:	45 31 c9             	xor    %r9d,%r9d
  402d04:	45 31 c0             	xor    %r8d,%r8d
  402d07:	6a 00                	push   $0x0
  402d09:	31 c9                	xor    %ecx,%ecx
  402d0b:	31 d2                	xor    %edx,%edx
  402d0d:	48 63 f0             	movslq %eax,%rsi
  402d10:	bf 03 00 00 00       	mov    $0x3,%edi
  402d15:	e8 46 ff ff ff       	call   402c60 <__syscall_cp>
  402d1a:	5a                   	pop    %rdx
  402d1b:	31 d2                	xor    %edx,%edx
  402d1d:	59                   	pop    %rcx
  402d1e:	83 f8 fc             	cmp    $0xfffffffc,%eax
  402d21:	0f 44 c2             	cmove  %edx,%eax
  402d24:	48 63 f8             	movslq %eax,%rdi
  402d27:	e8 74 f8 ff ff       	call   4025a0 <__syscall_ret>
  402d2c:	48 83 c4 08          	add    $0x8,%rsp
  402d30:	c3                   	ret    
  402d31:	66 2e 0f 1f 84 00 00 	cs nopw 0x0(%rax,%rax,1)
  402d38:	00 00 00 
  402d3b:	0f 1f 44 00 00       	nopl   0x0(%rax,%rax,1)

0000000000402d40 <read>:
  402d40:	f3 0f 1e fa          	endbr64 
  402d44:	48 83 ec 10          	sub    $0x10,%rsp
  402d48:	49 89 f2             	mov    %rsi,%r10
  402d4b:	48 89 d1             	mov    %rdx,%rcx
  402d4e:	48 63 f7             	movslq %edi,%rsi
  402d51:	6a 00                	push   $0x0
  402d53:	31 ff                	xor    %edi,%edi
  402d55:	45 31 c9             	xor    %r9d,%r9d
  402d58:	45 31 c0             	xor    %r8d,%r8d
  402d5b:	4c 89 d2             	mov    %r10,%rdx
  402d5e:	e8 fd fe ff ff       	call   402c60 <__syscall_cp>
  402d63:	48 83 c4 18          	add    $0x18,%rsp
  402d67:	48 89 c7             	mov    %rax,%rdi
  402d6a:	e9 31 f8 ff ff       	jmp    4025a0 <__syscall_ret>
  402d6f:	90                   	nop

0000000000402d70 <__init_tp>:
  402d70:	f3 0f 1e fa          	endbr64 
  402d74:	53                   	push   %rbx
  402d75:	48 89 fb             	mov    %rdi,%rbx
  402d78:	48 89 3f             	mov    %rdi,(%rdi)
  402d7b:	e8 61 1c 00 00       	call   4049e1 <__set_thread_area>
  402d80:	85 c0                	test   %eax,%eax
  402d82:	78 54                	js     402dd8 <__init_tp+0x68>
  402d84:	75 07                	jne    402d8d <__init_tp+0x1d>
  402d86:	c6 05 d3 94 00 00 01 	movb   $0x1,0x94d3(%rip)        # 40c260 <__libc>
  402d8d:	c7 43 38 02 00 00 00 	movl   $0x2,0x38(%rbx)
  402d94:	b8 da 00 00 00       	mov    $0xda,%eax
  402d99:	48 8d 3d f0 9a 00 00 	lea    0x9af0(%rip),%rdi        # 40c890 <__thread_list_lock>
  402da0:	0f 05                	syscall 
  402da2:	89 43 30             	mov    %eax,0x30(%rbx)
  402da5:	48 8d 05 ec 94 00 00 	lea    0x94ec(%rip),%rax        # 40c298 <__libc+0x38>
  402dac:	48 89 83 a8 00 00 00 	mov    %rax,0xa8(%rbx)
  402db3:	48 8d 83 88 00 00 00 	lea    0x88(%rbx),%rax
  402dba:	48 89 83 88 00 00 00 	mov    %rax,0x88(%rbx)
  402dc1:	48 8b 05 70 94 00 00 	mov    0x9470(%rip),%rax        # 40c238 <__sysinfo>
  402dc8:	48 89 5b 10          	mov    %rbx,0x10(%rbx)
  402dcc:	48 89 43 20          	mov    %rax,0x20(%rbx)
  402dd0:	31 c0                	xor    %eax,%eax
  402dd2:	48 89 5b 18          	mov    %rbx,0x18(%rbx)
  402dd6:	5b                   	pop    %rbx
  402dd7:	c3                   	ret    
  402dd8:	b8 ff ff ff ff       	mov    $0xffffffff,%eax
  402ddd:	5b                   	pop    %rbx
  402dde:	c3                   	ret    
  402ddf:	90                   	nop

0000000000402de0 <__copy_tls>:
  402de0:	f3 0f 1e fa          	endbr64 
  402de4:	41 55                	push   %r13
  402de6:	49 89 fd             	mov    %rdi,%r13
  402de9:	41 54                	push   %r12
  402deb:	55                   	push   %rbp
  402dec:	53                   	push   %rbx
  402ded:	48 83 ec 08          	sub    $0x8,%rsp
  402df1:	48 8b 05 80 94 00 00 	mov    0x9480(%rip),%rax        # 40c278 <__libc+0x18>
  402df8:	4c 8b 25 81 94 00 00 	mov    0x9481(%rip),%r12        # 40c280 <__libc+0x20>
  402dff:	48 8b 1d 6a 94 00 00 	mov    0x946a(%rip),%rbx        # 40c270 <__libc+0x10>
  402e06:	48 8d 84 07 38 ff ff 	lea    -0xc8(%rdi,%rax,1),%rax
  402e0d:	ff 
  402e0e:	49 f7 dc             	neg    %r12
  402e11:	49 21 c4             	and    %rax,%r12
  402e14:	48 85 db             	test   %rbx,%rbx
  402e17:	74 32                	je     402e4b <__copy_tls+0x6b>
  402e19:	48 8d 6f 08          	lea    0x8(%rdi),%rbp
  402e1d:	0f 1f 00             	nopl   (%rax)
  402e20:	4c 89 e0             	mov    %r12,%rax
  402e23:	48 2b 43 28          	sub    0x28(%rbx),%rax
  402e27:	48 8b 73 08          	mov    0x8(%rbx),%rsi
  402e2b:	4c 89 e7             	mov    %r12,%rdi
  402e2e:	48 89 45 00          	mov    %rax,0x0(%rbp)
  402e32:	48 8b 53 10          	mov    0x10(%rbx),%rdx
  402e36:	48 83 c5 08          	add    $0x8,%rbp
  402e3a:	48 2b 7b 28          	sub    0x28(%rbx),%rdi
  402e3e:	e8 83 fc ff ff       	call   402ac6 <memcpy>
  402e43:	48 8b 1b             	mov    (%rbx),%rbx
  402e46:	48 85 db             	test   %rbx,%rbx
  402e49:	75 d5                	jne    402e20 <__copy_tls+0x40>
  402e4b:	48 8b 05 36 94 00 00 	mov    0x9436(%rip),%rax        # 40c288 <__libc+0x28>
  402e52:	49 89 45 00          	mov    %rax,0x0(%r13)
  402e56:	4c 89 e0             	mov    %r12,%rax
  402e59:	4d 89 6c 24 08       	mov    %r13,0x8(%r12)
  402e5e:	48 83 c4 08          	add    $0x8,%rsp
  402e62:	5b                   	pop    %rbx
  402e63:	5d                   	pop    %rbp
  402e64:	41 5c                	pop    %r12
  402e66:	41 5d                	pop    %r13
  402e68:	c3                   	ret    
  402e69:	0f 1f 80 00 00 00 00 	nopl   0x0(%rax)

0000000000402e70 <__init_tls>:
  402e70:	f3 0f 1e fa          	endbr64 
  402e74:	53                   	push   %rbx
  402e75:	48 8b 4f 28          	mov    0x28(%rdi),%rcx
  402e79:	4c 8b 5f 18          	mov    0x18(%rdi),%r11
  402e7d:	48 85 c9             	test   %rcx,%rcx
  402e80:	0f 84 ea 01 00 00    	je     403070 <__init_tls+0x200>
  402e86:	44 8b 05 7f 93 00 00 	mov    0x937f(%rip),%r8d        # 40c20c <__default_stacksize>
  402e8d:	48 8b 7f 20          	mov    0x20(%rdi),%rdi
  402e91:	4c 89 d8             	mov    %r11,%rax
  402e94:	31 db                	xor    %ebx,%ebx
  402e96:	31 f6                	xor    %esi,%esi
  402e98:	45 31 c9             	xor    %r9d,%r9d
  402e9b:	eb 21                	jmp    402ebe <__init_tls+0x4e>
  402e9d:	0f 1f 00             	nopl   (%rax)
  402ea0:	83 fa 02             	cmp    $0x2,%edx
  402ea3:	0f 84 a7 01 00 00    	je     403050 <__init_tls+0x1e0>
  402ea9:	83 fa 07             	cmp    $0x7,%edx
  402eac:	0f 85 68 01 00 00    	jne    40301a <__init_tls+0x1aa>
  402eb2:	49 89 c1             	mov    %rax,%r9
  402eb5:	48 01 f8             	add    %rdi,%rax
  402eb8:	48 83 e9 01          	sub    $0x1,%rcx
  402ebc:	74 17                	je     402ed5 <__init_tls+0x65>
  402ebe:	8b 10                	mov    (%rax),%edx
  402ec0:	83 fa 06             	cmp    $0x6,%edx
  402ec3:	75 db                	jne    402ea0 <__init_tls+0x30>
  402ec5:	4c 89 de             	mov    %r11,%rsi
  402ec8:	48 2b 70 10          	sub    0x10(%rax),%rsi
  402ecc:	48 01 f8             	add    %rdi,%rax
  402ecf:	48 83 e9 01          	sub    $0x1,%rcx
  402ed3:	75 e9                	jne    402ebe <__init_tls+0x4e>
  402ed5:	84 db                	test   %bl,%bl
  402ed7:	74 07                	je     402ee0 <__init_tls+0x70>
  402ed9:	44 89 05 2c 93 00 00 	mov    %r8d,0x932c(%rip)        # 40c20c <__default_stacksize>
  402ee0:	4d 85 c9             	test   %r9,%r9
  402ee3:	0f 84 87 01 00 00    	je     403070 <__init_tls+0x200>
  402ee9:	49 8b 41 20          	mov    0x20(%r9),%rax
  402eed:	49 03 71 10          	add    0x10(%r9),%rsi
  402ef1:	48 8d 0d 08 98 00 00 	lea    0x9808(%rip),%rcx        # 40c700 <main_tls>
  402ef8:	49 8b 51 28          	mov    0x28(%r9),%rdx
  402efc:	48 89 35 05 98 00 00 	mov    %rsi,0x9805(%rip)        # 40c708 <main_tls+0x8>
  402f03:	48 89 05 06 98 00 00 	mov    %rax,0x9806(%rip)        # 40c710 <main_tls+0x10>
  402f0a:	49 8b 41 30          	mov    0x30(%r9),%rax
  402f0e:	48 c7 05 6f 93 00 00 	movq   $0x1,0x936f(%rip)        # 40c288 <__libc+0x28>
  402f15:	01 00 00 00 
  402f19:	48 89 05 00 98 00 00 	mov    %rax,0x9800(%rip)        # 40c720 <main_tls+0x20>
  402f20:	48 89 0d 49 93 00 00 	mov    %rcx,0x9349(%rip)        # 40c270 <__libc+0x10>
  402f27:	48 01 d6             	add    %rdx,%rsi
  402f2a:	48 8d 48 ff          	lea    -0x1(%rax),%rcx
  402f2e:	48 f7 de             	neg    %rsi
  402f31:	48 21 ce             	and    %rcx,%rsi
  402f34:	48 01 d6             	add    %rdx,%rsi
  402f37:	48 8d 90 df 00 00 00 	lea    0xdf(%rax),%rdx
  402f3e:	48 89 35 d3 97 00 00 	mov    %rsi,0x97d3(%rip)        # 40c718 <main_tls+0x18>
  402f45:	48 89 35 dc 97 00 00 	mov    %rsi,0x97dc(%rip)        # 40c728 <main_tls+0x28>
  402f4c:	48 83 f8 07          	cmp    $0x7,%rax
  402f50:	77 15                	ja     402f67 <__init_tls+0xf7>
  402f52:	48 c7 05 c3 97 00 00 	movq   $0x8,0x97c3(%rip)        # 40c720 <main_tls+0x20>
  402f59:	08 00 00 00 
  402f5d:	ba e7 00 00 00       	mov    $0xe7,%edx
  402f62:	b8 08 00 00 00       	mov    $0x8,%eax
  402f67:	48 01 d6             	add    %rdx,%rsi
  402f6a:	48 89 05 0f 93 00 00 	mov    %rax,0x930f(%rip)        # 40c280 <__libc+0x20>
  402f71:	48 8d 3d c8 97 00 00 	lea    0x97c8(%rip),%rdi        # 40c740 <builtin_tls>
  402f78:	48 83 e6 f8          	and    $0xfffffffffffffff8,%rsi
  402f7c:	48 89 35 f5 92 00 00 	mov    %rsi,0x92f5(%rip)        # 40c278 <__libc+0x18>
  402f83:	48 81 fe 50 01 00 00 	cmp    $0x150,%rsi
  402f8a:	76 21                	jbe    402fad <__init_tls+0x13d>
  402f8c:	41 ba 22 00 00 00    	mov    $0x22,%r10d
  402f92:	45 31 c9             	xor    %r9d,%r9d
  402f95:	b8 09 00 00 00       	mov    $0x9,%eax
  402f9a:	31 ff                	xor    %edi,%edi
  402f9c:	49 c7 c0 ff ff ff ff 	mov    $0xffffffffffffffff,%r8
  402fa3:	ba 03 00 00 00       	mov    $0x3,%edx
  402fa8:	0f 05                	syscall 
  402faa:	48 89 c7             	mov    %rax,%rdi
  402fad:	e8 2e fe ff ff       	call   402de0 <__copy_tls>
  402fb2:	48 89 00             	mov    %rax,(%rax)
  402fb5:	48 89 c7             	mov    %rax,%rdi
  402fb8:	48 89 c3             	mov    %rax,%rbx
  402fbb:	e8 21 1a 00 00       	call   4049e1 <__set_thread_area>
  402fc0:	85 c0                	test   %eax,%eax
  402fc2:	0f 88 a4 00 00 00    	js     40306c <__init_tls+0x1fc>
  402fc8:	75 07                	jne    402fd1 <__init_tls+0x161>
  402fca:	c6 05 8f 92 00 00 01 	movb   $0x1,0x928f(%rip)        # 40c260 <__libc>
  402fd1:	c7 43 38 02 00 00 00 	movl   $0x2,0x38(%rbx)
  402fd8:	b8 da 00 00 00       	mov    $0xda,%eax
  402fdd:	48 8d 3d ac 98 00 00 	lea    0x98ac(%rip),%rdi        # 40c890 <__thread_list_lock>
  402fe4:	0f 05                	syscall 
  402fe6:	89 43 30             	mov    %eax,0x30(%rbx)
  402fe9:	48 8d 05 a8 92 00 00 	lea    0x92a8(%rip),%rax        # 40c298 <__libc+0x38>
  402ff0:	48 89 83 a8 00 00 00 	mov    %rax,0xa8(%rbx)
  402ff7:	48 8d 83 88 00 00 00 	lea    0x88(%rbx),%rax
  402ffe:	48 89 83 88 00 00 00 	mov    %rax,0x88(%rbx)
  403005:	48 8b 05 2c 92 00 00 	mov    0x922c(%rip),%rax        # 40c238 <__sysinfo>
  40300c:	48 89 5b 10          	mov    %rbx,0x10(%rbx)
  403010:	48 89 43 20          	mov    %rax,0x20(%rbx)
  403014:	48 89 5b 18          	mov    %rbx,0x18(%rbx)
  403018:	5b                   	pop    %rbx
  403019:	c3                   	ret    
  40301a:	81 fa 51 e5 74 64    	cmp    $0x6474e551,%edx
  403020:	0f 85 8f fe ff ff    	jne    402eb5 <__init_tls+0x45>
  403026:	48 8b 50 28          	mov    0x28(%rax),%rdx
  40302a:	45 89 c2             	mov    %r8d,%r10d
  40302d:	4c 39 d2             	cmp    %r10,%rdx
  403030:	0f 86 7f fe ff ff    	jbe    402eb5 <__init_tls+0x45>
  403036:	41 b8 00 00 80 00    	mov    $0x800000,%r8d
  40303c:	bb 01 00 00 00       	mov    $0x1,%ebx
  403041:	4c 39 c2             	cmp    %r8,%rdx
  403044:	4c 0f 46 c2          	cmovbe %rdx,%r8
  403048:	e9 68 fe ff ff       	jmp    402eb5 <__init_tls+0x45>
  40304d:	0f 1f 00             	nopl   (%rax)
  403050:	48 c7 c2 00 00 00 00 	mov    $0x0,%rdx
  403057:	48 85 d2             	test   %rdx,%rdx
  40305a:	0f 84 55 fe ff ff    	je     402eb5 <__init_tls+0x45>
  403060:	48 89 d6             	mov    %rdx,%rsi
  403063:	48 2b 70 10          	sub    0x10(%rax),%rsi
  403067:	e9 49 fe ff ff       	jmp    402eb5 <__init_tls+0x45>
  40306c:	f4                   	hlt    
  40306d:	5b                   	pop    %rbx
  40306e:	c3                   	ret    
  40306f:	90                   	nop
  403070:	48 8b 15 a1 96 00 00 	mov    0x96a1(%rip),%rdx        # 40c718 <main_tls+0x18>
  403077:	48 8b 35 8a 96 00 00 	mov    0x968a(%rip),%rsi        # 40c708 <main_tls+0x8>
  40307e:	48 8b 05 9b 96 00 00 	mov    0x969b(%rip),%rax        # 40c720 <main_tls+0x20>
  403085:	e9 9d fe ff ff       	jmp    402f27 <__init_tls+0xb7>
  40308a:	66 0f 1f 44 00 00    	nopw   0x0(%rax,%rax,1)

0000000000403090 <__errno_location>:
  403090:	f3 0f 1e fa          	endbr64 
  403094:	64 48 8b 04 25 00 00 	mov    %fs:0x0,%rax
  40309b:	00 00 
  40309d:	48 83 c0 34          	add    $0x34,%rax
  4030a1:	c3                   	ret    
  4030a2:	66 2e 0f 1f 84 00 00 	cs nopw 0x0(%rax,%rax,1)
  4030a9:	00 00 00 
  4030ac:	0f 1f 40 00          	nopl   0x0(%rax)

00000000004030b0 <_Exit>:
  4030b0:	f3 0f 1e fa          	endbr64 
  4030b4:	48 63 ff             	movslq %edi,%rdi
  4030b7:	b8 e7 00 00 00       	mov    $0xe7,%eax
  4030bc:	0f 05                	syscall 
  4030be:	ba 3c 00 00 00       	mov    $0x3c,%edx
  4030c3:	0f 1f 44 00 00       	nopl   0x0(%rax,%rax,1)
  4030c8:	48 89 d0             	mov    %rdx,%rax
  4030cb:	0f 05                	syscall 
  4030cd:	eb f9                	jmp    4030c8 <_Exit+0x18>
  4030cf:	90                   	nop

00000000004030d0 <setitimer>:
  4030d0:	f3 0f 1e fa          	endbr64 
  4030d4:	48 83 ec 08          	sub    $0x8,%rsp
  4030d8:	48 63 ff             	movslq %edi,%rdi
  4030db:	b8 26 00 00 00       	mov    $0x26,%eax
  4030e0:	0f 05                	syscall 
  4030e2:	48 89 c7             	mov    %rax,%rdi
  4030e5:	e8 b6 f4 ff ff       	call   4025a0 <__syscall_ret>
  4030ea:	48 83 c4 08          	add    $0x8,%rsp
  4030ee:	c3                   	ret    
  4030ef:	90                   	nop

00000000004030f0 <__get_handler_set>:
  4030f0:	f3 0f 1e fa          	endbr64 
  4030f4:	ba 08 00 00 00       	mov    $0x8,%edx
  4030f9:	48 8d 35 98 97 00 00 	lea    0x9798(%rip),%rsi        # 40c898 <handler_set>
  403100:	e9 c1 f9 ff ff       	jmp    402ac6 <memcpy>
  403105:	66 2e 0f 1f 84 00 00 	cs nopw 0x0(%rax,%rax,1)
  40310c:	00 00 00 
  40310f:	90                   	nop

0000000000403110 <__libc_sigaction>:
  403110:	f3 0f 1e fa          	endbr64 
  403114:	55                   	push   %rbp
  403115:	48 89 d5             	mov    %rdx,%rbp
  403118:	53                   	push   %rbx
  403119:	89 fb                	mov    %edi,%ebx
  40311b:	48 83 ec 58          	sub    $0x58,%rsp
  40311f:	64 48 8b 04 25 28 00 	mov    %fs:0x28,%rax
  403126:	00 00 
  403128:	48 89 44 24 48       	mov    %rax,0x48(%rsp)
  40312d:	31 c0                	xor    %eax,%eax
  40312f:	48 85 f6             	test   %rsi,%rsi
  403132:	0f 84 20 01 00 00    	je     403258 <__libc_sigaction+0x148>
  403138:	48 8b 16             	mov    (%rsi),%rdx
  40313b:	49 89 f0             	mov    %rsi,%r8
  40313e:	48 83 fa 01          	cmp    $0x1,%rdx
  403142:	76 67                	jbe    4031ab <__libc_sigaction+0x9b>
  403144:	8d 4f ff             	lea    -0x1(%rdi),%ecx
  403147:	bf 01 00 00 00       	mov    $0x1,%edi
  40314c:	48 8d 05 45 97 00 00 	lea    0x9745(%rip),%rax        # 40c898 <handler_set>
  403153:	48 89 fa             	mov    %rdi,%rdx
  403156:	48 d3 e2             	shl    %cl,%rdx
  403159:	48 63 c9             	movslq %ecx,%rcx
  40315c:	48 c1 e9 06          	shr    $0x6,%rcx
  403160:	48 8d 04 c8          	lea    (%rax,%rcx,8),%rax
  403164:	f0 48 09 10          	lock or %rdx,(%rax)
  403168:	80 3d f2 90 00 00 00 	cmpb   $0x0,0x90f2(%rip)        # 40c261 <__libc+0x1>
  40316f:	75 0e                	jne    40317f <__libc_sigaction+0x6f>
  403171:	8b 05 29 97 00 00    	mov    0x9729(%rip),%eax        # 40c8a0 <unmask_done>
  403177:	85 c0                	test   %eax,%eax
  403179:	0f 84 f1 00 00 00    	je     403270 <__libc_sigaction+0x160>
  40317f:	41 8b 80 88 00 00 00 	mov    0x88(%r8),%eax
  403186:	a9 00 00 00 10       	test   $0x10000000,%eax
  40318b:	74 0b                	je     403198 <__libc_sigaction+0x88>
  40318d:	49 8b 10             	mov    (%r8),%rdx
  403190:	eb 20                	jmp    4031b2 <__libc_sigaction+0xa2>
  403192:	66 0f 1f 44 00 00    	nopw   0x0(%rax,%rax,1)
  403198:	b8 01 00 00 00       	mov    $0x1,%eax
  40319d:	89 05 f1 96 00 00    	mov    %eax,0x96f1(%rip)        # 40c894 <__eintr_valid_flag>
  4031a3:	f0 83 0c 24 00       	lock orl $0x0,(%rsp)
  4031a8:	49 8b 10             	mov    (%r8),%rdx
  4031ab:	41 8b 80 88 00 00 00 	mov    0x88(%r8),%eax
  4031b2:	0d 00 00 00 04       	or     $0x4000000,%eax
  4031b7:	48 89 14 24          	mov    %rdx,(%rsp)
  4031bb:	49 8d 70 08          	lea    0x8(%r8),%rsi
  4031bf:	ba 08 00 00 00       	mov    $0x8,%edx
  4031c4:	48 98                	cltq   
  4031c6:	48 8d 7c 24 18       	lea    0x18(%rsp),%rdi
  4031cb:	48 89 44 24 08       	mov    %rax,0x8(%rsp)
  4031d0:	48 8d 05 d2 01 00 00 	lea    0x1d2(%rip),%rax        # 4033a9 <__restore_rt>
  4031d7:	48 89 44 24 10       	mov    %rax,0x10(%rsp)
  4031dc:	e8 e5 f8 ff ff       	call   402ac6 <memcpy>
  4031e1:	31 c0                	xor    %eax,%eax
  4031e3:	48 8d 54 24 20       	lea    0x20(%rsp),%rdx
  4031e8:	48 85 ed             	test   %rbp,%rbp
  4031eb:	48 0f 44 d0          	cmove  %rax,%rdx
  4031ef:	48 89 e6             	mov    %rsp,%rsi
  4031f2:	48 63 fb             	movslq %ebx,%rdi
  4031f5:	41 ba 08 00 00 00    	mov    $0x8,%r10d
  4031fb:	b8 0d 00 00 00       	mov    $0xd,%eax
  403200:	0f 05                	syscall 
  403202:	48 89 c3             	mov    %rax,%rbx
  403205:	48 85 ed             	test   %rbp,%rbp
  403208:	74 2b                	je     403235 <__libc_sigaction+0x125>
  40320a:	85 c0                	test   %eax,%eax
  40320c:	75 27                	jne    403235 <__libc_sigaction+0x125>
  40320e:	48 8b 44 24 20       	mov    0x20(%rsp),%rax
  403213:	48 8d 74 24 38       	lea    0x38(%rsp),%rsi
  403218:	48 8d 7d 08          	lea    0x8(%rbp),%rdi
  40321c:	ba 08 00 00 00       	mov    $0x8,%edx
  403221:	48 89 45 00          	mov    %rax,0x0(%rbp)
  403225:	48 8b 44 24 28       	mov    0x28(%rsp),%rax
  40322a:	89 85 88 00 00 00    	mov    %eax,0x88(%rbp)
  403230:	e8 91 f8 ff ff       	call   402ac6 <memcpy>
  403235:	48 63 fb             	movslq %ebx,%rdi
  403238:	e8 63 f3 ff ff       	call   4025a0 <__syscall_ret>
  40323d:	48 8b 54 24 48       	mov    0x48(%rsp),%rdx
  403242:	64 48 2b 14 25 28 00 	sub    %fs:0x28,%rdx
  403249:	00 00 
  40324b:	75 64                	jne    4032b1 <__libc_sigaction+0x1a1>
  40324d:	48 83 c4 58          	add    $0x58,%rsp
  403251:	5b                   	pop    %rbx
  403252:	5d                   	pop    %rbp
  403253:	c3                   	ret    
  403254:	0f 1f 40 00          	nopl   0x0(%rax)
  403258:	48 85 d2             	test   %rdx,%rdx
  40325b:	74 4b                	je     4032a8 <__libc_sigaction+0x198>
  40325d:	48 8d 54 24 20       	lea    0x20(%rsp),%rdx
  403262:	31 f6                	xor    %esi,%esi
  403264:	eb 8c                	jmp    4031f2 <__libc_sigaction+0xe2>
  403266:	66 2e 0f 1f 84 00 00 	cs nopw 0x0(%rax,%rax,1)
  40326d:	00 00 00 
  403270:	48 8d 74 24 20       	lea    0x20(%rsp),%rsi
  403275:	41 ba 08 00 00 00    	mov    $0x8,%r10d
  40327b:	31 d2                	xor    %edx,%edx
  40327d:	48 b8 00 00 00 00 03 	movabs $0x300000000,%rax
  403284:	00 00 00 
  403287:	48 89 44 24 20       	mov    %rax,0x20(%rsp)
  40328c:	b8 0e 00 00 00       	mov    $0xe,%eax
  403291:	0f 05                	syscall 
  403293:	c7 05 03 96 00 00 01 	movl   $0x1,0x9603(%rip)        # 40c8a0 <unmask_done>
  40329a:	00 00 00 
  40329d:	e9 dd fe ff ff       	jmp    40317f <__libc_sigaction+0x6f>
  4032a2:	66 0f 1f 44 00 00    	nopw   0x0(%rax,%rax,1)
  4032a8:	31 d2                	xor    %edx,%edx
  4032aa:	31 f6                	xor    %esi,%esi
  4032ac:	e9 41 ff ff ff       	jmp    4031f2 <__libc_sigaction+0xe2>
  4032b1:	e8 ba f1 ff ff       	call   402470 <__stack_chk_fail>
  4032b6:	66 2e 0f 1f 84 00 00 	cs nopw 0x0(%rax,%rax,1)
  4032bd:	00 00 00 

00000000004032c0 <__sigaction>:
  4032c0:	f3 0f 1e fa          	endbr64 
  4032c4:	41 55                	push   %r13
  4032c6:	41 54                	push   %r12
  4032c8:	55                   	push   %rbp
  4032c9:	48 83 ec 20          	sub    $0x20,%rsp
  4032cd:	64 48 8b 04 25 28 00 	mov    %fs:0x28,%rax
  4032d4:	00 00 
  4032d6:	48 89 44 24 18       	mov    %rax,0x18(%rsp)
  4032db:	31 c0                	xor    %eax,%eax
  4032dd:	8d 47 e0             	lea    -0x20(%rdi),%eax
  4032e0:	83 f8 02             	cmp    $0x2,%eax
  4032e3:	0f 86 a7 00 00 00    	jbe    403390 <__sigaction+0xd0>
  4032e9:	8d 47 ff             	lea    -0x1(%rdi),%eax
  4032ec:	83 f8 3f             	cmp    $0x3f,%eax
  4032ef:	0f 87 9b 00 00 00    	ja     403390 <__sigaction+0xd0>
  4032f5:	83 ff 06             	cmp    $0x6,%edi
  4032f8:	74 26                	je     403320 <__sigaction+0x60>
  4032fa:	48 8b 44 24 18       	mov    0x18(%rsp),%rax
  4032ff:	64 48 2b 04 25 28 00 	sub    %fs:0x28,%rax
  403306:	00 00 
  403308:	0f 85 95 00 00 00    	jne    4033a3 <__sigaction+0xe3>
  40330e:	48 83 c4 20          	add    $0x20,%rsp
  403312:	5d                   	pop    %rbp
  403313:	41 5c                	pop    %r12
  403315:	41 5d                	pop    %r13
  403317:	e9 f4 fd ff ff       	jmp    403110 <__libc_sigaction>
  40331c:	0f 1f 40 00          	nopl   0x0(%rax)
  403320:	48 8d 6c 24 10       	lea    0x10(%rsp),%rbp
  403325:	4c 8d 2d 9c 99 00 00 	lea    0x999c(%rip),%r13        # 40ccc8 <__abort_lock>
  40332c:	48 89 54 24 08       	mov    %rdx,0x8(%rsp)
  403331:	48 89 ef             	mov    %rbp,%rdi
  403334:	48 89 34 24          	mov    %rsi,(%rsp)
  403338:	e8 f3 56 00 00       	call   408a30 <__block_all_sigs>
  40333d:	4c 89 ef             	mov    %r13,%rdi
  403340:	e8 bb f7 ff ff       	call   402b00 <__lock>
  403345:	48 8b 54 24 08       	mov    0x8(%rsp),%rdx
  40334a:	48 8b 34 24          	mov    (%rsp),%rsi
  40334e:	bf 06 00 00 00       	mov    $0x6,%edi
  403353:	e8 b8 fd ff ff       	call   403110 <__libc_sigaction>
  403358:	4c 89 ef             	mov    %r13,%rdi
  40335b:	41 89 c4             	mov    %eax,%r12d
  40335e:	e8 8d f8 ff ff       	call   402bf0 <__unlock>
  403363:	48 89 ef             	mov    %rbp,%rdi
  403366:	e8 05 57 00 00       	call   408a70 <__restore_sigs>
  40336b:	48 8b 44 24 18       	mov    0x18(%rsp),%rax
  403370:	64 48 2b 04 25 28 00 	sub    %fs:0x28,%rax
  403377:	00 00 
  403379:	75 28                	jne    4033a3 <__sigaction+0xe3>
  40337b:	48 83 c4 20          	add    $0x20,%rsp
  40337f:	44 89 e0             	mov    %r12d,%eax
  403382:	5d                   	pop    %rbp
  403383:	41 5c                	pop    %r12
  403385:	41 5d                	pop    %r13
  403387:	c3                   	ret    
  403388:	0f 1f 84 00 00 00 00 	nopl   0x0(%rax,%rax,1)
  40338f:	00 
  403390:	e8 fb fc ff ff       	call   403090 <__errno_location>
  403395:	41 bc ff ff ff ff    	mov    $0xffffffff,%r12d
  40339b:	c7 00 16 00 00 00    	movl   $0x16,(%rax)
  4033a1:	eb c8                	jmp    40336b <__sigaction+0xab>
  4033a3:	e8 c8 f0 ff ff       	call   402470 <__stack_chk_fail>
  4033a8:	90                   	nop

00000000004033a9 <__restore_rt>:
  4033a9:	48 c7 c0 0f 00 00 00 	mov    $0xf,%rax
  4033b0:	0f 05                	syscall 
  4033b2:	66 2e 0f 1f 84 00 00 	cs nopw 0x0(%rax,%rax,1)
  4033b9:	00 00 00 
  4033bc:	0f 1f 40 00          	nopl   0x0(%rax)

00000000004033c0 <__lockfile>:
  4033c0:	f3 0f 1e fa          	endbr64 
  4033c4:	8b 87 8c 00 00 00    	mov    0x8c(%rdi),%eax
  4033ca:	45 31 c0             	xor    %r8d,%r8d
  4033cd:	64 48 8b 0c 25 00 00 	mov    %fs:0x0,%rcx
  4033d4:	00 00 
  4033d6:	44 8b 49 30          	mov    0x30(%rcx),%r9d
  4033da:	25 ff ff ff bf       	and    $0xbfffffff,%eax
  4033df:	44 39 c8             	cmp    %r9d,%eax
  4033e2:	0f 84 ae 00 00 00    	je     403496 <__lockfile+0xd6>
  4033e8:	48 89 fa             	mov    %rdi,%rdx
  4033eb:	44 89 c0             	mov    %r8d,%eax
  4033ee:	48 8d bf 8c 00 00 00 	lea    0x8c(%rdi),%rdi
  4033f5:	f0 44 0f b1 8a 8c 00 	lock cmpxchg %r9d,0x8c(%rdx)
  4033fc:	00 00 
  4033fe:	85 c0                	test   %eax,%eax
  403400:	0f 84 8a 00 00 00    	je     403490 <__lockfile+0xd0>
  403406:	41 81 c9 00 00 00 40 	or     $0x40000000,%r9d
  40340d:	44 89 c0             	mov    %r8d,%eax
  403410:	f0 44 0f b1 8a 8c 00 	lock cmpxchg %r9d,0x8c(%rdx)
  403417:	00 00 
  403419:	89 c1                	mov    %eax,%ecx
  40341b:	85 c0                	test   %eax,%eax
  40341d:	74 71                	je     403490 <__lockfile+0xd0>
  40341f:	55                   	push   %rbp
  403420:	45 31 c0             	xor    %r8d,%r8d
  403423:	bd 80 00 00 00       	mov    $0x80,%ebp
  403428:	53                   	push   %rbx
  403429:	bb ca 00 00 00       	mov    $0xca,%ebx
  40342e:	eb 18                	jmp    403448 <__lockfile+0x88>
  403430:	89 c8                	mov    %ecx,%eax
  403432:	f0 0f b1 17          	lock cmpxchg %edx,(%rdi)
  403436:	39 c8                	cmp    %ecx,%eax
  403438:	74 1e                	je     403458 <__lockfile+0x98>
  40343a:	44 89 c0             	mov    %r8d,%eax
  40343d:	f0 44 0f b1 0f       	lock cmpxchg %r9d,(%rdi)
  403442:	89 c1                	mov    %eax,%ecx
  403444:	85 c0                	test   %eax,%eax
  403446:	74 38                	je     403480 <__lockfile+0xc0>
  403448:	89 ca                	mov    %ecx,%edx
  40344a:	81 ca 00 00 00 40    	or     $0x40000000,%edx
  403450:	f7 c1 00 00 00 40    	test   $0x40000000,%ecx
  403456:	74 d8                	je     403430 <__lockfile+0x70>
  403458:	48 63 d2             	movslq %edx,%rdx
  40345b:	45 31 d2             	xor    %r10d,%r10d
  40345e:	48 89 d8             	mov    %rbx,%rax
  403461:	48 89 ee             	mov    %rbp,%rsi
  403464:	0f 05                	syscall 
  403466:	48 83 f8 da          	cmp    $0xffffffffffffffda,%rax
  40346a:	75 ce                	jne    40343a <__lockfile+0x7a>
  40346c:	45 31 d2             	xor    %r10d,%r10d
  40346f:	31 f6                	xor    %esi,%esi
  403471:	48 89 d8             	mov    %rbx,%rax
  403474:	0f 05                	syscall 
  403476:	eb c2                	jmp    40343a <__lockfile+0x7a>
  403478:	0f 1f 84 00 00 00 00 	nopl   0x0(%rax,%rax,1)
  40347f:	00 
  403480:	b8 01 00 00 00       	mov    $0x1,%eax
  403485:	5b                   	pop    %rbx
  403486:	5d                   	pop    %rbp
  403487:	c3                   	ret    
  403488:	0f 1f 84 00 00 00 00 	nopl   0x0(%rax,%rax,1)
  40348f:	00 
  403490:	41 b8 01 00 00 00    	mov    $0x1,%r8d
  403496:	44 89 c0             	mov    %r8d,%eax
  403499:	c3                   	ret    
  40349a:	66 0f 1f 44 00 00    	nopw   0x0(%rax,%rax,1)

00000000004034a0 <__unlockfile>:
  4034a0:	f3 0f 1e fa          	endbr64 
  4034a4:	48 89 fa             	mov    %rdi,%rdx
  4034a7:	31 c0                	xor    %eax,%eax
  4034a9:	48 8d bf 8c 00 00 00 	lea    0x8c(%rdi),%rdi
  4034b0:	87 82 8c 00 00 00    	xchg   %eax,0x8c(%rdx)
  4034b6:	a9 00 00 00 40       	test   $0x40000000,%eax
  4034bb:	74 1b                	je     4034d8 <__unlockfile+0x38>
  4034bd:	41 b8 ca 00 00 00    	mov    $0xca,%r8d
  4034c3:	ba 01 00 00 00       	mov    $0x1,%edx
  4034c8:	be 81 00 00 00       	mov    $0x81,%esi
  4034cd:	4c 89 c0             	mov    %r8,%rax
  4034d0:	0f 05                	syscall 
  4034d2:	48 83 f8 da          	cmp    $0xffffffffffffffda,%rax
  4034d6:	74 08                	je     4034e0 <__unlockfile+0x40>
  4034d8:	c3                   	ret    
  4034d9:	0f 1f 80 00 00 00 00 	nopl   0x0(%rax)
  4034e0:	4c 89 c0             	mov    %r8,%rax
  4034e3:	48 89 d6             	mov    %rdx,%rsi
  4034e6:	0f 05                	syscall 
  4034e8:	c3                   	ret    
  4034e9:	0f 1f 80 00 00 00 00 	nopl   0x0(%rax)

00000000004034f0 <__overflow>:
  4034f0:	f3 0f 1e fa          	endbr64 
  4034f4:	53                   	push   %rbx
  4034f5:	48 89 fb             	mov    %rdi,%rbx
  4034f8:	48 83 ec 10          	sub    $0x10,%rsp
  4034fc:	64 48 8b 04 25 28 00 	mov    %fs:0x28,%rax
  403503:	00 00 
  403505:	48 89 44 24 08       	mov    %rax,0x8(%rsp)
  40350a:	31 c0                	xor    %eax,%eax
  40350c:	48 8b 47 20          	mov    0x20(%rdi),%rax
  403510:	40 88 74 24 07       	mov    %sil,0x7(%rsp)
  403515:	48 85 c0             	test   %rax,%rax
  403518:	74 5e                	je     403578 <__overflow+0x88>
  40351a:	48 8b 53 28          	mov    0x28(%rbx),%rdx
  40351e:	48 39 c2             	cmp    %rax,%rdx
  403521:	74 0d                	je     403530 <__overflow+0x40>
  403523:	0f b6 44 24 07       	movzbl 0x7(%rsp),%eax
  403528:	3b 83 90 00 00 00    	cmp    0x90(%rbx),%eax
  40352e:	75 38                	jne    403568 <__overflow+0x78>
  403530:	48 8d 74 24 07       	lea    0x7(%rsp),%rsi
  403535:	ba 01 00 00 00       	mov    $0x1,%edx
  40353a:	48 89 df             	mov    %rbx,%rdi
  40353d:	ff 53 48             	call   *0x48(%rbx)
  403540:	48 83 f8 01          	cmp    $0x1,%rax
  403544:	75 4a                	jne    403590 <__overflow+0xa0>
  403546:	0f b6 44 24 07       	movzbl 0x7(%rsp),%eax
  40354b:	48 8b 54 24 08       	mov    0x8(%rsp),%rdx
  403550:	64 48 2b 14 25 28 00 	sub    %fs:0x28,%rdx
  403557:	00 00 
  403559:	75 3c                	jne    403597 <__overflow+0xa7>
  40355b:	48 83 c4 10          	add    $0x10,%rsp
  40355f:	5b                   	pop    %rbx
  403560:	c3                   	ret    
  403561:	0f 1f 80 00 00 00 00 	nopl   0x0(%rax)
  403568:	48 8d 72 01          	lea    0x1(%rdx),%rsi
  40356c:	48 89 73 28          	mov    %rsi,0x28(%rbx)
  403570:	88 02                	mov    %al,(%rdx)
  403572:	eb d7                	jmp    40354b <__overflow+0x5b>
  403574:	0f 1f 40 00          	nopl   0x0(%rax)
  403578:	e8 03 01 00 00       	call   403680 <__towrite>
  40357d:	85 c0                	test   %eax,%eax
  40357f:	75 0f                	jne    403590 <__overflow+0xa0>
  403581:	48 8b 43 20          	mov    0x20(%rbx),%rax
  403585:	eb 93                	jmp    40351a <__overflow+0x2a>
  403587:	66 0f 1f 84 00 00 00 	nopw   0x0(%rax,%rax,1)
  40358e:	00 00 
  403590:	b8 ff ff ff ff       	mov    $0xffffffff,%eax
  403595:	eb b4                	jmp    40354b <__overflow+0x5b>
  403597:	e8 d4 ee ff ff       	call   402470 <__stack_chk_fail>
  40359c:	0f 1f 40 00          	nopl   0x0(%rax)

00000000004035a0 <dummy>:
  4035a0:	f3 0f 1e fa          	endbr64 
  4035a4:	89 f8                	mov    %edi,%eax
  4035a6:	c3                   	ret    
  4035a7:	66 0f 1f 84 00 00 00 	nopw   0x0(%rax,%rax,1)
  4035ae:	00 00 

00000000004035b0 <__stdio_close>:
  4035b0:	f3 0f 1e fa          	endbr64 
  4035b4:	48 83 ec 08          	sub    $0x8,%rsp
  4035b8:	8b 7f 78             	mov    0x78(%rdi),%edi
  4035bb:	e8 20 f7 ff ff       	call   402ce0 <__aio_close>
  4035c0:	48 63 f8             	movslq %eax,%rdi
  4035c3:	b8 03 00 00 00       	mov    $0x3,%eax
  4035c8:	0f 05                	syscall 
  4035ca:	48 89 c7             	mov    %rax,%rdi
  4035cd:	e8 ce ef ff ff       	call   4025a0 <__syscall_ret>
  4035d2:	48 83 c4 08          	add    $0x8,%rsp
  4035d6:	c3                   	ret    
  4035d7:	66 0f 1f 84 00 00 00 	nopw   0x0(%rax,%rax,1)
  4035de:	00 00 

00000000004035e0 <__stdio_seek>:
  4035e0:	f3 0f 1e fa          	endbr64 
  4035e4:	8b 7f 78             	mov    0x78(%rdi),%edi
  4035e7:	e9 14 14 00 00       	jmp    404a00 <__lseek>
  4035ec:	0f 1f 40 00          	nopl   0x0(%rax)

00000000004035f0 <__stdout_write>:
  4035f0:	f3 0f 1e fa          	endbr64 
  4035f4:	48 83 ec 18          	sub    $0x18,%rsp
  4035f8:	49 89 f8             	mov    %rdi,%r8
  4035fb:	49 89 f1             	mov    %rsi,%r9
  4035fe:	49 89 d2             	mov    %rdx,%r10
  403601:	64 48 8b 04 25 28 00 	mov    %fs:0x28,%rax
  403608:	00 00 
  40360a:	48 89 44 24 08       	mov    %rax,0x8(%rsp)
  40360f:	48 8d 05 2a 56 00 00 	lea    0x562a(%rip),%rax        # 408c40 <__stdio_write>
  403616:	48 89 47 48          	mov    %rax,0x48(%rdi)
  40361a:	f6 07 40             	testb  $0x40,(%rdi)
  40361d:	75 18                	jne    403637 <__stdout_write+0x47>
  40361f:	48 63 7f 78          	movslq 0x78(%rdi),%rdi
  403623:	48 89 e2             	mov    %rsp,%rdx
  403626:	b8 10 00 00 00       	mov    $0x10,%eax
  40362b:	be 13 54 00 00       	mov    $0x5413,%esi
  403630:	0f 05                	syscall 
  403632:	48 85 c0             	test   %rax,%rax
  403635:	75 29                	jne    403660 <__stdout_write+0x70>
  403637:	4c 89 d2             	mov    %r10,%rdx
  40363a:	4c 89 ce             	mov    %r9,%rsi
  40363d:	4c 89 c7             	mov    %r8,%rdi
  403640:	e8 fb 55 00 00       	call   408c40 <__stdio_write>
  403645:	48 8b 54 24 08       	mov    0x8(%rsp),%rdx
  40364a:	64 48 2b 14 25 28 00 	sub    %fs:0x28,%rdx
  403651:	00 00 
  403653:	75 18                	jne    40366d <__stdout_write+0x7d>
  403655:	48 83 c4 18          	add    $0x18,%rsp
  403659:	c3                   	ret    
  40365a:	66 0f 1f 44 00 00    	nopw   0x0(%rax,%rax,1)
  403660:	41 c7 80 90 00 00 00 	movl   $0xffffffff,0x90(%r8)
  403667:	ff ff ff ff 
  40366b:	eb ca                	jmp    403637 <__stdout_write+0x47>
  40366d:	e8 fe ed ff ff       	call   402470 <__stack_chk_fail>
  403672:	66 2e 0f 1f 84 00 00 	cs nopw 0x0(%rax,%rax,1)
  403679:	00 00 00 
  40367c:	0f 1f 40 00          	nopl   0x0(%rax)

0000000000403680 <__towrite>:
  403680:	f3 0f 1e fa          	endbr64 
  403684:	8b 97 88 00 00 00    	mov    0x88(%rdi),%edx
  40368a:	8d 42 ff             	lea    -0x1(%rdx),%eax
  40368d:	09 d0                	or     %edx,%eax
  40368f:	89 87 88 00 00 00    	mov    %eax,0x88(%rdi)
  403695:	8b 07                	mov    (%rdi),%eax
  403697:	a8 08                	test   $0x8,%al
  403699:	75 2d                	jne    4036c8 <__towrite+0x48>
  40369b:	48 8b 47 58          	mov    0x58(%rdi),%rax
  40369f:	48 c7 47 10 00 00 00 	movq   $0x0,0x10(%rdi)
  4036a6:	00 
  4036a7:	48 c7 47 08 00 00 00 	movq   $0x0,0x8(%rdi)
  4036ae:	00 
  4036af:	48 89 47 38          	mov    %rax,0x38(%rdi)
  4036b3:	48 89 47 28          	mov    %rax,0x28(%rdi)
  4036b7:	48 03 47 60          	add    0x60(%rdi),%rax
  4036bb:	48 89 47 20          	mov    %rax,0x20(%rdi)
  4036bf:	31 c0                	xor    %eax,%eax
  4036c1:	c3                   	ret    
  4036c2:	66 0f 1f 44 00 00    	nopw   0x0(%rax,%rax,1)
  4036c8:	83 c8 20             	or     $0x20,%eax
  4036cb:	89 07                	mov    %eax,(%rdi)
  4036cd:	b8 ff ff ff ff       	mov    $0xffffffff,%eax
  4036d2:	c3                   	ret    
  4036d3:	66 2e 0f 1f 84 00 00 	cs nopw 0x0(%rax,%rax,1)
  4036da:	00 00 00 
  4036dd:	0f 1f 00             	nopl   (%rax)

00000000004036e0 <__towrite_needs_stdio_exit>:
  4036e0:	f3 0f 1e fa          	endbr64 
  4036e4:	e9 17 54 00 00       	jmp    408b00 <__stdio_exit>
  4036e9:	0f 1f 80 00 00 00 00 	nopl   0x0(%rax)

00000000004036f0 <fputs>:
  4036f0:	f3 0f 1e fa          	endbr64 
  4036f4:	41 54                	push   %r12
  4036f6:	49 89 f4             	mov    %rsi,%r12
  4036f9:	55                   	push   %rbp
  4036fa:	48 89 fd             	mov    %rdi,%rbp
  4036fd:	53                   	push   %rbx
  4036fe:	e8 9d 11 00 00       	call   4048a0 <strlen>
  403703:	4c 89 e1             	mov    %r12,%rcx
  403706:	48 89 ef             	mov    %rbp,%rdi
  403709:	be 01 00 00 00       	mov    $0x1,%esi
  40370e:	48 89 c2             	mov    %rax,%rdx
  403711:	48 89 c3             	mov    %rax,%rbx
  403714:	e8 f7 00 00 00       	call   403810 <fwrite>
  403719:	48 39 d8             	cmp    %rbx,%rax
  40371c:	5b                   	pop    %rbx
  40371d:	5d                   	pop    %rbp
  40371e:	0f 95 c0             	setne  %al
  403721:	41 5c                	pop    %r12
  403723:	0f b6 c0             	movzbl %al,%eax
  403726:	f7 d8                	neg    %eax
  403728:	c3                   	ret    
  403729:	0f 1f 80 00 00 00 00 	nopl   0x0(%rax)

0000000000403730 <__fwritex>:
  403730:	f3 0f 1e fa          	endbr64 
  403734:	41 56                	push   %r14
  403736:	41 55                	push   %r13
  403738:	49 89 f5             	mov    %rsi,%r13
  40373b:	41 54                	push   %r12
  40373d:	49 89 d4             	mov    %rdx,%r12
  403740:	55                   	push   %rbp
  403741:	48 89 fd             	mov    %rdi,%rbp
  403744:	53                   	push   %rbx
  403745:	48 8b 42 20          	mov    0x20(%rdx),%rax
  403749:	48 85 c0             	test   %rax,%rax
  40374c:	0f 84 96 00 00 00    	je     4037e8 <__fwritex+0xb8>
  403752:	49 8b 7c 24 28       	mov    0x28(%r12),%rdi
  403757:	48 29 f8             	sub    %rdi,%rax
  40375a:	4c 39 e8             	cmp    %r13,%rax
  40375d:	72 49                	jb     4037a8 <__fwritex+0x78>
  40375f:	41 8b 84 24 90 00 00 	mov    0x90(%r12),%eax
  403766:	00 
  403767:	4c 89 eb             	mov    %r13,%rbx
  40376a:	85 c0                	test   %eax,%eax
  40376c:	79 30                	jns    40379e <__fwritex+0x6e>
  40376e:	4d 89 ee             	mov    %r13,%r14
  403771:	4c 89 f2             	mov    %r14,%rdx
  403774:	48 89 ee             	mov    %rbp,%rsi
  403777:	e8 4a f3 ff ff       	call   402ac6 <memcpy>
  40377c:	4d 01 74 24 28       	add    %r14,0x28(%r12)
  403781:	4c 89 e8             	mov    %r13,%rax
  403784:	5b                   	pop    %rbx
  403785:	5d                   	pop    %rbp
  403786:	41 5c                	pop    %r12
  403788:	41 5d                	pop    %r13
  40378a:	41 5e                	pop    %r14
  40378c:	c3                   	ret    
  40378d:	0f 1f 00             	nopl   (%rax)
  403790:	80 7c 1d ff 0a       	cmpb   $0xa,-0x1(%rbp,%rbx,1)
  403795:	48 8d 43 ff          	lea    -0x1(%rbx),%rax
  403799:	74 25                	je     4037c0 <__fwritex+0x90>
  40379b:	48 89 c3             	mov    %rax,%rbx
  40379e:	48 85 db             	test   %rbx,%rbx
  4037a1:	75 ed                	jne    403790 <__fwritex+0x60>
  4037a3:	eb c9                	jmp    40376e <__fwritex+0x3e>
  4037a5:	0f 1f 00             	nopl   (%rax)
  4037a8:	5b                   	pop    %rbx
  4037a9:	49 8b 44 24 48       	mov    0x48(%r12),%rax
  4037ae:	4c 89 ea             	mov    %r13,%rdx
  4037b1:	48 89 ee             	mov    %rbp,%rsi
  4037b4:	4c 89 e7             	mov    %r12,%rdi
  4037b7:	5d                   	pop    %rbp
  4037b8:	41 5c                	pop    %r12
  4037ba:	41 5d                	pop    %r13
  4037bc:	41 5e                	pop    %r14
  4037be:	ff e0                	jmp    *%rax
  4037c0:	48 89 da             	mov    %rbx,%rdx
  4037c3:	48 89 ee             	mov    %rbp,%rsi
  4037c6:	4c 89 e7             	mov    %r12,%rdi
  4037c9:	41 ff 54 24 48       	call   *0x48(%r12)
  4037ce:	48 39 c3             	cmp    %rax,%rbx
  4037d1:	77 b1                	ja     403784 <__fwritex+0x54>
  4037d3:	4d 89 ee             	mov    %r13,%r14
  4037d6:	49 8b 7c 24 28       	mov    0x28(%r12),%rdi
  4037db:	48 01 dd             	add    %rbx,%rbp
  4037de:	49 29 de             	sub    %rbx,%r14
  4037e1:	eb 8e                	jmp    403771 <__fwritex+0x41>
  4037e3:	0f 1f 44 00 00       	nopl   0x0(%rax,%rax,1)
  4037e8:	48 89 d7             	mov    %rdx,%rdi
  4037eb:	e8 90 fe ff ff       	call   403680 <__towrite>
  4037f0:	85 c0                	test   %eax,%eax
  4037f2:	75 0c                	jne    403800 <__fwritex+0xd0>
  4037f4:	49 8b 44 24 20       	mov    0x20(%r12),%rax
  4037f9:	e9 54 ff ff ff       	jmp    403752 <__fwritex+0x22>
  4037fe:	66 90                	xchg   %ax,%ax
  403800:	31 c0                	xor    %eax,%eax
  403802:	eb 80                	jmp    403784 <__fwritex+0x54>
  403804:	66 2e 0f 1f 84 00 00 	cs nopw 0x0(%rax,%rax,1)
  40380b:	00 00 00 
  40380e:	66 90                	xchg   %ax,%ax

0000000000403810 <fwrite>:
  403810:	f3 0f 1e fa          	endbr64 
  403814:	41 57                	push   %r15
  403816:	31 c0                	xor    %eax,%eax
  403818:	41 56                	push   %r14
  40381a:	49 89 f6             	mov    %rsi,%r14
  40381d:	41 55                	push   %r13
  40381f:	4c 0f af f2          	imul   %rdx,%r14
  403823:	49 89 fd             	mov    %rdi,%r13
  403826:	41 54                	push   %r12
  403828:	49 89 cc             	mov    %rcx,%r12
  40382b:	55                   	push   %rbp
  40382c:	48 89 f5             	mov    %rsi,%rbp
  40382f:	53                   	push   %rbx
  403830:	48 89 d3             	mov    %rdx,%rbx
  403833:	48 83 ec 08          	sub    $0x8,%rsp
  403837:	48 85 f6             	test   %rsi,%rsi
  40383a:	48 0f 44 d8          	cmove  %rax,%rbx
  40383e:	8b 81 8c 00 00 00    	mov    0x8c(%rcx),%eax
  403844:	85 c0                	test   %eax,%eax
  403846:	79 30                	jns    403878 <fwrite+0x68>
  403848:	48 89 ca             	mov    %rcx,%rdx
  40384b:	4c 89 f6             	mov    %r14,%rsi
  40384e:	e8 dd fe ff ff       	call   403730 <__fwritex>
  403853:	49 89 c5             	mov    %rax,%r13
  403856:	48 89 d8             	mov    %rbx,%rax
  403859:	4d 39 ee             	cmp    %r13,%r14
  40385c:	74 08                	je     403866 <fwrite+0x56>
  40385e:	4c 89 e8             	mov    %r13,%rax
  403861:	31 d2                	xor    %edx,%edx
  403863:	48 f7 f5             	div    %rbp
  403866:	48 83 c4 08          	add    $0x8,%rsp
  40386a:	5b                   	pop    %rbx
  40386b:	5d                   	pop    %rbp
  40386c:	41 5c                	pop    %r12
  40386e:	41 5d                	pop    %r13
  403870:	41 5e                	pop    %r14
  403872:	41 5f                	pop    %r15
  403874:	c3                   	ret    
  403875:	0f 1f 00             	nopl   (%rax)
  403878:	48 89 cf             	mov    %rcx,%rdi
  40387b:	e8 40 fb ff ff       	call   4033c0 <__lockfile>
  403880:	4c 89 ef             	mov    %r13,%rdi
  403883:	4c 89 e2             	mov    %r12,%rdx
  403886:	4c 89 f6             	mov    %r14,%rsi
  403889:	41 89 c7             	mov    %eax,%r15d
  40388c:	e8 9f fe ff ff       	call   403730 <__fwritex>
  403891:	49 89 c5             	mov    %rax,%r13
  403894:	45 85 ff             	test   %r15d,%r15d
  403897:	74 bd                	je     403856 <fwrite+0x46>
  403899:	4c 89 e7             	mov    %r12,%rdi
  40389c:	e8 ff fb ff ff       	call   4034a0 <__unlockfile>
  4038a1:	eb b3                	jmp    403856 <fwrite+0x46>
  4038a3:	66 2e 0f 1f 84 00 00 	cs nopw 0x0(%rax,%rax,1)
  4038aa:	00 00 00 
  4038ad:	0f 1f 00             	nopl   (%rax)

00000000004038b0 <arg_n>:
  4038b0:	48 83 ec 28          	sub    $0x28,%rsp
  4038b4:	64 48 8b 04 25 28 00 	mov    %fs:0x28,%rax
  4038bb:	00 00 
  4038bd:	48 89 44 24 18       	mov    %rax,0x18(%rsp)
  4038c2:	31 c0                	xor    %eax,%eax
  4038c4:	f3 0f 6f 07          	movdqu (%rdi),%xmm0
  4038c8:	0f 11 04 24          	movups %xmm0,(%rsp)
  4038cc:	48 8b 47 10          	mov    0x10(%rdi),%rax
  4038d0:	44 8b 04 24          	mov    (%rsp),%r8d
  4038d4:	48 89 44 24 10       	mov    %rax,0x10(%rsp)
  4038d9:	83 fe 01             	cmp    $0x1,%esi
  4038dc:	76 4c                	jbe    40392a <arg_n+0x7a>
  4038de:	48 8b 54 24 08       	mov    0x8(%rsp),%rdx
  4038e3:	44 89 c0             	mov    %r8d,%eax
  4038e6:	31 c9                	xor    %ecx,%ecx
  4038e8:	31 ff                	xor    %edi,%edi
  4038ea:	eb 14                	jmp    403900 <arg_n+0x50>
  4038ec:	0f 1f 40 00          	nopl   0x0(%rax)
  4038f0:	83 ee 01             	sub    $0x1,%esi
  4038f3:	83 c0 08             	add    $0x8,%eax
  4038f6:	bf 01 00 00 00       	mov    $0x1,%edi
  4038fb:	83 fe 01             	cmp    $0x1,%esi
  4038fe:	74 16                	je     403916 <arg_n+0x66>
  403900:	83 f8 2f             	cmp    $0x2f,%eax
  403903:	76 eb                	jbe    4038f0 <arg_n+0x40>
  403905:	83 ee 01             	sub    $0x1,%esi
  403908:	48 83 c2 08          	add    $0x8,%rdx
  40390c:	b9 01 00 00 00       	mov    $0x1,%ecx
  403911:	83 fe 01             	cmp    $0x1,%esi
  403914:	75 ea                	jne    403900 <arg_n+0x50>
  403916:	84 c9                	test   %cl,%cl
  403918:	74 05                	je     40391f <arg_n+0x6f>
  40391a:	48 89 54 24 08       	mov    %rdx,0x8(%rsp)
  40391f:	40 84 ff             	test   %dil,%dil
  403922:	74 06                	je     40392a <arg_n+0x7a>
  403924:	89 04 24             	mov    %eax,(%rsp)
  403927:	41 89 c0             	mov    %eax,%r8d
  40392a:	41 83 f8 2f          	cmp    $0x2f,%r8d
  40392e:	77 30                	ja     403960 <arg_n+0xb0>
  403930:	44 89 c0             	mov    %r8d,%eax
  403933:	41 83 c0 08          	add    $0x8,%r8d
  403937:	48 03 44 24 10       	add    0x10(%rsp),%rax
  40393c:	44 89 04 24          	mov    %r8d,(%rsp)
  403940:	48 8b 00             	mov    (%rax),%rax
  403943:	48 8b 54 24 18       	mov    0x18(%rsp),%rdx
  403948:	64 48 2b 14 25 28 00 	sub    %fs:0x28,%rdx
  40394f:	00 00 
  403951:	75 1d                	jne    403970 <arg_n+0xc0>
  403953:	48 83 c4 28          	add    $0x28,%rsp
  403957:	c3                   	ret    
  403958:	0f 1f 84 00 00 00 00 	nopl   0x0(%rax,%rax,1)
  40395f:	00 
  403960:	48 8b 44 24 08       	mov    0x8(%rsp),%rax
  403965:	48 8d 50 08          	lea    0x8(%rax),%rdx
  403969:	48 89 54 24 08       	mov    %rdx,0x8(%rsp)
  40396e:	eb d0                	jmp    403940 <arg_n+0x90>
  403970:	e8 fb ea ff ff       	call   402470 <__stack_chk_fail>
  403975:	66 2e 0f 1f 84 00 00 	cs nopw 0x0(%rax,%rax,1)
  40397c:	00 00 00 
  40397f:	90                   	nop

0000000000403980 <vfscanf>:
  403980:	f3 0f 1e fa          	endbr64 
  403984:	41 57                	push   %r15
  403986:	41 56                	push   %r14
  403988:	45 31 f6             	xor    %r14d,%r14d
  40398b:	41 55                	push   %r13
  40398d:	49 89 fd             	mov    %rdi,%r13
  403990:	41 54                	push   %r12
  403992:	55                   	push   %rbp
  403993:	48 89 f5             	mov    %rsi,%rbp
  403996:	53                   	push   %rbx
  403997:	48 81 ec 78 01 00 00 	sub    $0x178,%rsp
  40399e:	48 89 14 24          	mov    %rdx,(%rsp)
  4039a2:	64 48 8b 04 25 28 00 	mov    %fs:0x28,%rax
  4039a9:	00 00 
  4039ab:	48 89 84 24 68 01 00 	mov    %rax,0x168(%rsp)
  4039b2:	00 
  4039b3:	8b 87 8c 00 00 00    	mov    0x8c(%rdi),%eax
  4039b9:	85 c0                	test   %eax,%eax
  4039bb:	78 08                	js     4039c5 <vfscanf+0x45>
  4039bd:	e8 fe f9 ff ff       	call   4033c0 <__lockfile>
  4039c2:	41 89 c6             	mov    %eax,%r14d
  4039c5:	49 83 7d 08 00       	cmpq   $0x0,0x8(%r13)
  4039ca:	0f 84 a0 04 00 00    	je     403e70 <vfscanf+0x4f0>
  4039d0:	0f b6 45 00          	movzbl 0x0(%rbp),%eax
  4039d4:	84 c0                	test   %al,%al
  4039d6:	0f 84 84 09 00 00    	je     404360 <vfscanf+0x9e0>
  4039dc:	48 8d 74 24 53       	lea    0x53(%rsp),%rsi
  4039e1:	31 db                	xor    %ebx,%ebx
  4039e3:	45 31 e4             	xor    %r12d,%r12d
  4039e6:	48 89 74 24 08       	mov    %rsi,0x8(%rsp)
  4039eb:	0f b6 d0             	movzbl %al,%edx
  4039ee:	83 ea 09             	sub    $0x9,%edx
  4039f1:	83 fa 04             	cmp    $0x4,%edx
  4039f4:	0f 86 aa 00 00 00    	jbe    403aa4 <vfscanf+0x124>
  4039fa:	3c 20                	cmp    $0x20,%al
  4039fc:	0f 84 a2 00 00 00    	je     403aa4 <vfscanf+0x124>
  403a02:	3c 25                	cmp    $0x25,%al
  403a04:	75 0d                	jne    403a13 <vfscanf+0x93>
  403a06:	0f b6 55 01          	movzbl 0x1(%rbp),%edx
  403a0a:	80 fa 25             	cmp    $0x25,%dl
  403a0d:	0f 85 45 01 00 00    	jne    403b58 <vfscanf+0x1d8>
  403a13:	31 f6                	xor    %esi,%esi
  403a15:	4c 89 ef             	mov    %r13,%rdi
  403a18:	e8 a3 2c 00 00       	call   4066c0 <__shlim>
  403a1d:	0f b6 55 00          	movzbl 0x0(%rbp),%edx
  403a21:	80 fa 25             	cmp    $0x25,%dl
  403a24:	0f 84 66 04 00 00    	je     403e90 <vfscanf+0x510>
  403a2a:	49 8b 45 08          	mov    0x8(%r13),%rax
  403a2e:	49 3b 85 b8 00 00 00 	cmp    0xb8(%r13),%rax
  403a35:	0f 84 a5 04 00 00    	je     403ee0 <vfscanf+0x560>
  403a3b:	48 8d 48 01          	lea    0x1(%rax),%rcx
  403a3f:	49 89 4d 08          	mov    %rcx,0x8(%r13)
  403a43:	0f b6 00             	movzbl (%rax),%eax
  403a46:	39 c2                	cmp    %eax,%edx
  403a48:	0f 84 12 04 00 00    	je     403e60 <vfscanf+0x4e0>
  403a4e:	49 83 bd c0 00 00 00 	cmpq   $0x0,0xc0(%r13)
  403a55:	00 
  403a56:	78 05                	js     403a5d <vfscanf+0xdd>
  403a58:	49 83 6d 08 01       	subq   $0x1,0x8(%r13)
  403a5d:	85 c0                	test   %eax,%eax
  403a5f:	0f 88 cb 00 00 00    	js     403b30 <vfscanf+0x1b0>
  403a65:	45 85 f6             	test   %r14d,%r14d
  403a68:	0f 85 da 00 00 00    	jne    403b48 <vfscanf+0x1c8>
  403a6e:	48 8b 84 24 68 01 00 	mov    0x168(%rsp),%rax
  403a75:	00 
  403a76:	64 48 2b 04 25 28 00 	sub    %fs:0x28,%rax
  403a7d:	00 00 
  403a7f:	0f 85 d8 0d 00 00    	jne    40485d <vfscanf+0xedd>
  403a85:	48 81 c4 78 01 00 00 	add    $0x178,%rsp
  403a8c:	44 89 e0             	mov    %r12d,%eax
  403a8f:	5b                   	pop    %rbx
  403a90:	5d                   	pop    %rbp
  403a91:	41 5c                	pop    %r12
  403a93:	41 5d                	pop    %r13
  403a95:	41 5e                	pop    %r14
  403a97:	41 5f                	pop    %r15
  403a99:	c3                   	ret    
  403a9a:	66 0f 1f 44 00 00    	nopw   0x0(%rax,%rax,1)
  403aa0:	48 83 c5 01          	add    $0x1,%rbp
  403aa4:	0f b6 45 01          	movzbl 0x1(%rbp),%eax
  403aa8:	89 c2                	mov    %eax,%edx
  403aaa:	83 e8 09             	sub    $0x9,%eax
  403aad:	83 f8 04             	cmp    $0x4,%eax
  403ab0:	76 ee                	jbe    403aa0 <vfscanf+0x120>
  403ab2:	80 fa 20             	cmp    $0x20,%dl
  403ab5:	74 e9                	je     403aa0 <vfscanf+0x120>
  403ab7:	31 f6                	xor    %esi,%esi
  403ab9:	4c 89 ef             	mov    %r13,%rdi
  403abc:	e8 ff 2b 00 00       	call   4066c0 <__shlim>
  403ac1:	49 8b 45 08          	mov    0x8(%r13),%rax
  403ac5:	0f 1f 00             	nopl   (%rax)
  403ac8:	49 39 85 b8 00 00 00 	cmp    %rax,0xb8(%r13)
  403acf:	0f 84 5b 01 00 00    	je     403c30 <vfscanf+0x2b0>
  403ad5:	48 8d 48 01          	lea    0x1(%rax),%rcx
  403ad9:	49 89 4d 08          	mov    %rcx,0x8(%r13)
  403add:	0f b6 10             	movzbl (%rax),%edx
  403ae0:	48 89 c8             	mov    %rcx,%rax
  403ae3:	8d 4a f7             	lea    -0x9(%rdx),%ecx
  403ae6:	83 f9 04             	cmp    $0x4,%ecx
  403ae9:	76 dd                	jbe    403ac8 <vfscanf+0x148>
  403aeb:	83 fa 20             	cmp    $0x20,%edx
  403aee:	74 d8                	je     403ac8 <vfscanf+0x148>
  403af0:	49 83 bd c0 00 00 00 	cmpq   $0x0,0xc0(%r13)
  403af7:	00 
  403af8:	78 08                	js     403b02 <vfscanf+0x182>
  403afa:	48 83 e8 01          	sub    $0x1,%rax
  403afe:	49 89 45 08          	mov    %rax,0x8(%r13)
  403b02:	49 2b 45 58          	sub    0x58(%r13),%rax
  403b06:	49 03 85 c8 00 00 00 	add    0xc8(%r13),%rax
  403b0d:	49 89 e8             	mov    %rbp,%r8
  403b10:	48 01 c3             	add    %rax,%rbx
  403b13:	41 0f b6 40 01       	movzbl 0x1(%r8),%eax
  403b18:	49 8d 68 01          	lea    0x1(%r8),%rbp
  403b1c:	84 c0                	test   %al,%al
  403b1e:	0f 85 c7 fe ff ff    	jne    4039eb <vfscanf+0x6b>
  403b24:	e9 3c ff ff ff       	jmp    403a65 <vfscanf+0xe5>
  403b29:	0f 1f 80 00 00 00 00 	nopl   0x0(%rax)
  403b30:	45 85 e4             	test   %r12d,%r12d
  403b33:	0f 85 2c ff ff ff    	jne    403a65 <vfscanf+0xe5>
  403b39:	41 bc ff ff ff ff    	mov    $0xffffffff,%r12d
  403b3f:	45 85 f6             	test   %r14d,%r14d
  403b42:	0f 84 26 ff ff ff    	je     403a6e <vfscanf+0xee>
  403b48:	4c 89 ef             	mov    %r13,%rdi
  403b4b:	e8 50 f9 ff ff       	call   4034a0 <__unlockfile>
  403b50:	e9 19 ff ff ff       	jmp    403a6e <vfscanf+0xee>
  403b55:	0f 1f 00             	nopl   (%rax)
  403b58:	80 fa 2a             	cmp    $0x2a,%dl
  403b5b:	0f 84 e7 00 00 00    	je     403c48 <vfscanf+0x2c8>
  403b61:	0f b6 c2             	movzbl %dl,%eax
  403b64:	8d 70 d0             	lea    -0x30(%rax),%esi
  403b67:	83 fe 09             	cmp    $0x9,%esi
  403b6a:	77 0a                	ja     403b76 <vfscanf+0x1f6>
  403b6c:	80 7d 02 24          	cmpb   $0x24,0x2(%rbp)
  403b70:	0f 84 ca 07 00 00    	je     404340 <vfscanf+0x9c0>
  403b76:	4c 8b 1c 24          	mov    (%rsp),%r11
  403b7a:	41 8b 0b             	mov    (%r11),%ecx
  403b7d:	83 f9 2f             	cmp    $0x2f,%ecx
  403b80:	0f 87 e2 03 00 00    	ja     403f68 <vfscanf+0x5e8>
  403b86:	89 cf                	mov    %ecx,%edi
  403b88:	83 c1 08             	add    $0x8,%ecx
  403b8b:	49 03 7b 10          	add    0x10(%r11),%rdi
  403b8f:	41 89 0b             	mov    %ecx,(%r11)
  403b92:	48 8b 3f             	mov    (%rdi),%rdi
  403b95:	4c 8d 45 01          	lea    0x1(%rbp),%r8
  403b99:	48 89 7c 24 10       	mov    %rdi,0x10(%rsp)
  403b9e:	45 31 ff             	xor    %r15d,%r15d
  403ba1:	83 fe 09             	cmp    $0x9,%esi
  403ba4:	77 25                	ja     403bcb <vfscanf+0x24b>
  403ba6:	66 2e 0f 1f 84 00 00 	cs nopw 0x0(%rax,%rax,1)
  403bad:	00 00 00 
  403bb0:	43 8d 14 bf          	lea    (%r15,%r15,4),%edx
  403bb4:	49 83 c0 01          	add    $0x1,%r8
  403bb8:	44 8d 7c 50 d0       	lea    -0x30(%rax,%rdx,2),%r15d
  403bbd:	41 0f b6 00          	movzbl (%r8),%eax
  403bc1:	8d 48 d0             	lea    -0x30(%rax),%ecx
  403bc4:	89 c2                	mov    %eax,%edx
  403bc6:	83 f9 09             	cmp    $0x9,%ecx
  403bc9:	76 e5                	jbe    403bb0 <vfscanf+0x230>
  403bcb:	c7 44 24 18 00 00 00 	movl   $0x0,0x18(%rsp)
  403bd2:	00 
  403bd3:	80 fa 6d             	cmp    $0x6d,%dl
  403bd6:	75 25                	jne    403bfd <vfscanf+0x27d>
  403bd8:	48 c7 44 24 20 00 00 	movq   $0x0,0x20(%rsp)
  403bdf:	00 00 
  403be1:	31 c0                	xor    %eax,%eax
  403be3:	49 83 c0 01          	add    $0x1,%r8
  403be7:	48 83 7c 24 10 00    	cmpq   $0x0,0x10(%rsp)
  403bed:	48 c7 44 24 28 00 00 	movq   $0x0,0x28(%rsp)
  403bf4:	00 00 
  403bf6:	0f 95 c0             	setne  %al
  403bf9:	89 44 24 18          	mov    %eax,0x18(%rsp)
  403bfd:	41 0f b6 00          	movzbl (%r8),%eax
  403c01:	49 8d 70 01          	lea    0x1(%r8),%rsi
  403c05:	3c 6a                	cmp    $0x6a,%al
  403c07:	0f 87 fb 01 00 00    	ja     403e08 <vfscanf+0x488>
  403c0d:	3c 52                	cmp    $0x52,%al
  403c0f:	0f 87 ab 01 00 00    	ja     403dc0 <vfscanf+0x440>
  403c15:	3c 4c                	cmp    $0x4c,%al
  403c17:	75 4f                	jne    403c68 <vfscanf+0x2e8>
  403c19:	41 0f b6 40 01       	movzbl 0x1(%r8),%eax
  403c1e:	c7 44 24 1c 02 00 00 	movl   $0x2,0x1c(%rsp)
  403c25:	00 
  403c26:	49 89 f0             	mov    %rsi,%r8
  403c29:	e9 d2 02 00 00       	jmp    403f00 <vfscanf+0x580>
  403c2e:	66 90                	xchg   %ax,%ax
  403c30:	4c 89 ef             	mov    %r13,%rdi
  403c33:	e8 c8 2a 00 00       	call   406700 <__shgetc>
  403c38:	89 c2                	mov    %eax,%edx
  403c3a:	49 8b 45 08          	mov    0x8(%r13),%rax
  403c3e:	e9 a0 fe ff ff       	jmp    403ae3 <vfscanf+0x163>
  403c43:	0f 1f 44 00 00       	nopl   0x0(%rax,%rax,1)
  403c48:	0f b6 45 02          	movzbl 0x2(%rbp),%eax
  403c4c:	4c 8d 45 02          	lea    0x2(%rbp),%r8
  403c50:	48 c7 44 24 10 00 00 	movq   $0x0,0x10(%rsp)
  403c57:	00 00 
  403c59:	89 c2                	mov    %eax,%edx
  403c5b:	8d 70 d0             	lea    -0x30(%rax),%esi
  403c5e:	e9 3b ff ff ff       	jmp    403b9e <vfscanf+0x21e>
  403c63:	0f 1f 44 00 00       	nopl   0x0(%rax,%rax,1)
  403c68:	76 3e                	jbe    403ca8 <vfscanf+0x328>
  403c6a:	66 0f 1f 44 00 00    	nopw   0x0(%rax,%rax,1)
  403c70:	45 85 e4             	test   %r12d,%r12d
  403c73:	b8 ff ff ff ff       	mov    $0xffffffff,%eax
  403c78:	44 0f 44 e0          	cmove  %eax,%r12d
  403c7c:	eb 02                	jmp    403c80 <vfscanf+0x300>
  403c7e:	dd d8                	fstp   %st(0)
  403c80:	8b 74 24 18          	mov    0x18(%rsp),%esi
  403c84:	85 f6                	test   %esi,%esi
  403c86:	0f 84 d9 fd ff ff    	je     403a65 <vfscanf+0xe5>
  403c8c:	48 8b 7c 24 28       	mov    0x28(%rsp),%rdi
  403c91:	e8 3a 2b 00 00       	call   4067d0 <free>
  403c96:	48 8b 7c 24 20       	mov    0x20(%rsp),%rdi
  403c9b:	e8 30 2b 00 00       	call   4067d0 <free>
  403ca0:	e9 c0 fd ff ff       	jmp    403a65 <vfscanf+0xe5>
  403ca5:	0f 1f 00             	nopl   (%rax)
  403ca8:	3c 43                	cmp    $0x43,%al
  403caa:	0f 84 d0 02 00 00    	je     403f80 <vfscanf+0x600>
  403cb0:	0f 86 fa 00 00 00    	jbe    403db0 <vfscanf+0x430>
  403cb6:	8d 50 bb             	lea    -0x45(%rax),%edx
  403cb9:	80 fa 02             	cmp    $0x2,%dl
  403cbc:	77 b2                	ja     403c70 <vfscanf+0x2f0>
  403cbe:	c7 44 24 1c 00 00 00 	movl   $0x0,0x1c(%rsp)
  403cc5:	00 
  403cc6:	0f b6 e8             	movzbl %al,%ebp
  403cc9:	3c 63                	cmp    $0x63,%al
  403ccb:	0f 84 b7 02 00 00    	je     403f88 <vfscanf+0x608>
  403cd1:	83 fd 6e             	cmp    $0x6e,%ebp
  403cd4:	0f 84 ee 05 00 00    	je     4042c8 <vfscanf+0x948>
  403cda:	83 fd 5b             	cmp    $0x5b,%ebp
  403cdd:	74 69                	je     403d48 <vfscanf+0x3c8>
  403cdf:	31 f6                	xor    %esi,%esi
  403ce1:	4c 89 ef             	mov    %r13,%rdi
  403ce4:	4c 89 44 24 30       	mov    %r8,0x30(%rsp)
  403ce9:	e8 d2 29 00 00       	call   4066c0 <__shlim>
  403cee:	49 8b 45 08          	mov    0x8(%r13),%rax
  403cf2:	4c 8b 44 24 30       	mov    0x30(%rsp),%r8
  403cf7:	66 0f 1f 84 00 00 00 	nopw   0x0(%rax,%rax,1)
  403cfe:	00 00 
  403d00:	49 39 85 b8 00 00 00 	cmp    %rax,0xb8(%r13)
  403d07:	0f 84 3b 02 00 00    	je     403f48 <vfscanf+0x5c8>
  403d0d:	48 8d 48 01          	lea    0x1(%rax),%rcx
  403d11:	49 89 4d 08          	mov    %rcx,0x8(%r13)
  403d15:	0f b6 10             	movzbl (%rax),%edx
  403d18:	48 89 c8             	mov    %rcx,%rax
  403d1b:	8d 4a f7             	lea    -0x9(%rdx),%ecx
  403d1e:	83 f9 04             	cmp    $0x4,%ecx
  403d21:	76 dd                	jbe    403d00 <vfscanf+0x380>
  403d23:	83 fa 20             	cmp    $0x20,%edx
  403d26:	74 d8                	je     403d00 <vfscanf+0x380>
  403d28:	49 83 bd c0 00 00 00 	cmpq   $0x0,0xc0(%r13)
  403d2f:	00 
  403d30:	78 08                	js     403d3a <vfscanf+0x3ba>
  403d32:	48 83 e8 01          	sub    $0x1,%rax
  403d36:	49 89 45 08          	mov    %rax,0x8(%r13)
  403d3a:	49 2b 45 58          	sub    0x58(%r13),%rax
  403d3e:	49 03 85 c8 00 00 00 	add    0xc8(%r13),%rax
  403d45:	48 01 c3             	add    %rax,%rbx
  403d48:	49 63 c7             	movslq %r15d,%rax
  403d4b:	4c 89 ef             	mov    %r13,%rdi
  403d4e:	4c 89 44 24 30       	mov    %r8,0x30(%rsp)
  403d53:	48 89 c6             	mov    %rax,%rsi
  403d56:	48 89 44 24 38       	mov    %rax,0x38(%rsp)
  403d5b:	e8 60 29 00 00       	call   4066c0 <__shlim>
  403d60:	49 8b 45 08          	mov    0x8(%r13),%rax
  403d64:	49 3b 85 b8 00 00 00 	cmp    0xb8(%r13),%rax
  403d6b:	4c 8b 44 24 30       	mov    0x30(%rsp),%r8
  403d70:	0f 84 aa 05 00 00    	je     404320 <vfscanf+0x9a0>
  403d76:	48 83 c0 01          	add    $0x1,%rax
  403d7a:	49 89 45 08          	mov    %rax,0x8(%r13)
  403d7e:	49 83 bd c0 00 00 00 	cmpq   $0x0,0xc0(%r13)
  403d85:	00 
  403d86:	78 05                	js     403d8d <vfscanf+0x40d>
  403d88:	49 83 6d 08 01       	subq   $0x1,0x8(%r13)
  403d8d:	8d 45 bf             	lea    -0x41(%rbp),%eax
  403d90:	83 f8 37             	cmp    $0x37,%eax
  403d93:	0f 87 07 02 00 00    	ja     403fa0 <vfscanf+0x620>
  403d99:	48 8d 3d 44 65 00 00 	lea    0x6544(%rip),%rdi        # 40a2e4 <cookie+0x10>
  403da0:	48 63 04 87          	movslq (%rdi,%rax,4),%rax
  403da4:	48 01 f8             	add    %rdi,%rax
  403da7:	3e ff e0             	notrack jmp *%rax
  403daa:	66 0f 1f 44 00 00    	nopw   0x0(%rax,%rax,1)
  403db0:	3c 41                	cmp    $0x41,%al
  403db2:	0f 85 b8 fe ff ff    	jne    403c70 <vfscanf+0x2f0>
  403db8:	e9 01 ff ff ff       	jmp    403cbe <vfscanf+0x33e>
  403dbd:	0f 1f 00             	nopl   (%rax)
  403dc0:	8d 48 ad             	lea    -0x53(%rax),%ecx
  403dc3:	ba 01 00 00 00       	mov    $0x1,%edx
  403dc8:	48 d3 e2             	shl    %cl,%rdx
  403dcb:	f7 c2 21 41 5f 00    	test   $0x5f4121,%edx
  403dd1:	0f 85 21 01 00 00    	jne    403ef8 <vfscanf+0x578>
  403dd7:	3c 6a                	cmp    $0x6a,%al
  403dd9:	0f 84 ce 04 00 00    	je     4042ad <vfscanf+0x92d>
  403ddf:	3c 68                	cmp    $0x68,%al
  403de1:	0f 85 89 fe ff ff    	jne    403c70 <vfscanf+0x2f0>
  403de7:	41 0f b6 40 01       	movzbl 0x1(%r8),%eax
  403dec:	3c 68                	cmp    $0x68,%al
  403dee:	0f 84 9d 05 00 00    	je     404391 <vfscanf+0xa11>
  403df4:	c7 44 24 1c ff ff ff 	movl   $0xffffffff,0x1c(%rsp)
  403dfb:	ff 
  403dfc:	49 89 f0             	mov    %rsi,%r8
  403dff:	e9 fc 00 00 00       	jmp    403f00 <vfscanf+0x580>
  403e04:	0f 1f 40 00          	nopl   0x0(%rax)
  403e08:	8d 48 94             	lea    -0x6c(%rax),%ecx
  403e0b:	80 f9 0e             	cmp    $0xe,%cl
  403e0e:	0f 87 5c fe ff ff    	ja     403c70 <vfscanf+0x2f0>
  403e14:	ba 01 00 00 00       	mov    $0x1,%edx
  403e19:	48 d3 e2             	shl    %cl,%rdx
  403e1c:	f7 c2 9c 12 00 00    	test   $0x129c,%edx
  403e22:	0f 85 96 fe ff ff    	jne    403cbe <vfscanf+0x33e>
  403e28:	f6 c6 41             	test   $0x41,%dh
  403e2b:	0f 85 67 04 00 00    	jne    404298 <vfscanf+0x918>
  403e31:	83 e2 01             	and    $0x1,%edx
  403e34:	0f 84 36 fe ff ff    	je     403c70 <vfscanf+0x2f0>
  403e3a:	41 0f b6 40 01       	movzbl 0x1(%r8),%eax
  403e3f:	3c 6c                	cmp    $0x6c,%al
  403e41:	0f 84 34 05 00 00    	je     40437b <vfscanf+0x9fb>
  403e47:	c7 44 24 1c 01 00 00 	movl   $0x1,0x1c(%rsp)
  403e4e:	00 
  403e4f:	49 89 f0             	mov    %rsi,%r8
  403e52:	e9 a9 00 00 00       	jmp    403f00 <vfscanf+0x580>
  403e57:	66 0f 1f 84 00 00 00 	nopw   0x0(%rax,%rax,1)
  403e5e:	00 00 
  403e60:	49 8b 45 08          	mov    0x8(%r13),%rax
  403e64:	e9 99 fc ff ff       	jmp    403b02 <vfscanf+0x182>
  403e69:	0f 1f 80 00 00 00 00 	nopl   0x0(%rax)
  403e70:	4c 89 ef             	mov    %r13,%rdi
  403e73:	e8 f8 4e 00 00       	call   408d70 <__toread>
  403e78:	49 83 7d 08 00       	cmpq   $0x0,0x8(%r13)
  403e7d:	0f 85 4d fb ff ff    	jne    4039d0 <vfscanf+0x50>
  403e83:	41 bc ff ff ff ff    	mov    $0xffffffff,%r12d
  403e89:	e9 b1 fc ff ff       	jmp    403b3f <vfscanf+0x1bf>
  403e8e:	66 90                	xchg   %ax,%ax
  403e90:	4c 8d 7d 01          	lea    0x1(%rbp),%r15
  403e94:	0f 1f 40 00          	nopl   0x0(%rax)
  403e98:	49 8b 45 08          	mov    0x8(%r13),%rax
  403e9c:	49 3b 85 b8 00 00 00 	cmp    0xb8(%r13),%rax
  403ea3:	74 2b                	je     403ed0 <vfscanf+0x550>
  403ea5:	48 8d 50 01          	lea    0x1(%rax),%rdx
  403ea9:	49 89 55 08          	mov    %rdx,0x8(%r13)
  403ead:	0f b6 00             	movzbl (%rax),%eax
  403eb0:	8d 50 f7             	lea    -0x9(%rax),%edx
  403eb3:	83 fa 04             	cmp    $0x4,%edx
  403eb6:	76 e0                	jbe    403e98 <vfscanf+0x518>
  403eb8:	83 f8 20             	cmp    $0x20,%eax
  403ebb:	74 db                	je     403e98 <vfscanf+0x518>
  403ebd:	0f b6 55 01          	movzbl 0x1(%rbp),%edx
  403ec1:	4c 89 fd             	mov    %r15,%rbp
  403ec4:	e9 7d fb ff ff       	jmp    403a46 <vfscanf+0xc6>
  403ec9:	0f 1f 80 00 00 00 00 	nopl   0x0(%rax)
  403ed0:	4c 89 ef             	mov    %r13,%rdi
  403ed3:	e8 28 28 00 00       	call   406700 <__shgetc>
  403ed8:	eb d6                	jmp    403eb0 <vfscanf+0x530>
  403eda:	66 0f 1f 44 00 00    	nopw   0x0(%rax,%rax,1)
  403ee0:	4c 89 ef             	mov    %r13,%rdi
  403ee3:	e8 18 28 00 00       	call   406700 <__shgetc>
  403ee8:	0f b6 55 00          	movzbl 0x0(%rbp),%edx
  403eec:	e9 55 fb ff ff       	jmp    403a46 <vfscanf+0xc6>
  403ef1:	0f 1f 80 00 00 00 00 	nopl   0x0(%rax)
  403ef8:	c7 44 24 1c 00 00 00 	movl   $0x0,0x1c(%rsp)
  403eff:	00 
  403f00:	89 c2                	mov    %eax,%edx
  403f02:	83 e2 2f             	and    $0x2f,%edx
  403f05:	80 fa 03             	cmp    $0x3,%dl
  403f08:	0f 85 b8 fd ff ff    	jne    403cc6 <vfscanf+0x346>
  403f0e:	83 c8 20             	or     $0x20,%eax
  403f11:	c7 44 24 1c 01 00 00 	movl   $0x1,0x1c(%rsp)
  403f18:	00 
  403f19:	0f b6 e8             	movzbl %al,%ebp
  403f1c:	3c 63                	cmp    $0x63,%al
  403f1e:	74 68                	je     403f88 <vfscanf+0x608>
  403f20:	83 fd 6e             	cmp    $0x6e,%ebp
  403f23:	0f 85 b1 fd ff ff    	jne    403cda <vfscanf+0x35a>
  403f29:	48 83 7c 24 10 00    	cmpq   $0x0,0x10(%rsp)
  403f2f:	0f 84 de fb ff ff    	je     403b13 <vfscanf+0x193>
  403f35:	48 8b 44 24 10       	mov    0x10(%rsp),%rax
  403f3a:	48 89 18             	mov    %rbx,(%rax)
  403f3d:	e9 d1 fb ff ff       	jmp    403b13 <vfscanf+0x193>
  403f42:	66 0f 1f 44 00 00    	nopw   0x0(%rax,%rax,1)
  403f48:	4c 89 ef             	mov    %r13,%rdi
  403f4b:	4c 89 44 24 30       	mov    %r8,0x30(%rsp)
  403f50:	e8 ab 27 00 00       	call   406700 <__shgetc>
  403f55:	4c 8b 44 24 30       	mov    0x30(%rsp),%r8
  403f5a:	89 c2                	mov    %eax,%edx
  403f5c:	49 8b 45 08          	mov    0x8(%r13),%rax
  403f60:	e9 b6 fd ff ff       	jmp    403d1b <vfscanf+0x39b>
  403f65:	0f 1f 00             	nopl   (%rax)
  403f68:	4c 8b 14 24          	mov    (%rsp),%r10
  403f6c:	49 8b 7a 08          	mov    0x8(%r10),%rdi
  403f70:	48 8d 4f 08          	lea    0x8(%rdi),%rcx
  403f74:	49 89 4a 08          	mov    %rcx,0x8(%r10)
  403f78:	e9 15 fc ff ff       	jmp    403b92 <vfscanf+0x212>
  403f7d:	0f 1f 00             	nopl   (%rax)
  403f80:	c7 44 24 1c 01 00 00 	movl   $0x1,0x1c(%rsp)
  403f87:	00 
  403f88:	45 85 ff             	test   %r15d,%r15d
  403f8b:	b8 01 00 00 00       	mov    $0x1,%eax
  403f90:	bd 63 00 00 00       	mov    $0x63,%ebp
  403f95:	44 0f 4e f8          	cmovle %eax,%r15d
  403f99:	e9 aa fd ff ff       	jmp    403d48 <vfscanf+0x3c8>
  403f9e:	66 90                	xchg   %ax,%ax
  403fa0:	49 8b 45 08          	mov    0x8(%r13),%rax
  403fa4:	49 2b 45 58          	sub    0x58(%r13),%rax
  403fa8:	49 03 85 c8 00 00 00 	add    0xc8(%r13),%rax
  403faf:	48 01 c3             	add    %rax,%rbx
  403fb2:	48 83 7c 24 10 00    	cmpq   $0x0,0x10(%rsp)
  403fb8:	0f 84 55 fb ff ff    	je     403b13 <vfscanf+0x193>
  403fbe:	66 90                	xchg   %ax,%ax
  403fc0:	41 83 c4 01          	add    $0x1,%r12d
  403fc4:	e9 4a fb ff ff       	jmp    403b13 <vfscanf+0x193>
  403fc9:	0f 1f 80 00 00 00 00 	nopl   0x0(%rax)
  403fd0:	44 8b 7c 24 1c       	mov    0x1c(%rsp),%r15d
  403fd5:	31 d2                	xor    %edx,%edx
  403fd7:	4c 89 ef             	mov    %r13,%rdi
  403fda:	4c 89 44 24 30       	mov    %r8,0x30(%rsp)
  403fdf:	44 89 fe             	mov    %r15d,%esi
  403fe2:	e8 f9 17 00 00       	call   4057e0 <__floatscan>
  403fe7:	49 8b 45 08          	mov    0x8(%r13),%rax
  403feb:	49 2b 45 58          	sub    0x58(%r13),%rax
  403fef:	49 03 85 c8 00 00 00 	add    0xc8(%r13),%rax
  403ff6:	0f 84 82 fc ff ff    	je     403c7e <vfscanf+0x2fe>
  403ffc:	48 83 7c 24 10 00    	cmpq   $0x0,0x10(%rsp)
  404002:	4c 8b 44 24 30       	mov    0x30(%rsp),%r8
  404007:	0f 84 64 03 00 00    	je     404371 <vfscanf+0x9f1>
  40400d:	41 83 ff 01          	cmp    $0x1,%r15d
  404011:	0f 84 51 06 00 00    	je     404668 <vfscanf+0xce8>
  404017:	41 83 ff 02          	cmp    $0x2,%r15d
  40401b:	0f 84 5f 06 00 00    	je     404680 <vfscanf+0xd00>
  404021:	45 85 ff             	test   %r15d,%r15d
  404024:	0f 84 4a 06 00 00    	je     404674 <vfscanf+0xcf4>
  40402a:	dd d8                	fstp   %st(0)
  40402c:	0f 1f 40 00          	nopl   0x0(%rax)
  404030:	48 01 c3             	add    %rax,%rbx
  404033:	eb 8b                	jmp    403fc0 <vfscanf+0x640>
  404035:	89 e8                	mov    %ebp,%eax
  404037:	83 e0 ef             	and    $0xffffffef,%eax
  40403a:	83 f8 63             	cmp    $0x63,%eax
  40403d:	0f 85 64 03 00 00    	jne    4043a7 <vfscanf+0xa27>
  404043:	48 8d 7c 24 60       	lea    0x60(%rsp),%rdi
  404048:	ba 01 01 00 00       	mov    $0x101,%edx
  40404d:	be ff ff ff ff       	mov    $0xffffffff,%esi
  404052:	4c 89 44 24 20       	mov    %r8,0x20(%rsp)
  404057:	e8 c1 08 00 00       	call   40491d <memset>
  40405c:	41 83 c7 01          	add    $0x1,%r15d
  404060:	83 fd 73             	cmp    $0x73,%ebp
  404063:	c6 44 24 60 00       	movb   $0x0,0x60(%rsp)
  404068:	4c 8b 44 24 20       	mov    0x20(%rsp),%r8
  40406d:	75 1b                	jne    40408a <vfscanf+0x70a>
  40406f:	c7 44 24 6a 00 00 00 	movl   $0x0,0x6a(%rsp)
  404076:	00 
  404077:	41 bf 1f 00 00 00    	mov    $0x1f,%r15d
  40407d:	c6 44 24 6e 00       	movb   $0x0,0x6e(%rsp)
  404082:	c6 84 24 81 00 00 00 	movb   $0x0,0x81(%rsp)
  404089:	00 
  40408a:	83 7c 24 1c 01       	cmpl   $0x1,0x1c(%rsp)
  40408f:	0f 84 86 04 00 00    	je     40451b <vfscanf+0xb9b>
  404095:	8b 7c 24 18          	mov    0x18(%rsp),%edi
  404099:	85 ff                	test   %edi,%edi
  40409b:	0f 85 97 06 00 00    	jne    404738 <vfscanf+0xdb8>
  4040a1:	49 8b 55 08          	mov    0x8(%r13),%rdx
  4040a5:	45 31 c9             	xor    %r9d,%r9d
  4040a8:	48 83 7c 24 10 00    	cmpq   $0x0,0x10(%rsp)
  4040ae:	4d 89 c7             	mov    %r8,%r15
  4040b1:	48 89 d0             	mov    %rdx,%rax
  4040b4:	74 79                	je     40412f <vfscanf+0x7af>
  4040b6:	48 89 5c 24 20       	mov    %rbx,0x20(%rsp)
  4040bb:	48 8b 5c 24 10       	mov    0x10(%rsp),%rbx
  4040c0:	89 6c 24 28          	mov    %ebp,0x28(%rsp)
  4040c4:	4c 89 cd             	mov    %r9,%rbp
  4040c7:	eb 2f                	jmp    4040f8 <vfscanf+0x778>
  4040c9:	0f 1f 80 00 00 00 00 	nopl   0x0(%rax)
  4040d0:	48 8d 42 01          	lea    0x1(%rdx),%rax
  4040d4:	49 89 45 08          	mov    %rax,0x8(%r13)
  4040d8:	0f b6 02             	movzbl (%rdx),%eax
  4040db:	8d 50 01             	lea    0x1(%rax),%edx
  4040de:	48 63 d2             	movslq %edx,%rdx
  4040e1:	80 7c 14 60 00       	cmpb   $0x0,0x60(%rsp,%rdx,1)
  4040e6:	0f 84 7b 03 00 00    	je     404467 <vfscanf+0xae7>
  4040ec:	48 83 c5 01          	add    $0x1,%rbp
  4040f0:	88 44 2b ff          	mov    %al,-0x1(%rbx,%rbp,1)
  4040f4:	49 8b 55 08          	mov    0x8(%r13),%rdx
  4040f8:	49 3b 95 b8 00 00 00 	cmp    0xb8(%r13),%rdx
  4040ff:	75 cf                	jne    4040d0 <vfscanf+0x750>
  404101:	4c 89 ef             	mov    %r13,%rdi
  404104:	e8 f7 25 00 00       	call   406700 <__shgetc>
  404109:	eb d0                	jmp    4040db <vfscanf+0x75b>
  40410b:	0f 1f 44 00 00       	nopl   0x0(%rax,%rax,1)
  404110:	48 8d 48 01          	lea    0x1(%rax),%rcx
  404114:	49 89 4d 08          	mov    %rcx,0x8(%r13)
  404118:	0f b6 10             	movzbl (%rax),%edx
  40411b:	48 89 c8             	mov    %rcx,%rax
  40411e:	83 c2 01             	add    $0x1,%edx
  404121:	48 63 d2             	movslq %edx,%rdx
  404124:	80 7c 14 60 00       	cmpb   $0x0,0x60(%rsp,%rdx,1)
  404129:	0f 84 6c 05 00 00    	je     40469b <vfscanf+0xd1b>
  40412f:	49 39 85 b8 00 00 00 	cmp    %rax,0xb8(%r13)
  404136:	75 d8                	jne    404110 <vfscanf+0x790>
  404138:	4c 89 ef             	mov    %r13,%rdi
  40413b:	e8 c0 25 00 00       	call   406700 <__shgetc>
  404140:	89 c2                	mov    %eax,%edx
  404142:	49 8b 45 08          	mov    0x8(%r13),%rax
  404146:	eb d6                	jmp    40411e <vfscanf+0x79e>
  404148:	be 10 00 00 00       	mov    $0x10,%esi
  40414d:	31 d2                	xor    %edx,%edx
  40414f:	48 c7 c1 ff ff ff ff 	mov    $0xffffffffffffffff,%rcx
  404156:	4c 89 ef             	mov    %r13,%rdi
  404159:	4c 89 44 24 30       	mov    %r8,0x30(%rsp)
  40415e:	e8 7d 1f 00 00       	call   4060e0 <__intscan>
  404163:	49 8b 55 08          	mov    0x8(%r13),%rdx
  404167:	48 89 c1             	mov    %rax,%rcx
  40416a:	49 8b 85 c8 00 00 00 	mov    0xc8(%r13),%rax
  404171:	48 89 d6             	mov    %rdx,%rsi
  404174:	49 2b 75 58          	sub    0x58(%r13),%rsi
  404178:	48 01 c6             	add    %rax,%rsi
  40417b:	0f 84 ff fa ff ff    	je     403c80 <vfscanf+0x300>
  404181:	83 fd 70             	cmp    $0x70,%ebp
  404184:	4c 8b 44 24 30       	mov    0x30(%rsp),%r8
  404189:	75 63                	jne    4041ee <vfscanf+0x86e>
  40418b:	48 8b 74 24 10       	mov    0x10(%rsp),%rsi
  404190:	48 85 f6             	test   %rsi,%rsi
  404193:	0f 84 cf 01 00 00    	je     404368 <vfscanf+0x9e8>
  404199:	48 89 0e             	mov    %rcx,(%rsi)
  40419c:	49 8b 55 08          	mov    0x8(%r13),%rdx
  4041a0:	49 2b 55 58          	sub    0x58(%r13),%rdx
  4041a4:	48 01 d0             	add    %rdx,%rax
  4041a7:	e9 84 fe ff ff       	jmp    404030 <vfscanf+0x6b0>
  4041ac:	be 0a 00 00 00       	mov    $0xa,%esi
  4041b1:	eb 9a                	jmp    40414d <vfscanf+0x7cd>
  4041b3:	31 f6                	xor    %esi,%esi
  4041b5:	31 d2                	xor    %edx,%edx
  4041b7:	48 c7 c1 ff ff ff ff 	mov    $0xffffffffffffffff,%rcx
  4041be:	4c 89 ef             	mov    %r13,%rdi
  4041c1:	4c 89 44 24 30       	mov    %r8,0x30(%rsp)
  4041c6:	e8 15 1f 00 00       	call   4060e0 <__intscan>
  4041cb:	49 8b 55 08          	mov    0x8(%r13),%rdx
  4041cf:	4c 8b 44 24 30       	mov    0x30(%rsp),%r8
  4041d4:	48 89 c1             	mov    %rax,%rcx
  4041d7:	49 8b 85 c8 00 00 00 	mov    0xc8(%r13),%rax
  4041de:	48 89 d6             	mov    %rdx,%rsi
  4041e1:	49 2b 75 58          	sub    0x58(%r13),%rsi
  4041e5:	48 01 c6             	add    %rax,%rsi
  4041e8:	0f 84 92 fa ff ff    	je     403c80 <vfscanf+0x300>
  4041ee:	48 83 7c 24 10 00    	cmpq   $0x0,0x10(%rsp)
  4041f4:	0f 84 6e 01 00 00    	je     404368 <vfscanf+0x9e8>
  4041fa:	44 8b 7c 24 1c       	mov    0x1c(%rsp),%r15d
  4041ff:	41 83 c7 02          	add    $0x2,%r15d
  404203:	41 83 ff 05          	cmp    $0x5,%r15d
  404207:	77 5b                	ja     404264 <vfscanf+0x8e4>
  404209:	48 8d 3d b4 61 00 00 	lea    0x61b4(%rip),%rdi        # 40a3c4 <cookie+0xf0>
  404210:	4a 63 34 bf          	movslq (%rdi,%r15,4),%rsi
  404214:	48 01 fe             	add    %rdi,%rsi
  404217:	3e ff e6             	notrack jmp *%rsi
  40421a:	48 8b 74 24 10       	mov    0x10(%rsp),%rsi
  40421f:	49 2b 55 58          	sub    0x58(%r13),%rdx
  404223:	48 01 d0             	add    %rdx,%rax
  404226:	48 89 0e             	mov    %rcx,(%rsi)
  404229:	e9 02 fe ff ff       	jmp    404030 <vfscanf+0x6b0>
  40422e:	48 8b 44 24 10       	mov    0x10(%rsp),%rax
  404233:	48 89 08             	mov    %rcx,(%rax)
  404236:	48 89 d0             	mov    %rdx,%rax
  404239:	49 2b 45 58          	sub    0x58(%r13),%rax
  40423d:	49 03 85 c8 00 00 00 	add    0xc8(%r13),%rax
  404244:	e9 e7 fd ff ff       	jmp    404030 <vfscanf+0x6b0>
  404249:	48 8b 74 24 10       	mov    0x10(%rsp),%rsi
  40424e:	49 2b 55 58          	sub    0x58(%r13),%rdx
  404252:	48 01 d0             	add    %rdx,%rax
  404255:	89 0e                	mov    %ecx,(%rsi)
  404257:	e9 d4 fd ff ff       	jmp    404030 <vfscanf+0x6b0>
  40425c:	48 8b 74 24 10       	mov    0x10(%rsp),%rsi
  404261:	66 89 0e             	mov    %cx,(%rsi)
  404264:	49 2b 55 58          	sub    0x58(%r13),%rdx
  404268:	48 01 d0             	add    %rdx,%rax
  40426b:	e9 c0 fd ff ff       	jmp    404030 <vfscanf+0x6b0>
  404270:	48 8b 44 24 10       	mov    0x10(%rsp),%rax
  404275:	88 08                	mov    %cl,(%rax)
  404277:	49 8b 45 08          	mov    0x8(%r13),%rax
  40427b:	49 2b 45 58          	sub    0x58(%r13),%rax
  40427f:	49 03 85 c8 00 00 00 	add    0xc8(%r13),%rax
  404286:	e9 a5 fd ff ff       	jmp    404030 <vfscanf+0x6b0>
  40428b:	be 08 00 00 00       	mov    $0x8,%esi
  404290:	e9 20 ff ff ff       	jmp    4041b5 <vfscanf+0x835>
  404295:	0f 1f 00             	nopl   (%rax)
  404298:	41 0f b6 40 01       	movzbl 0x1(%r8),%eax
  40429d:	c7 44 24 1c 01 00 00 	movl   $0x1,0x1c(%rsp)
  4042a4:	00 
  4042a5:	49 89 f0             	mov    %rsi,%r8
  4042a8:	e9 53 fc ff ff       	jmp    403f00 <vfscanf+0x580>
  4042ad:	41 0f b6 40 01       	movzbl 0x1(%r8),%eax
  4042b2:	c7 44 24 1c 03 00 00 	movl   $0x3,0x1c(%rsp)
  4042b9:	00 
  4042ba:	49 89 f0             	mov    %rsi,%r8
  4042bd:	e9 3e fc ff ff       	jmp    403f00 <vfscanf+0x580>
  4042c2:	66 0f 1f 44 00 00    	nopw   0x0(%rax,%rax,1)
  4042c8:	48 83 7c 24 10 00    	cmpq   $0x0,0x10(%rsp)
  4042ce:	0f 84 3f f8 ff ff    	je     403b13 <vfscanf+0x193>
  4042d4:	44 8b 7c 24 1c       	mov    0x1c(%rsp),%r15d
  4042d9:	41 83 c7 02          	add    $0x2,%r15d
  4042dd:	41 83 ff 05          	cmp    $0x5,%r15d
  4042e1:	0f 87 2c f8 ff ff    	ja     403b13 <vfscanf+0x193>
  4042e7:	48 8d 15 ee 60 00 00 	lea    0x60ee(%rip),%rdx        # 40a3dc <cookie+0x108>
  4042ee:	4a 63 04 ba          	movslq (%rdx,%r15,4),%rax
  4042f2:	48 01 d0             	add    %rdx,%rax
  4042f5:	3e ff e0             	notrack jmp *%rax
  4042f8:	48 8b 44 24 10       	mov    0x10(%rsp),%rax
  4042fd:	89 18                	mov    %ebx,(%rax)
  4042ff:	e9 0f f8 ff ff       	jmp    403b13 <vfscanf+0x193>
  404304:	48 8b 44 24 10       	mov    0x10(%rsp),%rax
  404309:	66 89 18             	mov    %bx,(%rax)
  40430c:	e9 02 f8 ff ff       	jmp    403b13 <vfscanf+0x193>
  404311:	48 8b 44 24 10       	mov    0x10(%rsp),%rax
  404316:	88 18                	mov    %bl,(%rax)
  404318:	e9 f6 f7 ff ff       	jmp    403b13 <vfscanf+0x193>
  40431d:	0f 1f 00             	nopl   (%rax)
  404320:	4c 89 ef             	mov    %r13,%rdi
  404323:	4c 89 44 24 30       	mov    %r8,0x30(%rsp)
  404328:	e8 d3 23 00 00       	call   406700 <__shgetc>
  40432d:	4c 8b 44 24 30       	mov    0x30(%rsp),%r8
  404332:	85 c0                	test   %eax,%eax
  404334:	0f 89 44 fa ff ff    	jns    403d7e <vfscanf+0x3fe>
  40433a:	e9 31 f9 ff ff       	jmp    403c70 <vfscanf+0x2f0>
  40433f:	90                   	nop
  404340:	48 8b 3c 24          	mov    (%rsp),%rdi
  404344:	e8 67 f5 ff ff       	call   4038b0 <arg_n>
  404349:	4c 8d 45 03          	lea    0x3(%rbp),%r8
  40434d:	48 89 44 24 10       	mov    %rax,0x10(%rsp)
  404352:	0f b6 45 03          	movzbl 0x3(%rbp),%eax
  404356:	89 c2                	mov    %eax,%edx
  404358:	8d 70 d0             	lea    -0x30(%rax),%esi
  40435b:	e9 3e f8 ff ff       	jmp    403b9e <vfscanf+0x21e>
  404360:	45 31 e4             	xor    %r12d,%r12d
  404363:	e9 fd f6 ff ff       	jmp    403a65 <vfscanf+0xe5>
  404368:	49 2b 55 58          	sub    0x58(%r13),%rdx
  40436c:	48 01 d0             	add    %rdx,%rax
  40436f:	eb 02                	jmp    404373 <vfscanf+0x9f3>
  404371:	dd d8                	fstp   %st(0)
  404373:	48 01 c3             	add    %rax,%rbx
  404376:	e9 98 f7 ff ff       	jmp    403b13 <vfscanf+0x193>
  40437b:	41 0f b6 40 02       	movzbl 0x2(%r8),%eax
  404380:	c7 44 24 1c 03 00 00 	movl   $0x3,0x1c(%rsp)
  404387:	00 
  404388:	49 83 c0 02          	add    $0x2,%r8
  40438c:	e9 6f fb ff ff       	jmp    403f00 <vfscanf+0x580>
  404391:	41 0f b6 40 02       	movzbl 0x2(%r8),%eax
  404396:	c7 44 24 1c fe ff ff 	movl   $0xfffffffe,0x1c(%rsp)
  40439d:	ff 
  40439e:	49 83 c0 02          	add    $0x2,%r8
  4043a2:	e9 59 fb ff ff       	jmp    403f00 <vfscanf+0x580>
  4043a7:	41 80 78 01 5e       	cmpb   $0x5e,0x1(%r8)
  4043ac:	0f 84 da 02 00 00    	je     40468c <vfscanf+0xd0c>
  4043b2:	49 83 c0 01          	add    $0x1,%r8
  4043b6:	45 31 ff             	xor    %r15d,%r15d
  4043b9:	ba 01 01 00 00       	mov    $0x101,%edx
  4043be:	48 8d 7c 24 60       	lea    0x60(%rsp),%rdi
  4043c3:	44 89 fe             	mov    %r15d,%esi
  4043c6:	4c 89 44 24 30       	mov    %r8,0x30(%rsp)
  4043cb:	e8 4d 05 00 00       	call   40491d <memset>
  4043d0:	4c 8b 44 24 30       	mov    0x30(%rsp),%r8
  4043d5:	c6 44 24 60 00       	movb   $0x0,0x60(%rsp)
  4043da:	41 0f b6 10          	movzbl (%r8),%edx
  4043de:	80 fa 2d             	cmp    $0x2d,%dl
  4043e1:	0f 84 3a 02 00 00    	je     404621 <vfscanf+0xca1>
  4043e7:	80 fa 5d             	cmp    $0x5d,%dl
  4043ea:	0f 84 d7 02 00 00    	je     4046c7 <vfscanf+0xd47>
  4043f0:	be 01 00 00 00       	mov    $0x1,%esi
  4043f5:	48 8d 7c 24 61       	lea    0x61(%rsp),%rdi
  4043fa:	44 29 fe             	sub    %r15d,%esi
  4043fd:	eb 1d                	jmp    40441c <vfscanf+0xa9c>
  4043ff:	90                   	nop
  404400:	41 0f b6 00          	movzbl (%r8),%eax
  404404:	89 ca                	mov    %ecx,%edx
  404406:	83 c0 01             	add    $0x1,%eax
  404409:	4d 89 c8             	mov    %r9,%r8
  40440c:	48 98                	cltq   
  40440e:	40 88 74 04 60       	mov    %sil,0x60(%rsp,%rax,1)
  404413:	80 fa 5d             	cmp    $0x5d,%dl
  404416:	0f 84 25 02 00 00    	je     404641 <vfscanf+0xcc1>
  40441c:	84 d2                	test   %dl,%dl
  40441e:	0f 84 4c f8 ff ff    	je     403c70 <vfscanf+0x2f0>
  404424:	41 0f b6 48 01       	movzbl 0x1(%r8),%ecx
  404429:	4d 8d 48 01          	lea    0x1(%r8),%r9
  40442d:	80 fa 2d             	cmp    $0x2d,%dl
  404430:	75 ce                	jne    404400 <vfscanf+0xa80>
  404432:	84 c9                	test   %cl,%cl
  404434:	74 ca                	je     404400 <vfscanf+0xa80>
  404436:	80 f9 5d             	cmp    $0x5d,%cl
  404439:	74 c5                	je     404400 <vfscanf+0xa80>
  40443b:	41 0f b6 50 ff       	movzbl -0x1(%r8),%edx
  404440:	0f b6 c1             	movzbl %cl,%eax
  404443:	38 ca                	cmp    %cl,%dl
  404445:	0f 83 04 04 00 00    	jae    40484f <vfscanf+0xecf>
  40444b:	0f 1f 44 00 00       	nopl   0x0(%rax,%rax,1)
  404450:	40 88 34 17          	mov    %sil,(%rdi,%rdx,1)
  404454:	48 83 c2 01          	add    $0x1,%rdx
  404458:	39 d0                	cmp    %edx,%eax
  40445a:	7f f4                	jg     404450 <vfscanf+0xad0>
  40445c:	41 0f b6 50 02       	movzbl 0x2(%r8),%edx
  404461:	49 83 c1 01          	add    $0x1,%r9
  404465:	eb 9f                	jmp    404406 <vfscanf+0xa86>
  404467:	48 8b 7c 24 10       	mov    0x10(%rsp),%rdi
  40446c:	48 8b 5c 24 20       	mov    0x20(%rsp),%rbx
  404471:	49 89 e9             	mov    %rbp,%r9
  404474:	4d 89 f8             	mov    %r15,%r8
  404477:	8b 6c 24 28          	mov    0x28(%rsp),%ebp
  40447b:	49 8b 45 08          	mov    0x8(%r13),%rax
  40447f:	48 c7 44 24 20 00 00 	movq   $0x0,0x20(%rsp)
  404486:	00 00 
  404488:	48 89 7c 24 28       	mov    %rdi,0x28(%rsp)
  40448d:	49 83 bd c0 00 00 00 	cmpq   $0x0,0xc0(%r13)
  404494:	00 
  404495:	78 08                	js     40449f <vfscanf+0xb1f>
  404497:	48 83 e8 01          	sub    $0x1,%rax
  40449b:	49 89 45 08          	mov    %rax,0x8(%r13)
  40449f:	49 2b 45 58          	sub    0x58(%r13),%rax
  4044a3:	49 03 85 c8 00 00 00 	add    0xc8(%r13),%rax
  4044aa:	0f 84 d0 f7 ff ff    	je     403c80 <vfscanf+0x300>
  4044b0:	83 fd 63             	cmp    $0x63,%ebp
  4044b3:	0f 84 93 01 00 00    	je     40464c <vfscanf+0xccc>
  4044b9:	8b 54 24 18          	mov    0x18(%rsp),%edx
  4044bd:	85 d2                	test   %edx,%edx
  4044bf:	74 21                	je     4044e2 <vfscanf+0xb62>
  4044c1:	83 7c 24 1c 01       	cmpl   $0x1,0x1c(%rsp)
  4044c6:	48 8b 74 24 10       	mov    0x10(%rsp),%rsi
  4044cb:	0f 84 0e 02 00 00    	je     4046df <vfscanf+0xd5f>
  4044d1:	48 8b 7c 24 28       	mov    0x28(%rsp),%rdi
  4044d6:	48 89 3e             	mov    %rdi,(%rsi)
  4044d9:	83 fd 63             	cmp    $0x63,%ebp
  4044dc:	0f 84 4e fb ff ff    	je     404030 <vfscanf+0x6b0>
  4044e2:	48 8b 74 24 20       	mov    0x20(%rsp),%rsi
  4044e7:	48 85 f6             	test   %rsi,%rsi
  4044ea:	74 08                	je     4044f4 <vfscanf+0xb74>
  4044ec:	42 c7 04 8e 00 00 00 	movl   $0x0,(%rsi,%r9,4)
  4044f3:	00 
  4044f4:	48 8b 74 24 28       	mov    0x28(%rsp),%rsi
  4044f9:	48 85 f6             	test   %rsi,%rsi
  4044fc:	0f 84 ad fa ff ff    	je     403faf <vfscanf+0x62f>
  404502:	42 c6 04 0e 00       	movb   $0x0,(%rsi,%r9,1)
  404507:	49 8b 45 08          	mov    0x8(%r13),%rax
  40450b:	49 2b 45 58          	sub    0x58(%r13),%rax
  40450f:	49 03 85 c8 00 00 00 	add    0xc8(%r13),%rax
  404516:	e9 94 fa ff ff       	jmp    403faf <vfscanf+0x62f>
  40451b:	48 8b 44 24 10       	mov    0x10(%rsp),%rax
  404520:	44 8b 4c 24 18       	mov    0x18(%rsp),%r9d
  404525:	48 89 44 24 20       	mov    %rax,0x20(%rsp)
  40452a:	45 85 c9             	test   %r9d,%r9d
  40452d:	0f 85 b9 01 00 00    	jne    4046ec <vfscanf+0xd6c>
  404533:	48 8d 44 24 58       	lea    0x58(%rsp),%rax
  404538:	4c 89 44 24 40       	mov    %r8,0x40(%rsp)
  40453d:	45 31 c9             	xor    %r9d,%r9d
  404540:	48 c7 44 24 58 00 00 	movq   $0x0,0x58(%rsp)
  404547:	00 00 
  404549:	48 89 44 24 28       	mov    %rax,0x28(%rsp)
  40454e:	4c 89 e8             	mov    %r13,%rax
  404551:	45 89 e5             	mov    %r12d,%r13d
  404554:	41 89 ec             	mov    %ebp,%r12d
  404557:	48 89 5c 24 30       	mov    %rbx,0x30(%rsp)
  40455c:	48 89 c5             	mov    %rax,%rbp
  40455f:	4c 89 cb             	mov    %r9,%rbx
  404562:	48 8b 45 08          	mov    0x8(%rbp),%rax
  404566:	48 3b 85 b8 00 00 00 	cmp    0xb8(%rbp),%rax
  40456d:	0f 84 45 01 00 00    	je     4046b8 <vfscanf+0xd38>
  404573:	48 8d 50 01          	lea    0x1(%rax),%rdx
  404577:	48 89 55 08          	mov    %rdx,0x8(%rbp)
  40457b:	0f b6 10             	movzbl (%rax),%edx
  40457e:	8d 42 01             	lea    0x1(%rdx),%eax
  404581:	48 98                	cltq   
  404583:	80 7c 04 60 00       	cmpb   $0x0,0x60(%rsp,%rax,1)
  404588:	0f 84 77 02 00 00    	je     404805 <vfscanf+0xe85>
  40458e:	48 8b 4c 24 28       	mov    0x28(%rsp),%rcx
  404593:	48 8b 74 24 08       	mov    0x8(%rsp),%rsi
  404598:	88 54 24 53          	mov    %dl,0x53(%rsp)
  40459c:	48 8d 7c 24 54       	lea    0x54(%rsp),%rdi
  4045a1:	ba 01 00 00 00       	mov    $0x1,%edx
  4045a6:	e8 d5 42 00 00       	call   408880 <mbrtowc>
  4045ab:	48 83 f8 fe          	cmp    $0xfffffffffffffffe,%rax
  4045af:	74 b1                	je     404562 <vfscanf+0xbe2>
  4045b1:	48 83 f8 ff          	cmp    $0xffffffffffffffff,%rax
  4045b5:	75 14                	jne    4045cb <vfscanf+0xc4b>
  4045b7:	48 c7 44 24 28 00 00 	movq   $0x0,0x28(%rsp)
  4045be:	00 00 
  4045c0:	45 89 ec             	mov    %r13d,%r12d
  4045c3:	49 89 ed             	mov    %rbp,%r13
  4045c6:	e9 a5 f6 ff ff       	jmp    403c70 <vfscanf+0x2f0>
  4045cb:	48 8b 7c 24 20       	mov    0x20(%rsp),%rdi
  4045d0:	48 85 ff             	test   %rdi,%rdi
  4045d3:	74 0b                	je     4045e0 <vfscanf+0xc60>
  4045d5:	8b 44 24 54          	mov    0x54(%rsp),%eax
  4045d9:	89 04 9f             	mov    %eax,(%rdi,%rbx,4)
  4045dc:	48 83 c3 01          	add    $0x1,%rbx
  4045e0:	4c 39 fb             	cmp    %r15,%rbx
  4045e3:	0f 85 79 ff ff ff    	jne    404562 <vfscanf+0xbe2>
  4045e9:	44 8b 44 24 18       	mov    0x18(%rsp),%r8d
  4045ee:	45 85 c0             	test   %r8d,%r8d
  4045f1:	0f 84 6b ff ff ff    	je     404562 <vfscanf+0xbe2>
  4045f7:	4f 8d 7c 3f 01       	lea    0x1(%r15,%r15,1),%r15
  4045fc:	48 8b 7c 24 20       	mov    0x20(%rsp),%rdi
  404601:	4a 8d 34 bd 00 00 00 	lea    0x0(,%r15,4),%rsi
  404608:	00 
  404609:	e8 e2 3f 00 00       	call   4085f0 <realloc>
  40460e:	48 85 c0             	test   %rax,%rax
  404611:	0f 84 62 02 00 00    	je     404879 <vfscanf+0xef9>
  404617:	48 89 44 24 20       	mov    %rax,0x20(%rsp)
  40461c:	e9 41 ff ff ff       	jmp    404562 <vfscanf+0xbe2>
  404621:	b8 01 00 00 00       	mov    $0x1,%eax
  404626:	49 83 c0 01          	add    $0x1,%r8
  40462a:	44 29 f8             	sub    %r15d,%eax
  40462d:	88 84 24 8e 00 00 00 	mov    %al,0x8e(%rsp)
  404634:	41 0f b6 10          	movzbl (%r8),%edx
  404638:	80 fa 5d             	cmp    $0x5d,%dl
  40463b:	0f 85 af fd ff ff    	jne    4043f0 <vfscanf+0xa70>
  404641:	41 bf 1f 00 00 00    	mov    $0x1f,%r15d
  404647:	e9 3e fa ff ff       	jmp    40408a <vfscanf+0x70a>
  40464c:	48 39 44 24 38       	cmp    %rax,0x38(%rsp)
  404651:	0f 85 29 f6 ff ff    	jne    403c80 <vfscanf+0x300>
  404657:	8b 4c 24 18          	mov    0x18(%rsp),%ecx
  40465b:	85 c9                	test   %ecx,%ecx
  40465d:	0f 85 5e fe ff ff    	jne    4044c1 <vfscanf+0xb41>
  404663:	e9 47 f9 ff ff       	jmp    403faf <vfscanf+0x62f>
  404668:	48 8b 74 24 10       	mov    0x10(%rsp),%rsi
  40466d:	dd 1e                	fstpl  (%rsi)
  40466f:	e9 bc f9 ff ff       	jmp    404030 <vfscanf+0x6b0>
  404674:	48 8b 7c 24 10       	mov    0x10(%rsp),%rdi
  404679:	d9 1f                	fstps  (%rdi)
  40467b:	e9 b0 f9 ff ff       	jmp    404030 <vfscanf+0x6b0>
  404680:	48 8b 7c 24 10       	mov    0x10(%rsp),%rdi
  404685:	db 3f                	fstpt  (%rdi)
  404687:	e9 a4 f9 ff ff       	jmp    404030 <vfscanf+0x6b0>
  40468c:	49 83 c0 02          	add    $0x2,%r8
  404690:	41 bf 01 00 00 00    	mov    $0x1,%r15d
  404696:	e9 1e fd ff ff       	jmp    4043b9 <vfscanf+0xa39>
  40469b:	48 c7 44 24 20 00 00 	movq   $0x0,0x20(%rsp)
  4046a2:	00 00 
  4046a4:	4d 89 f8             	mov    %r15,%r8
  4046a7:	45 31 c9             	xor    %r9d,%r9d
  4046aa:	48 c7 44 24 28 00 00 	movq   $0x0,0x28(%rsp)
  4046b1:	00 00 
  4046b3:	e9 d5 fd ff ff       	jmp    40448d <vfscanf+0xb0d>
  4046b8:	48 89 ef             	mov    %rbp,%rdi
  4046bb:	e8 40 20 00 00       	call   406700 <__shgetc>
  4046c0:	89 c2                	mov    %eax,%edx
  4046c2:	e9 b7 fe ff ff       	jmp    40457e <vfscanf+0xbfe>
  4046c7:	b8 01 00 00 00       	mov    $0x1,%eax
  4046cc:	49 83 c0 01          	add    $0x1,%r8
  4046d0:	44 29 f8             	sub    %r15d,%eax
  4046d3:	88 84 24 be 00 00 00 	mov    %al,0xbe(%rsp)
  4046da:	e9 55 ff ff ff       	jmp    404634 <vfscanf+0xcb4>
  4046df:	48 8b 7c 24 20       	mov    0x20(%rsp),%rdi
  4046e4:	48 89 3e             	mov    %rdi,(%rsi)
  4046e7:	e9 ed fd ff ff       	jmp    4044d9 <vfscanf+0xb59>
  4046ec:	4a 8d 3c bd 00 00 00 	lea    0x0(,%r15,4),%rdi
  4046f3:	00 
