
jenny.so:     file format elf64-x86-64


Disassembly of section .init:

0000000000000900 <_init>:
 900:	48 83 ec 08          	sub    $0x8,%rsp
 904:	48 8b 05 6d 06 20 00 	mov    0x20066d(%rip),%rax        # 200f78 <__gmon_start__>
 90b:	48 85 c0             	test   %rax,%rax
 90e:	74 05                	je     915 <_init+0x15>
 910:	e8 43 00 00 00       	callq  958 <__gmon_start__@plt>
 915:	48 83 c4 08          	add    $0x8,%rsp
 919:	c3                   	retq   

Disassembly of section .plt:

0000000000000920 <.plt>:
 920:	ff 35 e2 06 20 00    	pushq  0x2006e2(%rip)        # 201008 <_GLOBAL_OFFSET_TABLE_+0x8>
 926:	ff 25 e4 06 20 00    	jmpq   *0x2006e4(%rip)        # 201010 <_GLOBAL_OFFSET_TABLE_+0x10>
 92c:	0f 1f 40 00          	nopl   0x0(%rax)

0000000000000930 <mprotect@plt>:
 930:	ff 25 e2 06 20 00    	jmpq   *0x2006e2(%rip)        # 201018 <mprotect@GLIBC_2.2.5>
 936:	68 00 00 00 00       	pushq  $0x0
 93b:	e9 e0 ff ff ff       	jmpq   920 <.plt>

0000000000000940 <sysconf@plt>:
 940:	ff 25 da 06 20 00    	jmpq   *0x2006da(%rip)        # 201020 <sysconf@GLIBC_2.2.5>
 946:	68 01 00 00 00       	pushq  $0x1
 94b:	e9 d0 ff ff ff       	jmpq   920 <.plt>

Disassembly of section .plt.got:

0000000000000950 <printf@plt>:
 950:	ff 25 1a 06 20 00    	jmpq   *0x20061a(%rip)        # 200f70 <printf@GLIBC_2.2.5>
 956:	66 90                	xchg   %ax,%ax

0000000000000958 <__gmon_start__@plt>:
 958:	ff 25 1a 06 20 00    	jmpq   *0x20061a(%rip)        # 200f78 <__gmon_start__>
 95e:	66 90                	xchg   %ax,%ax

0000000000000960 <__cxa_finalize@plt>:
 960:	ff 25 52 06 20 00    	jmpq   *0x200652(%rip)        # 200fb8 <__cxa_finalize@GLIBC_2.2.5>
 966:	66 90                	xchg   %ax,%ax

Disassembly of section .text:

0000000000000970 <deregister_tm_clones>:
 970:	48 8d 3d b9 06 20 00 	lea    0x2006b9(%rip),%rdi        # 201030 <_edata>
 977:	48 8d 05 b9 06 20 00 	lea    0x2006b9(%rip),%rax        # 201037 <_edata+0x7>
 97e:	55                   	push   %rbp
 97f:	48 29 f8             	sub    %rdi,%rax
 982:	48 89 e5             	mov    %rsp,%rbp
 985:	48 83 f8 0e          	cmp    $0xe,%rax
 989:	76 15                	jbe    9a0 <deregister_tm_clones+0x30>
 98b:	48 8b 05 06 06 20 00 	mov    0x200606(%rip),%rax        # 200f98 <_ITM_deregisterTMCloneTable>
 992:	48 85 c0             	test   %rax,%rax
 995:	74 09                	je     9a0 <deregister_tm_clones+0x30>
 997:	5d                   	pop    %rbp
 998:	ff e0                	jmpq   *%rax
 99a:	66 0f 1f 44 00 00    	nopw   0x0(%rax,%rax,1)
 9a0:	5d                   	pop    %rbp
 9a1:	c3                   	retq   
 9a2:	0f 1f 40 00          	nopl   0x0(%rax)
 9a6:	66 2e 0f 1f 84 00 00 	nopw   %cs:0x0(%rax,%rax,1)
 9ad:	00 00 00 

00000000000009b0 <register_tm_clones>:
 9b0:	48 8d 3d 79 06 20 00 	lea    0x200679(%rip),%rdi        # 201030 <_edata>
 9b7:	48 8d 35 72 06 20 00 	lea    0x200672(%rip),%rsi        # 201030 <_edata>
 9be:	55                   	push   %rbp
 9bf:	48 29 fe             	sub    %rdi,%rsi
 9c2:	48 89 e5             	mov    %rsp,%rbp
 9c5:	48 c1 fe 03          	sar    $0x3,%rsi
 9c9:	48 89 f0             	mov    %rsi,%rax
 9cc:	48 c1 e8 3f          	shr    $0x3f,%rax
 9d0:	48 01 c6             	add    %rax,%rsi
 9d3:	48 d1 fe             	sar    %rsi
 9d6:	74 18                	je     9f0 <register_tm_clones+0x40>
 9d8:	48 8b 05 d1 05 20 00 	mov    0x2005d1(%rip),%rax        # 200fb0 <_ITM_registerTMCloneTable>
 9df:	48 85 c0             	test   %rax,%rax
 9e2:	74 0c                	je     9f0 <register_tm_clones+0x40>
 9e4:	5d                   	pop    %rbp
 9e5:	ff e0                	jmpq   *%rax
 9e7:	66 0f 1f 84 00 00 00 	nopw   0x0(%rax,%rax,1)
 9ee:	00 00 
 9f0:	5d                   	pop    %rbp
 9f1:	c3                   	retq   
 9f2:	0f 1f 40 00          	nopl   0x0(%rax)
 9f6:	66 2e 0f 1f 84 00 00 	nopw   %cs:0x0(%rax,%rax,1)
 9fd:	00 00 00 

0000000000000a00 <__do_global_dtors_aux>:
 a00:	80 3d 29 06 20 00 00 	cmpb   $0x0,0x200629(%rip)        # 201030 <_edata>
 a07:	75 27                	jne    a30 <__do_global_dtors_aux+0x30>
 a09:	48 83 3d a7 05 20 00 	cmpq   $0x0,0x2005a7(%rip)        # 200fb8 <__cxa_finalize@GLIBC_2.2.5>
 a10:	00 
 a11:	55                   	push   %rbp
 a12:	48 89 e5             	mov    %rsp,%rbp
 a15:	74 0c                	je     a23 <__do_global_dtors_aux+0x23>
 a17:	48 8b 3d 0a 06 20 00 	mov    0x20060a(%rip),%rdi        # 201028 <__dso_handle>
 a1e:	e8 3d ff ff ff       	callq  960 <__cxa_finalize@plt>
 a23:	e8 48 ff ff ff       	callq  970 <deregister_tm_clones>
 a28:	5d                   	pop    %rbp
 a29:	c6 05 00 06 20 00 01 	movb   $0x1,0x200600(%rip)        # 201030 <_edata>
 a30:	f3 c3                	repz retq 
 a32:	0f 1f 40 00          	nopl   0x0(%rax)
 a36:	66 2e 0f 1f 84 00 00 	nopw   %cs:0x0(%rax,%rax,1)
 a3d:	00 00 00 

0000000000000a40 <frame_dummy>:
 a40:	48 8d 3d 41 03 20 00 	lea    0x200341(%rip),%rdi        # 200d88 <__JCR_END__>
 a47:	48 83 3f 00          	cmpq   $0x0,(%rdi)
 a4b:	75 0b                	jne    a58 <frame_dummy+0x18>
 a4d:	e9 5e ff ff ff       	jmpq   9b0 <register_tm_clones>
 a52:	66 0f 1f 44 00 00    	nopw   0x0(%rax,%rax,1)
 a58:	48 8b 05 21 05 20 00 	mov    0x200521(%rip),%rax        # 200f80 <_Jv_RegisterClasses>
 a5f:	48 85 c0             	test   %rax,%rax
 a62:	74 e9                	je     a4d <frame_dummy+0xd>
 a64:	55                   	push   %rbp
 a65:	48 89 e5             	mov    %rsp,%rbp
 a68:	ff d0                	callq  *%rax
 a6a:	5d                   	pop    %rbp
 a6b:	e9 40 ff ff ff       	jmpq   9b0 <register_tm_clones>

0000000000000a70 <Java_Jenny_verify>:
 a70:	55                   	push   %rbp
 a71:	48 89 e5             	mov    %rsp,%rbp
 a74:	48 81 ec b0 00 00 00 	sub    $0xb0,%rsp
 a7b:	48 89 bd 68 ff ff ff 	mov    %rdi,-0x98(%rbp)
 a82:	48 89 b5 60 ff ff ff 	mov    %rsi,-0xa0(%rbp)
 a89:	48 89 95 58 ff ff ff 	mov    %rdx,-0xa8(%rbp)
 a90:	48 89 8d 50 ff ff ff 	mov    %rcx,-0xb0(%rbp)
 a97:	48 8b 85 68 ff ff ff 	mov    -0x98(%rbp),%rax
 a9e:	48 8b 00             	mov    (%rax),%rax
 aa1:	48 8b 80 c0 05 00 00 	mov    0x5c0(%rax),%rax
 aa8:	48 8b b5 58 ff ff ff 	mov    -0xa8(%rbp),%rsi
 aaf:	48 8b 8d 68 ff ff ff 	mov    -0x98(%rbp),%rcx
 ab6:	ba 00 00 00 00       	mov    $0x0,%edx
 abb:	48 89 cf             	mov    %rcx,%rdi
 abe:	ff d0                	callq  *%rax
 ac0:	48 89 85 78 ff ff ff 	mov    %rax,-0x88(%rbp)
 ac7:	48 8b 85 68 ff ff ff 	mov    -0x98(%rbp),%rax
 ace:	48 8b 00             	mov    (%rax),%rax
 ad1:	48 8b 80 58 05 00 00 	mov    0x558(%rax),%rax
 ad8:	48 8b 8d 58 ff ff ff 	mov    -0xa8(%rbp),%rcx
 adf:	48 8b 95 68 ff ff ff 	mov    -0x98(%rbp),%rdx
 ae6:	48 89 ce             	mov    %rcx,%rsi
 ae9:	48 89 d7             	mov    %rdx,%rdi
 aec:	ff d0                	callq  *%rax
 aee:	89 85 74 ff ff ff    	mov    %eax,-0x8c(%rbp)
 af4:	bf 1e 00 00 00       	mov    $0x1e,%edi
 af9:	e8 42 fe ff ff       	callq  940 <sysconf@plt>
 afe:	48 89 45 80          	mov    %rax,-0x80(%rbp)
 b02:	48 8b 45 80          	mov    -0x80(%rbp),%rax
 b06:	48 f7 d8             	neg    %rax
 b09:	48 89 c2             	mov    %rax,%rdx
 b0c:	48 8b 85 78 ff ff ff 	mov    -0x88(%rbp),%rax
 b13:	48 21 d0             	and    %rdx,%rax
 b16:	48 89 45 88          	mov    %rax,-0x78(%rbp)
 b1a:	48 8b 85 78 ff ff ff 	mov    -0x88(%rbp),%rax
 b21:	48 2b 45 88          	sub    -0x78(%rbp),%rax
 b25:	48 89 c2             	mov    %rax,%rdx
 b28:	8b 85 74 ff ff ff    	mov    -0x8c(%rbp),%eax
 b2e:	48 98                	cltq   
 b30:	48 8d 0c 02          	lea    (%rdx,%rax,1),%rcx
 b34:	48 8b 45 88          	mov    -0x78(%rbp),%rax
 b38:	ba 07 00 00 00       	mov    $0x7,%edx
 b3d:	48 89 ce             	mov    %rcx,%rsi
 b40:	48 89 c7             	mov    %rax,%rdi
 b43:	e8 e8 fd ff ff       	callq  930 <mprotect@plt>
 b48:	85 c0                	test   %eax,%eax
 b4a:	74 48                	je     b94 <Java_Jenny_verify+0x124>
 b4c:	48 8d 3d 66 01 00 00 	lea    0x166(%rip),%rdi        # cb9 <_fini+0x9>
 b53:	b8 00 00 00 00       	mov    $0x0,%eax
 b58:	e8 f3 fd ff ff       	callq  950 <printf@plt>
 b5d:	48 8b 85 68 ff ff ff 	mov    -0x98(%rbp),%rax
 b64:	48 8b 00             	mov    (%rax),%rax
 b67:	48 8b 80 00 06 00 00 	mov    0x600(%rax),%rax
 b6e:	48 8b 95 78 ff ff ff 	mov    -0x88(%rbp),%rdx
 b75:	48 8b b5 58 ff ff ff 	mov    -0xa8(%rbp),%rsi
 b7c:	48 8b bd 68 ff ff ff 	mov    -0x98(%rbp),%rdi
 b83:	b9 02 00 00 00       	mov    $0x2,%ecx
 b88:	ff d0                	callq  *%rax
 b8a:	b8 00 00 00 00       	mov    $0x0,%eax
 b8f:	e9 19 01 00 00       	jmpq   cad <Java_Jenny_verify+0x23d>
 b94:	48 8b 05 d5 03 20 00 	mov    0x2003d5(%rip),%rax        # 200f70 <printf@GLIBC_2.2.5>
 b9b:	48 89 45 90          	mov    %rax,-0x70(%rbp)
 b9f:	48 8b 05 e2 03 20 00 	mov    0x2003e2(%rip),%rax        # 200f88 <malloc@GLIBC_2.2.5>
 ba6:	48 89 45 98          	mov    %rax,-0x68(%rbp)
 baa:	48 8b 05 ef 03 20 00 	mov    0x2003ef(%rip),%rax        # 200fa0 <free@GLIBC_2.2.5>
 bb1:	48 89 45 a0          	mov    %rax,-0x60(%rbp)
 bb5:	48 8b 05 3c 04 20 00 	mov    0x20043c(%rip),%rax        # 200ff8 <memcpy@GLIBC_2.14>
 bbc:	48 89 45 a8          	mov    %rax,-0x58(%rbp)
 bc0:	48 8b 05 29 04 20 00 	mov    0x200429(%rip),%rax        # 200ff0 <memcmp@GLIBC_2.2.5>
 bc7:	48 89 45 b0          	mov    %rax,-0x50(%rbp)
 bcb:	48 8b 05 d6 03 20 00 	mov    0x2003d6(%rip),%rax        # 200fa8 <strlen@GLIBC_2.2.5>
 bd2:	48 89 45 b8          	mov    %rax,-0x48(%rbp)
 bd6:	48 8b 05 0b 04 20 00 	mov    0x20040b(%rip),%rax        # 200fe8 <strtok@GLIBC_2.2.5>
 bdd:	48 89 45 c0          	mov    %rax,-0x40(%rbp)
 be1:	48 8b 05 e8 03 20 00 	mov    0x2003e8(%rip),%rax        # 200fd0 <atoi@GLIBC_2.2.5>
 be8:	48 89 45 c8          	mov    %rax,-0x38(%rbp)
 bec:	48 8b 05 d5 03 20 00 	mov    0x2003d5(%rip),%rax        # 200fc8 <SHA256@OPENSSL_1.0.0>
 bf3:	48 89 45 d0          	mov    %rax,-0x30(%rbp)
 bf7:	48 8b 05 c2 03 20 00 	mov    0x2003c2(%rip),%rax        # 200fc0 <mcrypt_module_open>
 bfe:	48 89 45 d8          	mov    %rax,-0x28(%rbp)
 c02:	48 8b 05 d7 03 20 00 	mov    0x2003d7(%rip),%rax        # 200fe0 <mcrypt_generic_init>
 c09:	48 89 45 e0          	mov    %rax,-0x20(%rbp)
 c0d:	48 8b 05 7c 03 20 00 	mov    0x20037c(%rip),%rax        # 200f90 <mdecrypt_generic>
 c14:	48 89 45 e8          	mov    %rax,-0x18(%rbp)
 c18:	48 8b 05 b9 03 20 00 	mov    0x2003b9(%rip),%rax        # 200fd8 <mcrypt_generic_end>
 c1f:	48 89 45 f0          	mov    %rax,-0x10(%rbp)
 c23:	48 8b 85 78 ff ff ff 	mov    -0x88(%rbp),%rax
 c2a:	48 8b 95 50 ff ff ff 	mov    -0xb0(%rbp),%rdx
 c31:	48 8b b5 60 ff ff ff 	mov    -0xa0(%rbp),%rsi
 c38:	48 8b 8d 68 ff ff ff 	mov    -0x98(%rbp),%rcx
 c3f:	48 83 ec 08          	sub    $0x8,%rsp
 c43:	ff 75 f0             	pushq  -0x10(%rbp)
 c46:	ff 75 e8             	pushq  -0x18(%rbp)
 c49:	ff 75 e0             	pushq  -0x20(%rbp)
 c4c:	ff 75 d8             	pushq  -0x28(%rbp)
 c4f:	ff 75 d0             	pushq  -0x30(%rbp)
 c52:	ff 75 c8             	pushq  -0x38(%rbp)
 c55:	ff 75 c0             	pushq  -0x40(%rbp)
 c58:	ff 75 b8             	pushq  -0x48(%rbp)
 c5b:	ff 75 b0             	pushq  -0x50(%rbp)
 c5e:	ff 75 a8             	pushq  -0x58(%rbp)
 c61:	ff 75 a0             	pushq  -0x60(%rbp)
 c64:	ff 75 98             	pushq  -0x68(%rbp)
 c67:	ff 75 90             	pushq  -0x70(%rbp)
 c6a:	48 89 cf             	mov    %rcx,%rdi
 c6d:	ff d0                	callq  *%rax
 c6f:	48 83 c4 70          	add    $0x70,%rsp
 c73:	88 85 73 ff ff ff    	mov    %al,-0x8d(%rbp)
 c79:	48 8b 85 68 ff ff ff 	mov    -0x98(%rbp),%rax
 c80:	48 8b 00             	mov    (%rax),%rax
 c83:	48 8b 80 00 06 00 00 	mov    0x600(%rax),%rax
 c8a:	48 8b 95 78 ff ff ff 	mov    -0x88(%rbp),%rdx
 c91:	48 8b b5 58 ff ff ff 	mov    -0xa8(%rbp),%rsi
 c98:	48 8b bd 68 ff ff ff 	mov    -0x98(%rbp),%rdi
 c9f:	b9 02 00 00 00       	mov    $0x2,%ecx
 ca4:	ff d0                	callq  *%rax
 ca6:	0f b6 85 73 ff ff ff 	movzbl -0x8d(%rbp),%eax
 cad:	c9                   	leaveq 
 cae:	c3                   	retq   

Disassembly of section .fini:

0000000000000cb0 <_fini>:
 cb0:	48 83 ec 08          	sub    $0x8,%rsp
 cb4:	48 83 c4 08          	add    $0x8,%rsp
 cb8:	c3                   	retq   
