
aegv3:     file format elf64-x86-64


Disassembly of section .init:

0000000000401000 <_init>:
  401000:	50                   	push   %rax
  401001:	58                   	pop    %rax
  401002:	c3                   	ret    

Disassembly of section .text:

0000000000401010 <exit>:
  401010:	f3 0f 1e fa          	endbr64 
  401014:	55                   	push   %rbp
  401015:	89 fd                	mov    %edi,%ebp
  401017:	e8 54 14 00 00       	call   402470 <__funcs_on_exit>
  40101c:	e8 5f 14 00 00       	call   402480 <__libc_exit_fini>
  401021:	31 c0                	xor    %eax,%eax
  401023:	e8 c8 7a 00 00       	call   408af0 <__stdio_exit>
  401028:	89 ef                	mov    %ebp,%edi
  40102a:	e8 71 20 00 00       	call   4030a0 <_Exit>

000000000040102f <_start>:
  40102f:	48 31 ed             	xor    %rbp,%rbp
  401032:	48 89 e7             	mov    %rsp,%rdi
  401035:	48 8d 35 c4 ef bf ff 	lea    -0x40103c(%rip),%rsi        # 0 <_init-0x401000>
  40103c:	48 83 e4 f0          	and    $0xfffffffffffffff0,%rsp
  401040:	e8 0b 00 00 00       	call   401050 <_start_c>
  401045:	66 2e 0f 1f 84 00 00 	cs nopw 0x0(%rax,%rax,1)
  40104c:	00 00 00 
  40104f:	90                   	nop

0000000000401050 <_start_c>:
  401050:	f3 0f 1e fa          	endbr64 
  401054:	8b 37                	mov    (%rdi),%esi
  401056:	48 8d 57 08          	lea    0x8(%rdi),%rdx
  40105a:	49 c7 c0 e4 93 40 00 	mov    $0x4093e4,%r8
  401061:	45 31 c9             	xor    %r9d,%r9d
  401064:	48 c7 c1 00 10 40 00 	mov    $0x401000,%rcx
  40106b:	48 c7 c7 90 20 40 00 	mov    $0x402090,%rdi
  401072:	e9 49 13 00 00       	jmp    4023c0 <__libc_start_main>
  401077:	66 0f 1f 84 00 00 00 	nopw   0x0(%rax,%rax,1)
  40107e:	00 00 

0000000000401080 <deregister_tm_clones>:
  401080:	48 8d 3d 89 b1 00 00 	lea    0xb189(%rip),%rdi        # 40c210 <__TMC_END__>
  401087:	48 8d 05 82 b1 00 00 	lea    0xb182(%rip),%rax        # 40c210 <__TMC_END__>
  40108e:	48 39 f8             	cmp    %rdi,%rax
  401091:	74 15                	je     4010a8 <deregister_tm_clones+0x28>
  401093:	48 c7 c0 00 00 00 00 	mov    $0x0,%rax
  40109a:	48 85 c0             	test   %rax,%rax
  40109d:	74 09                	je     4010a8 <deregister_tm_clones+0x28>
  40109f:	ff e0                	jmp    *%rax
  4010a1:	0f 1f 80 00 00 00 00 	nopl   0x0(%rax)
  4010a8:	c3                   	ret    
  4010a9:	0f 1f 80 00 00 00 00 	nopl   0x0(%rax)

00000000004010b0 <register_tm_clones>:
  4010b0:	48 8d 3d 59 b1 00 00 	lea    0xb159(%rip),%rdi        # 40c210 <__TMC_END__>
  4010b7:	48 8d 35 52 b1 00 00 	lea    0xb152(%rip),%rsi        # 40c210 <__TMC_END__>
  4010be:	48 29 fe             	sub    %rdi,%rsi
  4010c1:	48 89 f0             	mov    %rsi,%rax
  4010c4:	48 c1 ee 3f          	shr    $0x3f,%rsi
  4010c8:	48 c1 f8 03          	sar    $0x3,%rax
  4010cc:	48 01 c6             	add    %rax,%rsi
  4010cf:	48 d1 fe             	sar    %rsi
  4010d2:	74 14                	je     4010e8 <register_tm_clones+0x38>
  4010d4:	48 c7 c0 00 00 00 00 	mov    $0x0,%rax
  4010db:	48 85 c0             	test   %rax,%rax
  4010de:	74 08                	je     4010e8 <register_tm_clones+0x38>
  4010e0:	ff e0                	jmp    *%rax
  4010e2:	66 0f 1f 44 00 00    	nopw   0x0(%rax,%rax,1)
  4010e8:	c3                   	ret    
  4010e9:	0f 1f 80 00 00 00 00 	nopl   0x0(%rax)

00000000004010f0 <__do_global_dtors_aux>:
  4010f0:	f3 0f 1e fa          	endbr64 
  4010f4:	80 3d 25 b1 00 00 00 	cmpb   $0x0,0xb125(%rip)        # 40c220 <completed.0>
  4010fb:	75 2b                	jne    401128 <__do_global_dtors_aux+0x38>
  4010fd:	55                   	push   %rbp
  4010fe:	48 83 3d da ae 00 00 	cmpq   $0x0,0xaeda(%rip)        # 40bfe0 <__bump_lockptr+0x8>
  401105:	00 
  401106:	48 89 e5             	mov    %rsp,%rbp
  401109:	74 0c                	je     401117 <__do_global_dtors_aux+0x27>
  40110b:	48 8b 3d ee ae 00 00 	mov    0xaeee(%rip),%rdi        # 40c000 <__dso_handle>
  401112:	e8 e9 ee bf ff       	call   0 <_init-0x401000>
  401117:	e8 64 ff ff ff       	call   401080 <deregister_tm_clones>
  40111c:	c6 05 fd b0 00 00 01 	movb   $0x1,0xb0fd(%rip)        # 40c220 <completed.0>
  401123:	5d                   	pop    %rbp
  401124:	c3                   	ret    
  401125:	0f 1f 00             	nopl   (%rax)
  401128:	c3                   	ret    
  401129:	0f 1f 80 00 00 00 00 	nopl   0x0(%rax)

0000000000401130 <frame_dummy>:
  401130:	f3 0f 1e fa          	endbr64 
  401134:	e9 77 ff ff ff       	jmp    4010b0 <register_tm_clones>

0000000000401139 <clean_exit_on_sig>:
  401139:	f3 0f 1e fa          	endbr64 
  40113d:	55                   	push   %rbp
  40113e:	48 89 e5             	mov    %rsp,%rbp
  401141:	48 83 ec 10          	sub    $0x10,%rsp
  401145:	89 7d fc             	mov    %edi,-0x4(%rbp)
  401148:	48 8d 05 65 91 00 00 	lea    0x9165(%rip),%rax        # 40a2b4 <puzzle_x86_64+0x2b4>
  40114f:	48 89 c7             	mov    %rax,%rdi
  401152:	e8 b9 17 00 00       	call   402910 <puts>
  401157:	48 8b 05 aa ae 00 00 	mov    0xaeaa(%rip),%rax        # 40c008 <BENNY_GREETINGS>
  40115e:	48 89 c7             	mov    %rax,%rdi
  401161:	e8 aa 17 00 00       	call   402910 <puts>
  401166:	48 8b 05 5b ae 00 00 	mov    0xae5b(%rip),%rax        # 40bfc8 <stdout>
  40116d:	48 89 c7             	mov    %rax,%rdi
  401170:	e8 db 15 00 00       	call   402750 <fflush>
  401175:	bf 00 00 00 00       	mov    $0x0,%edi
  40117a:	e8 91 fe ff ff       	call   401010 <exit>

000000000040117f <flag>:
  40117f:	f3 0f 1e fa          	endbr64 
  401183:	55                   	push   %rbp
  401184:	48 89 e5             	mov    %rsp,%rbp
  401187:	48 83 ec 40          	sub    $0x40,%rsp
  40118b:	64 48 8b 04 25 28 00 	mov    %fs:0x28,%rax
  401192:	00 00 
  401194:	48 89 45 f8          	mov    %rax,-0x8(%rbp)
  401198:	31 c0                	xor    %eax,%eax
  40119a:	48 c7 45 d0 00 00 00 	movq   $0x0,-0x30(%rbp)
  4011a1:	00 
  4011a2:	48 c7 45 d8 00 00 00 	movq   $0x0,-0x28(%rbp)
  4011a9:	00 
  4011aa:	48 c7 45 e0 00 00 00 	movq   $0x0,-0x20(%rbp)
  4011b1:	00 
  4011b2:	48 c7 45 e8 00 00 00 	movq   $0x0,-0x18(%rbp)
  4011b9:	00 
  4011ba:	be 00 00 00 00       	mov    $0x0,%esi
  4011bf:	48 8d 05 ef 90 00 00 	lea    0x90ef(%rip),%rax        # 40a2b5 <puzzle_x86_64+0x2b5>
  4011c6:	48 89 c7             	mov    %rax,%rdi
  4011c9:	b8 00 00 00 00       	mov    $0x0,%eax
  4011ce:	e8 ed 12 00 00       	call   4024c0 <open>
  4011d3:	89 45 cc             	mov    %eax,-0x34(%rbp)
  4011d6:	48 8d 4d d0          	lea    -0x30(%rbp),%rcx
  4011da:	8b 45 cc             	mov    -0x34(%rbp),%eax
  4011dd:	ba 20 00 00 00       	mov    $0x20,%edx
  4011e2:	48 89 ce             	mov    %rcx,%rsi
  4011e5:	89 c7                	mov    %eax,%edi
  4011e7:	e8 44 1b 00 00       	call   402d30 <read>
  4011ec:	8b 45 cc             	mov    -0x34(%rbp),%eax
  4011ef:	89 c7                	mov    %eax,%edi
  4011f1:	e8 ea 1a 00 00       	call   402ce0 <close>
  4011f6:	48 8d 45 d0          	lea    -0x30(%rbp),%rax
  4011fa:	48 89 c7             	mov    %rax,%rdi
  4011fd:	e8 0e 17 00 00       	call   402910 <puts>
  401202:	48 8b 05 bf ad 00 00 	mov    0xadbf(%rip),%rax        # 40bfc8 <stdout>
  401209:	48 89 c7             	mov    %rax,%rdi
  40120c:	e8 3f 15 00 00       	call   402750 <fflush>
  401211:	90                   	nop
  401212:	48 8b 45 f8          	mov    -0x8(%rbp),%rax
  401216:	64 48 2b 04 25 28 00 	sub    %fs:0x28,%rax
  40121d:	00 00 
  40121f:	74 05                	je     401226 <flag+0xa7>
  401221:	e8 3a 12 00 00       	call   402460 <__stack_chk_fail>
  401226:	c9                   	leave  
  401227:	c3                   	ret    

0000000000401228 <__libc_init_1>:
  401228:	f3 0f 1e fa          	endbr64 
  40122c:	55                   	push   %rbp
  40122d:	48 89 e5             	mov    %rsp,%rbp
  401230:	48 83 ec 40          	sub    $0x40,%rsp
  401234:	64 48 8b 04 25 28 00 	mov    %fs:0x28,%rax
  40123b:	00 00 
  40123d:	48 89 45 f8          	mov    %rax,-0x8(%rbp)
  401241:	31 c0                	xor    %eax,%eax
  401243:	48 c7 45 d0 00 00 00 	movq   $0x0,-0x30(%rbp)
  40124a:	00 
  40124b:	48 c7 45 d8 00 00 00 	movq   $0x0,-0x28(%rbp)
  401252:	00 
  401253:	48 c7 45 e0 00 00 00 	movq   $0x0,-0x20(%rbp)
  40125a:	00 
  40125b:	48 c7 45 e8 00 00 00 	movq   $0x0,-0x18(%rbp)
  401262:	00 
  401263:	be 00 00 00 00       	mov    $0x0,%esi
  401268:	48 8d 05 46 90 00 00 	lea    0x9046(%rip),%rax        # 40a2b5 <puzzle_x86_64+0x2b5>
  40126f:	48 89 c7             	mov    %rax,%rdi
  401272:	b8 00 00 00 00       	mov    $0x0,%eax
  401277:	e8 44 12 00 00       	call   4024c0 <open>
  40127c:	89 45 cc             	mov    %eax,-0x34(%rbp)
  40127f:	48 8d 4d d0          	lea    -0x30(%rbp),%rcx
  401283:	8b 45 cc             	mov    -0x34(%rbp),%eax
  401286:	ba 20 00 00 00       	mov    $0x20,%edx
  40128b:	48 89 ce             	mov    %rcx,%rsi
  40128e:	89 c7                	mov    %eax,%edi
  401290:	e8 9b 1a 00 00       	call   402d30 <read>
  401295:	8b 45 cc             	mov    -0x34(%rbp),%eax
  401298:	89 c7                	mov    %eax,%edi
  40129a:	e8 41 1a 00 00       	call   402ce0 <close>
  40129f:	48 8d 45 d0          	lea    -0x30(%rbp),%rax
  4012a3:	48 89 c7             	mov    %rax,%rdi
  4012a6:	e8 65 16 00 00       	call   402910 <puts>
  4012ab:	48 8b 05 16 ad 00 00 	mov    0xad16(%rip),%rax        # 40bfc8 <stdout>
  4012b2:	48 89 c7             	mov    %rax,%rdi
  4012b5:	e8 96 14 00 00       	call   402750 <fflush>
  4012ba:	90                   	nop
  4012bb:	48 8b 45 f8          	mov    -0x8(%rbp),%rax
  4012bf:	64 48 2b 04 25 28 00 	sub    %fs:0x28,%rax
  4012c6:	00 00 
  4012c8:	74 05                	je     4012cf <__libc_init_1+0xa7>
  4012ca:	e8 91 11 00 00       	call   402460 <__stack_chk_fail>
  4012cf:	c9                   	leave  
  4012d0:	c3                   	ret    

00000000004012d1 <__libc_deinit_1>:
  4012d1:	f3 0f 1e fa          	endbr64 
  4012d5:	55                   	push   %rbp
  4012d6:	48 89 e5             	mov    %rsp,%rbp
  4012d9:	48 83 ec 40          	sub    $0x40,%rsp
  4012dd:	64 48 8b 04 25 28 00 	mov    %fs:0x28,%rax
  4012e4:	00 00 
  4012e6:	48 89 45 f8          	mov    %rax,-0x8(%rbp)
  4012ea:	31 c0                	xor    %eax,%eax
  4012ec:	90                   	nop
  4012ed:	90                   	nop
  4012ee:	90                   	nop
  4012ef:	90                   	nop
  4012f0:	90                   	nop
  4012f1:	90                   	nop
  4012f2:	90                   	nop
  4012f3:	90                   	nop
  4012f4:	90                   	nop
  4012f5:	90                   	nop
  4012f6:	90                   	nop
  4012f7:	90                   	nop
  4012f8:	90                   	nop
  4012f9:	90                   	nop
  4012fa:	90                   	nop
  4012fb:	90                   	nop
  4012fc:	90                   	nop
  4012fd:	90                   	nop
  4012fe:	90                   	nop
  4012ff:	90                   	nop
  401300:	90                   	nop
  401301:	90                   	nop
  401302:	90                   	nop
  401303:	90                   	nop
  401304:	90                   	nop
  401305:	90                   	nop
  401306:	90                   	nop
  401307:	90                   	nop
  401308:	90                   	nop
  401309:	90                   	nop
  40130a:	90                   	nop
  40130b:	90                   	nop
  40130c:	90                   	nop
  40130d:	90                   	nop
  40130e:	90                   	nop
  40130f:	90                   	nop
  401310:	90                   	nop
  401311:	90                   	nop
  401312:	90                   	nop
  401313:	90                   	nop
  401314:	90                   	nop
  401315:	90                   	nop
  401316:	90                   	nop
  401317:	90                   	nop
  401318:	90                   	nop
  401319:	90                   	nop
  40131a:	90                   	nop
  40131b:	90                   	nop
  40131c:	90                   	nop
  40131d:	90                   	nop
  40131e:	90                   	nop
  40131f:	90                   	nop
  401320:	90                   	nop
  401321:	90                   	nop
  401322:	90                   	nop
  401323:	90                   	nop
  401324:	90                   	nop
  401325:	90                   	nop
  401326:	90                   	nop
  401327:	90                   	nop
  401328:	90                   	nop
  401329:	90                   	nop
  40132a:	90                   	nop
  40132b:	90                   	nop
  40132c:	90                   	nop
  40132d:	90                   	nop
  40132e:	90                   	nop
  40132f:	90                   	nop
  401330:	90                   	nop
  401331:	90                   	nop
  401332:	90                   	nop
  401333:	90                   	nop
  401334:	90                   	nop
  401335:	90                   	nop
  401336:	90                   	nop
  401337:	90                   	nop
  401338:	90                   	nop
  401339:	90                   	nop
  40133a:	90                   	nop
  40133b:	90                   	nop
  40133c:	90                   	nop
  40133d:	90                   	nop
  40133e:	90                   	nop
  40133f:	90                   	nop
  401340:	90                   	nop
  401341:	90                   	nop
  401342:	90                   	nop
  401343:	90                   	nop
  401344:	90                   	nop
  401345:	90                   	nop
  401346:	90                   	nop
  401347:	90                   	nop
  401348:	90                   	nop
  401349:	90                   	nop
  40134a:	90                   	nop
  40134b:	90                   	nop
  40134c:	90                   	nop
  40134d:	90                   	nop
  40134e:	90                   	nop
  40134f:	90                   	nop
  401350:	90                   	nop
  401351:	90                   	nop
  401352:	90                   	nop
  401353:	90                   	nop
  401354:	90                   	nop
  401355:	90                   	nop
  401356:	90                   	nop
  401357:	90                   	nop
  401358:	90                   	nop
  401359:	90                   	nop
  40135a:	90                   	nop
  40135b:	90                   	nop
  40135c:	90                   	nop
  40135d:	90                   	nop
  40135e:	90                   	nop
  40135f:	90                   	nop
  401360:	90                   	nop
  401361:	90                   	nop
  401362:	90                   	nop
  401363:	90                   	nop
  401364:	90                   	nop
  401365:	90                   	nop
  401366:	90                   	nop
  401367:	90                   	nop
  401368:	90                   	nop
  401369:	90                   	nop
  40136a:	90                   	nop
  40136b:	90                   	nop
  40136c:	90                   	nop
  40136d:	90                   	nop
  40136e:	90                   	nop
  40136f:	90                   	nop
  401370:	90                   	nop
  401371:	90                   	nop
  401372:	90                   	nop
  401373:	90                   	nop
  401374:	90                   	nop
  401375:	90                   	nop
  401376:	90                   	nop
  401377:	90                   	nop
  401378:	90                   	nop
  401379:	90                   	nop
  40137a:	90                   	nop
  40137b:	90                   	nop
  40137c:	90                   	nop
  40137d:	90                   	nop
  40137e:	90                   	nop
  40137f:	90                   	nop
  401380:	90                   	nop
  401381:	90                   	nop
  401382:	90                   	nop
  401383:	90                   	nop
  401384:	90                   	nop
  401385:	90                   	nop
  401386:	90                   	nop
  401387:	90                   	nop
  401388:	90                   	nop
  401389:	90                   	nop
  40138a:	90                   	nop
  40138b:	90                   	nop
  40138c:	90                   	nop
  40138d:	90                   	nop
  40138e:	90                   	nop
  40138f:	90                   	nop
  401390:	90                   	nop
  401391:	90                   	nop
  401392:	90                   	nop
  401393:	90                   	nop
  401394:	90                   	nop
  401395:	90                   	nop
  401396:	90                   	nop
  401397:	90                   	nop
  401398:	90                   	nop
  401399:	90                   	nop
  40139a:	90                   	nop
  40139b:	90                   	nop
  40139c:	90                   	nop
  40139d:	90                   	nop
  40139e:	90                   	nop
  40139f:	90                   	nop
  4013a0:	90                   	nop
  4013a1:	90                   	nop
  4013a2:	90                   	nop
  4013a3:	90                   	nop
  4013a4:	90                   	nop
  4013a5:	90                   	nop
  4013a6:	90                   	nop
  4013a7:	90                   	nop
  4013a8:	90                   	nop
  4013a9:	90                   	nop
  4013aa:	90                   	nop
  4013ab:	90                   	nop
  4013ac:	90                   	nop
  4013ad:	90                   	nop
  4013ae:	90                   	nop
  4013af:	90                   	nop
  4013b0:	90                   	nop
  4013b1:	90                   	nop
  4013b2:	90                   	nop
  4013b3:	90                   	nop
  4013b4:	90                   	nop
  4013b5:	90                   	nop
  4013b6:	90                   	nop
  4013b7:	90                   	nop
  4013b8:	90                   	nop
  4013b9:	90                   	nop
  4013ba:	90                   	nop
  4013bb:	90                   	nop
  4013bc:	90                   	nop
  4013bd:	90                   	nop
  4013be:	90                   	nop
  4013bf:	90                   	nop
  4013c0:	90                   	nop
  4013c1:	90                   	nop
  4013c2:	90                   	nop
  4013c3:	90                   	nop
  4013c4:	90                   	nop
  4013c5:	90                   	nop
  4013c6:	90                   	nop
  4013c7:	90                   	nop
  4013c8:	90                   	nop
  4013c9:	90                   	nop
  4013ca:	90                   	nop
  4013cb:	90                   	nop
  4013cc:	90                   	nop
  4013cd:	90                   	nop
  4013ce:	90                   	nop
  4013cf:	90                   	nop
  4013d0:	90                   	nop
  4013d1:	90                   	nop
  4013d2:	90                   	nop
  4013d3:	90                   	nop
  4013d4:	90                   	nop
  4013d5:	90                   	nop
  4013d6:	90                   	nop
  4013d7:	90                   	nop
  4013d8:	90                   	nop
  4013d9:	90                   	nop
  4013da:	90                   	nop
  4013db:	90                   	nop
  4013dc:	90                   	nop
  4013dd:	90                   	nop
  4013de:	90                   	nop
  4013df:	90                   	nop
  4013e0:	90                   	nop
  4013e1:	90                   	nop
  4013e2:	90                   	nop
  4013e3:	90                   	nop
  4013e4:	90                   	nop
  4013e5:	90                   	nop
  4013e6:	90                   	nop
  4013e7:	90                   	nop
  4013e8:	90                   	nop
  4013e9:	90                   	nop
  4013ea:	90                   	nop
  4013eb:	90                   	nop
  4013ec:	90                   	nop
  4013ed:	90                   	nop
  4013ee:	90                   	nop
  4013ef:	90                   	nop
  4013f0:	90                   	nop
  4013f1:	90                   	nop
  4013f2:	90                   	nop
  4013f3:	90                   	nop
  4013f4:	90                   	nop
  4013f5:	90                   	nop
  4013f6:	90                   	nop
  4013f7:	90                   	nop
  4013f8:	90                   	nop
  4013f9:	90                   	nop
  4013fa:	90                   	nop
  4013fb:	90                   	nop
  4013fc:	90                   	nop
  4013fd:	90                   	nop
  4013fe:	90                   	nop
  4013ff:	90                   	nop
  401400:	90                   	nop
  401401:	90                   	nop
  401402:	90                   	nop
  401403:	90                   	nop
  401404:	90                   	nop
  401405:	90                   	nop
  401406:	90                   	nop
  401407:	90                   	nop
  401408:	90                   	nop
  401409:	90                   	nop
  40140a:	90                   	nop
  40140b:	90                   	nop
  40140c:	90                   	nop
  40140d:	90                   	nop
  40140e:	90                   	nop
  40140f:	90                   	nop
  401410:	90                   	nop
  401411:	90                   	nop
  401412:	90                   	nop
  401413:	90                   	nop
  401414:	90                   	nop
  401415:	90                   	nop
  401416:	90                   	nop
  401417:	90                   	nop
  401418:	90                   	nop
  401419:	90                   	nop
  40141a:	90                   	nop
  40141b:	90                   	nop
  40141c:	90                   	nop
  40141d:	90                   	nop
  40141e:	90                   	nop
  40141f:	90                   	nop
  401420:	90                   	nop
  401421:	90                   	nop
  401422:	90                   	nop
  401423:	90                   	nop
  401424:	90                   	nop
  401425:	90                   	nop
  401426:	90                   	nop
  401427:	90                   	nop
  401428:	90                   	nop
  401429:	90                   	nop
  40142a:	90                   	nop
  40142b:	90                   	nop
  40142c:	90                   	nop
  40142d:	90                   	nop
  40142e:	90                   	nop
  40142f:	90                   	nop
  401430:	90                   	nop
  401431:	90                   	nop
  401432:	90                   	nop
  401433:	90                   	nop
  401434:	90                   	nop
  401435:	90                   	nop
  401436:	90                   	nop
  401437:	90                   	nop
  401438:	90                   	nop
  401439:	90                   	nop
  40143a:	90                   	nop
  40143b:	90                   	nop
  40143c:	90                   	nop
  40143d:	90                   	nop
  40143e:	90                   	nop
  40143f:	90                   	nop
  401440:	90                   	nop
  401441:	90                   	nop
  401442:	90                   	nop
  401443:	90                   	nop
  401444:	90                   	nop
  401445:	90                   	nop
  401446:	90                   	nop
  401447:	90                   	nop
  401448:	90                   	nop
  401449:	90                   	nop
  40144a:	90                   	nop
  40144b:	90                   	nop
  40144c:	90                   	nop
  40144d:	90                   	nop
  40144e:	90                   	nop
  40144f:	90                   	nop
  401450:	90                   	nop
  401451:	90                   	nop
  401452:	90                   	nop
  401453:	90                   	nop
  401454:	90                   	nop
  401455:	90                   	nop
  401456:	90                   	nop
  401457:	90                   	nop
  401458:	90                   	nop
  401459:	90                   	nop
  40145a:	90                   	nop
  40145b:	90                   	nop
  40145c:	90                   	nop
  40145d:	90                   	nop
  40145e:	90                   	nop
  40145f:	90                   	nop
  401460:	90                   	nop
  401461:	90                   	nop
  401462:	90                   	nop
  401463:	90                   	nop
  401464:	90                   	nop
  401465:	90                   	nop
  401466:	90                   	nop
  401467:	90                   	nop
  401468:	90                   	nop
  401469:	90                   	nop
  40146a:	90                   	nop
  40146b:	90                   	nop
  40146c:	90                   	nop
  40146d:	90                   	nop
  40146e:	90                   	nop
  40146f:	90                   	nop
  401470:	90                   	nop
  401471:	90                   	nop
  401472:	90                   	nop
  401473:	90                   	nop
  401474:	90                   	nop
  401475:	90                   	nop
  401476:	90                   	nop
  401477:	90                   	nop
  401478:	90                   	nop
  401479:	90                   	nop
  40147a:	90                   	nop
  40147b:	90                   	nop
  40147c:	90                   	nop
  40147d:	90                   	nop
  40147e:	90                   	nop
  40147f:	90                   	nop
  401480:	90                   	nop
  401481:	90                   	nop
  401482:	90                   	nop
  401483:	90                   	nop
  401484:	90                   	nop
  401485:	90                   	nop
  401486:	90                   	nop
  401487:	90                   	nop
  401488:	90                   	nop
  401489:	90                   	nop
  40148a:	90                   	nop
  40148b:	90                   	nop
  40148c:	90                   	nop
  40148d:	90                   	nop
  40148e:	90                   	nop
  40148f:	90                   	nop
  401490:	90                   	nop
  401491:	90                   	nop
  401492:	90                   	nop
  401493:	90                   	nop
  401494:	90                   	nop
  401495:	90                   	nop
  401496:	90                   	nop
  401497:	90                   	nop
  401498:	90                   	nop
  401499:	90                   	nop
  40149a:	90                   	nop
  40149b:	90                   	nop
  40149c:	90                   	nop
  40149d:	90                   	nop
  40149e:	90                   	nop
  40149f:	90                   	nop
  4014a0:	90                   	nop
  4014a1:	90                   	nop
  4014a2:	90                   	nop
  4014a3:	90                   	nop
  4014a4:	90                   	nop
  4014a5:	90                   	nop
  4014a6:	90                   	nop
  4014a7:	90                   	nop
  4014a8:	90                   	nop
  4014a9:	90                   	nop
  4014aa:	90                   	nop
  4014ab:	90                   	nop
  4014ac:	90                   	nop
  4014ad:	90                   	nop
  4014ae:	90                   	nop
  4014af:	90                   	nop
  4014b0:	90                   	nop
  4014b1:	90                   	nop
  4014b2:	90                   	nop
  4014b3:	90                   	nop
  4014b4:	90                   	nop
  4014b5:	90                   	nop
  4014b6:	90                   	nop
  4014b7:	90                   	nop
  4014b8:	90                   	nop
  4014b9:	90                   	nop
  4014ba:	90                   	nop
  4014bb:	90                   	nop
  4014bc:	90                   	nop
  4014bd:	90                   	nop
  4014be:	90                   	nop
  4014bf:	90                   	nop
  4014c0:	90                   	nop
  4014c1:	90                   	nop
  4014c2:	90                   	nop
  4014c3:	90                   	nop
  4014c4:	90                   	nop
  4014c5:	90                   	nop
  4014c6:	90                   	nop
  4014c7:	90                   	nop
  4014c8:	90                   	nop
  4014c9:	90                   	nop
  4014ca:	90                   	nop
  4014cb:	90                   	nop
  4014cc:	90                   	nop
  4014cd:	90                   	nop
  4014ce:	90                   	nop
  4014cf:	90                   	nop
  4014d0:	90                   	nop
  4014d1:	90                   	nop
  4014d2:	90                   	nop
  4014d3:	90                   	nop
  4014d4:	90                   	nop
  4014d5:	90                   	nop
  4014d6:	90                   	nop
  4014d7:	90                   	nop
  4014d8:	90                   	nop
  4014d9:	90                   	nop
  4014da:	90                   	nop
  4014db:	90                   	nop
  4014dc:	90                   	nop
  4014dd:	90                   	nop
  4014de:	90                   	nop
  4014df:	90                   	nop
  4014e0:	90                   	nop
  4014e1:	90                   	nop
  4014e2:	90                   	nop
  4014e3:	90                   	nop
  4014e4:	90                   	nop
  4014e5:	90                   	nop
  4014e6:	90                   	nop
  4014e7:	90                   	nop
  4014e8:	90                   	nop
  4014e9:	90                   	nop
  4014ea:	90                   	nop
  4014eb:	90                   	nop
  4014ec:	90                   	nop
  4014ed:	90                   	nop
  4014ee:	90                   	nop
  4014ef:	90                   	nop
  4014f0:	90                   	nop
  4014f1:	90                   	nop
  4014f2:	90                   	nop
  4014f3:	90                   	nop
  4014f4:	90                   	nop
  4014f5:	90                   	nop
  4014f6:	90                   	nop
  4014f7:	90                   	nop
  4014f8:	90                   	nop
  4014f9:	90                   	nop
  4014fa:	90                   	nop
  4014fb:	90                   	nop
  4014fc:	90                   	nop
  4014fd:	90                   	nop
  4014fe:	90                   	nop
  4014ff:	90                   	nop
  401500:	90                   	nop
  401501:	90                   	nop
  401502:	90                   	nop
  401503:	90                   	nop
  401504:	90                   	nop
  401505:	90                   	nop
  401506:	90                   	nop
  401507:	90                   	nop
  401508:	90                   	nop
  401509:	90                   	nop
  40150a:	90                   	nop
  40150b:	90                   	nop
  40150c:	90                   	nop
  40150d:	90                   	nop
  40150e:	90                   	nop
  40150f:	90                   	nop
  401510:	90                   	nop
  401511:	90                   	nop
  401512:	90                   	nop
  401513:	90                   	nop
  401514:	90                   	nop
  401515:	90                   	nop
  401516:	90                   	nop
  401517:	90                   	nop
  401518:	90                   	nop
  401519:	90                   	nop
  40151a:	90                   	nop
  40151b:	90                   	nop
  40151c:	90                   	nop
  40151d:	90                   	nop
  40151e:	90                   	nop
  40151f:	90                   	nop
  401520:	90                   	nop
  401521:	90                   	nop
  401522:	90                   	nop
  401523:	90                   	nop
  401524:	90                   	nop
  401525:	90                   	nop
  401526:	90                   	nop
  401527:	90                   	nop
  401528:	90                   	nop
  401529:	90                   	nop
  40152a:	90                   	nop
  40152b:	90                   	nop
  40152c:	90                   	nop
  40152d:	90                   	nop
  40152e:	90                   	nop
  40152f:	90                   	nop
  401530:	90                   	nop
  401531:	90                   	nop
  401532:	90                   	nop
  401533:	90                   	nop
  401534:	90                   	nop
  401535:	90                   	nop
  401536:	90                   	nop
  401537:	90                   	nop
  401538:	90                   	nop
  401539:	90                   	nop
  40153a:	90                   	nop
  40153b:	90                   	nop
  40153c:	90                   	nop
  40153d:	90                   	nop
  40153e:	90                   	nop
  40153f:	90                   	nop
  401540:	90                   	nop
  401541:	90                   	nop
  401542:	90                   	nop
  401543:	90                   	nop
  401544:	90                   	nop
  401545:	90                   	nop
  401546:	90                   	nop
  401547:	90                   	nop
  401548:	90                   	nop
  401549:	90                   	nop
  40154a:	90                   	nop
  40154b:	90                   	nop
  40154c:	90                   	nop
  40154d:	90                   	nop
  40154e:	90                   	nop
  40154f:	90                   	nop
  401550:	90                   	nop
  401551:	90                   	nop
  401552:	90                   	nop
  401553:	90                   	nop
  401554:	90                   	nop
  401555:	90                   	nop
  401556:	90                   	nop
  401557:	90                   	nop
  401558:	90                   	nop
  401559:	90                   	nop
  40155a:	90                   	nop
  40155b:	90                   	nop
  40155c:	90                   	nop
  40155d:	90                   	nop
  40155e:	90                   	nop
  40155f:	90                   	nop
  401560:	90                   	nop
  401561:	90                   	nop
  401562:	90                   	nop
  401563:	90                   	nop
  401564:	90                   	nop
  401565:	90                   	nop
  401566:	90                   	nop
  401567:	90                   	nop
  401568:	90                   	nop
  401569:	90                   	nop
  40156a:	90                   	nop
  40156b:	90                   	nop
  40156c:	90                   	nop
  40156d:	90                   	nop
  40156e:	90                   	nop
  40156f:	90                   	nop
  401570:	90                   	nop
  401571:	90                   	nop
  401572:	90                   	nop
  401573:	90                   	nop
  401574:	90                   	nop
  401575:	90                   	nop
  401576:	90                   	nop
  401577:	90                   	nop
  401578:	90                   	nop
  401579:	90                   	nop
  40157a:	90                   	nop
  40157b:	90                   	nop
  40157c:	90                   	nop
  40157d:	90                   	nop
  40157e:	90                   	nop
  40157f:	90                   	nop
  401580:	90                   	nop
  401581:	90                   	nop
  401582:	90                   	nop
  401583:	90                   	nop
  401584:	90                   	nop
  401585:	90                   	nop
  401586:	90                   	nop
  401587:	90                   	nop
  401588:	90                   	nop
  401589:	90                   	nop
  40158a:	90                   	nop
  40158b:	90                   	nop
  40158c:	90                   	nop
  40158d:	90                   	nop
  40158e:	90                   	nop
  40158f:	90                   	nop
  401590:	90                   	nop
  401591:	90                   	nop
  401592:	90                   	nop
  401593:	90                   	nop
  401594:	90                   	nop
  401595:	90                   	nop
  401596:	90                   	nop
  401597:	90                   	nop
  401598:	90                   	nop
  401599:	90                   	nop
  40159a:	90                   	nop
  40159b:	90                   	nop
  40159c:	90                   	nop
  40159d:	90                   	nop
  40159e:	90                   	nop
  40159f:	90                   	nop
  4015a0:	90                   	nop
  4015a1:	90                   	nop
  4015a2:	90                   	nop
  4015a3:	90                   	nop
  4015a4:	90                   	nop
  4015a5:	90                   	nop
  4015a6:	90                   	nop
  4015a7:	90                   	nop
  4015a8:	90                   	nop
  4015a9:	90                   	nop
  4015aa:	90                   	nop
  4015ab:	90                   	nop
  4015ac:	90                   	nop
  4015ad:	90                   	nop
  4015ae:	90                   	nop
  4015af:	90                   	nop
  4015b0:	90                   	nop
  4015b1:	90                   	nop
  4015b2:	90                   	nop
  4015b3:	90                   	nop
  4015b4:	90                   	nop
  4015b5:	90                   	nop
  4015b6:	90                   	nop
  4015b7:	90                   	nop
  4015b8:	90                   	nop
  4015b9:	90                   	nop
  4015ba:	90                   	nop
  4015bb:	90                   	nop
  4015bc:	90                   	nop
  4015bd:	90                   	nop
  4015be:	90                   	nop
  4015bf:	90                   	nop
  4015c0:	90                   	nop
  4015c1:	90                   	nop
  4015c2:	90                   	nop
  4015c3:	90                   	nop
  4015c4:	90                   	nop
  4015c5:	90                   	nop
  4015c6:	90                   	nop
  4015c7:	90                   	nop
  4015c8:	90                   	nop
  4015c9:	90                   	nop
  4015ca:	90                   	nop
  4015cb:	90                   	nop
  4015cc:	90                   	nop
  4015cd:	90                   	nop
  4015ce:	90                   	nop
  4015cf:	90                   	nop
  4015d0:	90                   	nop
  4015d1:	90                   	nop
  4015d2:	90                   	nop
  4015d3:	90                   	nop
  4015d4:	90                   	nop
  4015d5:	90                   	nop
  4015d6:	90                   	nop
  4015d7:	90                   	nop
  4015d8:	90                   	nop
  4015d9:	90                   	nop
  4015da:	90                   	nop
  4015db:	90                   	nop
  4015dc:	90                   	nop
  4015dd:	90                   	nop
  4015de:	90                   	nop
  4015df:	90                   	nop
  4015e0:	90                   	nop
  4015e1:	90                   	nop
  4015e2:	90                   	nop
  4015e3:	90                   	nop
  4015e4:	90                   	nop
  4015e5:	90                   	nop
  4015e6:	90                   	nop
  4015e7:	90                   	nop
  4015e8:	90                   	nop
  4015e9:	90                   	nop
  4015ea:	90                   	nop
  4015eb:	90                   	nop
  4015ec:	90                   	nop
  4015ed:	90                   	nop
  4015ee:	90                   	nop
  4015ef:	90                   	nop
  4015f0:	90                   	nop
  4015f1:	90                   	nop
  4015f2:	90                   	nop
  4015f3:	90                   	nop
  4015f4:	90                   	nop
  4015f5:	90                   	nop
  4015f6:	90                   	nop
  4015f7:	90                   	nop
  4015f8:	90                   	nop
  4015f9:	90                   	nop
  4015fa:	90                   	nop
  4015fb:	90                   	nop
  4015fc:	90                   	nop
  4015fd:	90                   	nop
  4015fe:	90                   	nop
  4015ff:	90                   	nop
  401600:	90                   	nop
  401601:	90                   	nop
  401602:	90                   	nop
  401603:	90                   	nop
  401604:	90                   	nop
  401605:	90                   	nop
  401606:	90                   	nop
  401607:	90                   	nop
  401608:	90                   	nop
  401609:	90                   	nop
  40160a:	90                   	nop
  40160b:	90                   	nop
  40160c:	90                   	nop
  40160d:	90                   	nop
  40160e:	90                   	nop
  40160f:	90                   	nop
  401610:	90                   	nop
  401611:	90                   	nop
  401612:	90                   	nop
  401613:	90                   	nop
  401614:	90                   	nop
  401615:	90                   	nop
  401616:	90                   	nop
  401617:	90                   	nop
  401618:	90                   	nop
  401619:	90                   	nop
  40161a:	90                   	nop
  40161b:	90                   	nop
  40161c:	90                   	nop
  40161d:	90                   	nop
  40161e:	90                   	nop
  40161f:	90                   	nop
  401620:	90                   	nop
  401621:	90                   	nop
  401622:	90                   	nop
  401623:	90                   	nop
  401624:	90                   	nop
  401625:	90                   	nop
  401626:	90                   	nop
  401627:	90                   	nop
  401628:	90                   	nop
  401629:	90                   	nop
  40162a:	90                   	nop
  40162b:	90                   	nop
  40162c:	90                   	nop
  40162d:	90                   	nop
  40162e:	90                   	nop
  40162f:	90                   	nop
  401630:	90                   	nop
  401631:	90                   	nop
  401632:	90                   	nop
  401633:	90                   	nop
  401634:	90                   	nop
  401635:	90                   	nop
  401636:	90                   	nop
  401637:	90                   	nop
  401638:	90                   	nop
  401639:	90                   	nop
  40163a:	90                   	nop
  40163b:	90                   	nop
  40163c:	90                   	nop
  40163d:	90                   	nop
  40163e:	90                   	nop
  40163f:	90                   	nop
  401640:	90                   	nop
  401641:	90                   	nop
  401642:	90                   	nop
  401643:	90                   	nop
  401644:	90                   	nop
  401645:	90                   	nop
  401646:	90                   	nop
  401647:	90                   	nop
  401648:	90                   	nop
  401649:	90                   	nop
  40164a:	90                   	nop
  40164b:	90                   	nop
  40164c:	90                   	nop
  40164d:	90                   	nop
  40164e:	90                   	nop
  40164f:	90                   	nop
  401650:	90                   	nop
  401651:	90                   	nop
  401652:	90                   	nop
  401653:	90                   	nop
  401654:	90                   	nop
  401655:	90                   	nop
  401656:	90                   	nop
  401657:	90                   	nop
  401658:	90                   	nop
  401659:	90                   	nop
  40165a:	90                   	nop
  40165b:	90                   	nop
  40165c:	90                   	nop
  40165d:	90                   	nop
  40165e:	90                   	nop
  40165f:	90                   	nop
  401660:	90                   	nop
  401661:	90                   	nop
  401662:	90                   	nop
  401663:	90                   	nop
  401664:	90                   	nop
  401665:	90                   	nop
  401666:	90                   	nop
  401667:	90                   	nop
  401668:	90                   	nop
  401669:	90                   	nop
  40166a:	90                   	nop
  40166b:	90                   	nop
  40166c:	90                   	nop
  40166d:	90                   	nop
  40166e:	90                   	nop
  40166f:	90                   	nop
  401670:	90                   	nop
  401671:	90                   	nop
  401672:	90                   	nop
  401673:	90                   	nop
  401674:	90                   	nop
  401675:	90                   	nop
  401676:	90                   	nop
  401677:	90                   	nop
  401678:	90                   	nop
  401679:	90                   	nop
  40167a:	90                   	nop
  40167b:	90                   	nop
  40167c:	90                   	nop
  40167d:	90                   	nop
  40167e:	90                   	nop
  40167f:	90                   	nop
  401680:	90                   	nop
  401681:	90                   	nop
  401682:	90                   	nop
  401683:	90                   	nop
  401684:	90                   	nop
  401685:	90                   	nop
  401686:	90                   	nop
  401687:	90                   	nop
  401688:	90                   	nop
  401689:	90                   	nop
  40168a:	90                   	nop
  40168b:	90                   	nop
  40168c:	90                   	nop
  40168d:	90                   	nop
  40168e:	90                   	nop
  40168f:	90                   	nop
  401690:	90                   	nop
  401691:	90                   	nop
  401692:	90                   	nop
  401693:	90                   	nop
  401694:	90                   	nop
  401695:	90                   	nop
  401696:	90                   	nop
  401697:	90                   	nop
  401698:	90                   	nop
  401699:	90                   	nop
  40169a:	90                   	nop
  40169b:	90                   	nop
  40169c:	90                   	nop
  40169d:	90                   	nop
  40169e:	90                   	nop
  40169f:	90                   	nop
  4016a0:	90                   	nop
  4016a1:	90                   	nop
  4016a2:	90                   	nop
  4016a3:	90                   	nop
  4016a4:	90                   	nop
  4016a5:	90                   	nop
  4016a6:	90                   	nop
  4016a7:	90                   	nop
  4016a8:	90                   	nop
  4016a9:	90                   	nop
  4016aa:	90                   	nop
  4016ab:	90                   	nop
  4016ac:	90                   	nop
  4016ad:	90                   	nop
  4016ae:	90                   	nop
  4016af:	90                   	nop
  4016b0:	90                   	nop
  4016b1:	90                   	nop
  4016b2:	90                   	nop
  4016b3:	90                   	nop
  4016b4:	90                   	nop
  4016b5:	90                   	nop
  4016b6:	90                   	nop
  4016b7:	90                   	nop
  4016b8:	90                   	nop
  4016b9:	90                   	nop
  4016ba:	90                   	nop
  4016bb:	90                   	nop
  4016bc:	90                   	nop
  4016bd:	90                   	nop
  4016be:	90                   	nop
  4016bf:	90                   	nop
  4016c0:	90                   	nop
  4016c1:	90                   	nop
  4016c2:	90                   	nop
  4016c3:	90                   	nop
  4016c4:	90                   	nop
  4016c5:	90                   	nop
  4016c6:	90                   	nop
  4016c7:	90                   	nop
  4016c8:	90                   	nop
  4016c9:	90                   	nop
  4016ca:	90                   	nop
  4016cb:	90                   	nop
  4016cc:	90                   	nop
  4016cd:	90                   	nop
  4016ce:	90                   	nop
  4016cf:	90                   	nop
  4016d0:	90                   	nop
  4016d1:	90                   	nop
  4016d2:	90                   	nop
  4016d3:	90                   	nop
  4016d4:	90                   	nop
  4016d5:	90                   	nop
  4016d6:	90                   	nop
  4016d7:	90                   	nop
  4016d8:	90                   	nop
  4016d9:	90                   	nop
  4016da:	90                   	nop
  4016db:	90                   	nop
  4016dc:	90                   	nop
  4016dd:	90                   	nop
  4016de:	90                   	nop
  4016df:	90                   	nop
  4016e0:	90                   	nop
  4016e1:	90                   	nop
  4016e2:	90                   	nop
  4016e3:	90                   	nop
  4016e4:	90                   	nop
  4016e5:	90                   	nop
  4016e6:	90                   	nop
  4016e7:	90                   	nop
  4016e8:	90                   	nop
  4016e9:	90                   	nop
  4016ea:	90                   	nop
  4016eb:	90                   	nop
  4016ec:	90                   	nop
  4016ed:	90                   	nop
  4016ee:	90                   	nop
  4016ef:	90                   	nop
  4016f0:	90                   	nop
  4016f1:	90                   	nop
  4016f2:	90                   	nop
  4016f3:	90                   	nop
  4016f4:	90                   	nop
  4016f5:	90                   	nop
  4016f6:	90                   	nop
  4016f7:	90                   	nop
  4016f8:	90                   	nop
  4016f9:	90                   	nop
  4016fa:	90                   	nop
  4016fb:	90                   	nop
  4016fc:	90                   	nop
  4016fd:	90                   	nop
  4016fe:	90                   	nop
  4016ff:	90                   	nop
  401700:	90                   	nop
  401701:	90                   	nop
  401702:	90                   	nop
  401703:	90                   	nop
  401704:	90                   	nop
  401705:	90                   	nop
  401706:	90                   	nop
  401707:	90                   	nop
  401708:	90                   	nop
  401709:	90                   	nop
  40170a:	90                   	nop
  40170b:	90                   	nop
  40170c:	90                   	nop
  40170d:	90                   	nop
  40170e:	90                   	nop
  40170f:	90                   	nop
  401710:	90                   	nop
  401711:	90                   	nop
  401712:	90                   	nop
  401713:	90                   	nop
  401714:	90                   	nop
  401715:	90                   	nop
  401716:	90                   	nop
  401717:	90                   	nop
  401718:	90                   	nop
  401719:	90                   	nop
  40171a:	90                   	nop
  40171b:	90                   	nop
  40171c:	90                   	nop
  40171d:	90                   	nop
  40171e:	90                   	nop
  40171f:	90                   	nop
  401720:	90                   	nop
  401721:	90                   	nop
  401722:	90                   	nop
  401723:	90                   	nop
  401724:	90                   	nop
  401725:	90                   	nop
  401726:	90                   	nop
  401727:	90                   	nop
  401728:	90                   	nop
  401729:	90                   	nop
  40172a:	90                   	nop
  40172b:	90                   	nop
  40172c:	90                   	nop
  40172d:	90                   	nop
  40172e:	90                   	nop
  40172f:	90                   	nop
  401730:	90                   	nop
  401731:	90                   	nop
  401732:	90                   	nop
  401733:	90                   	nop
  401734:	90                   	nop
  401735:	90                   	nop
  401736:	90                   	nop
  401737:	90                   	nop
  401738:	90                   	nop
  401739:	90                   	nop
  40173a:	90                   	nop
  40173b:	90                   	nop
  40173c:	90                   	nop
  40173d:	90                   	nop
  40173e:	90                   	nop
  40173f:	90                   	nop
  401740:	90                   	nop
  401741:	90                   	nop
  401742:	90                   	nop
  401743:	90                   	nop
  401744:	90                   	nop
  401745:	90                   	nop
  401746:	90                   	nop
  401747:	90                   	nop
  401748:	90                   	nop
  401749:	90                   	nop
  40174a:	90                   	nop
  40174b:	90                   	nop
  40174c:	90                   	nop
  40174d:	90                   	nop
  40174e:	90                   	nop
  40174f:	90                   	nop
  401750:	90                   	nop
  401751:	90                   	nop
  401752:	90                   	nop
  401753:	90                   	nop
  401754:	90                   	nop
  401755:	90                   	nop
  401756:	90                   	nop
  401757:	90                   	nop
  401758:	90                   	nop
  401759:	90                   	nop
  40175a:	90                   	nop
  40175b:	90                   	nop
  40175c:	90                   	nop
  40175d:	90                   	nop
  40175e:	90                   	nop
  40175f:	90                   	nop
  401760:	90                   	nop
  401761:	90                   	nop
  401762:	90                   	nop
  401763:	90                   	nop
  401764:	90                   	nop
  401765:	90                   	nop
  401766:	90                   	nop
  401767:	90                   	nop
  401768:	90                   	nop
  401769:	90                   	nop
  40176a:	90                   	nop
  40176b:	90                   	nop
  40176c:	90                   	nop
  40176d:	90                   	nop
  40176e:	90                   	nop
  40176f:	90                   	nop
  401770:	90                   	nop
  401771:	90                   	nop
  401772:	90                   	nop
  401773:	90                   	nop
  401774:	90                   	nop
  401775:	90                   	nop
  401776:	90                   	nop
  401777:	90                   	nop
  401778:	90                   	nop
  401779:	90                   	nop
  40177a:	90                   	nop
  40177b:	90                   	nop
  40177c:	90                   	nop
  40177d:	90                   	nop
  40177e:	90                   	nop
  40177f:	90                   	nop
  401780:	90                   	nop
  401781:	90                   	nop
  401782:	90                   	nop
  401783:	90                   	nop
  401784:	90                   	nop
  401785:	90                   	nop
  401786:	90                   	nop
  401787:	90                   	nop
  401788:	90                   	nop
  401789:	90                   	nop
  40178a:	90                   	nop
  40178b:	90                   	nop
  40178c:	90                   	nop
  40178d:	90                   	nop
  40178e:	90                   	nop
  40178f:	90                   	nop
  401790:	90                   	nop
  401791:	90                   	nop
  401792:	90                   	nop
  401793:	90                   	nop
  401794:	90                   	nop
  401795:	90                   	nop
  401796:	90                   	nop
  401797:	90                   	nop
  401798:	90                   	nop
  401799:	90                   	nop
  40179a:	90                   	nop
  40179b:	90                   	nop
  40179c:	90                   	nop
  40179d:	90                   	nop
  40179e:	90                   	nop
  40179f:	90                   	nop
  4017a0:	90                   	nop
  4017a1:	90                   	nop
  4017a2:	90                   	nop
  4017a3:	90                   	nop
  4017a4:	90                   	nop
  4017a5:	90                   	nop
  4017a6:	90                   	nop
  4017a7:	90                   	nop
  4017a8:	90                   	nop
  4017a9:	90                   	nop
  4017aa:	90                   	nop
  4017ab:	90                   	nop
  4017ac:	90                   	nop
  4017ad:	90                   	nop
  4017ae:	90                   	nop
  4017af:	90                   	nop
  4017b0:	90                   	nop
  4017b1:	90                   	nop
  4017b2:	90                   	nop
  4017b3:	90                   	nop
  4017b4:	90                   	nop
  4017b5:	90                   	nop
  4017b6:	90                   	nop
  4017b7:	90                   	nop
  4017b8:	90                   	nop
  4017b9:	90                   	nop
  4017ba:	90                   	nop
  4017bb:	90                   	nop
  4017bc:	90                   	nop
  4017bd:	90                   	nop
  4017be:	90                   	nop
  4017bf:	90                   	nop
  4017c0:	90                   	nop
  4017c1:	90                   	nop
  4017c2:	90                   	nop
  4017c3:	90                   	nop
  4017c4:	90                   	nop
  4017c5:	90                   	nop
  4017c6:	90                   	nop
  4017c7:	90                   	nop
  4017c8:	90                   	nop
  4017c9:	90                   	nop
  4017ca:	90                   	nop
  4017cb:	90                   	nop
  4017cc:	90                   	nop
  4017cd:	90                   	nop
  4017ce:	90                   	nop
  4017cf:	90                   	nop
  4017d0:	90                   	nop
  4017d1:	90                   	nop
  4017d2:	90                   	nop
  4017d3:	90                   	nop
  4017d4:	90                   	nop
  4017d5:	90                   	nop
  4017d6:	90                   	nop
  4017d7:	90                   	nop
  4017d8:	90                   	nop
  4017d9:	90                   	nop
  4017da:	90                   	nop
  4017db:	90                   	nop
  4017dc:	90                   	nop
  4017dd:	90                   	nop
  4017de:	90                   	nop
  4017df:	90                   	nop
  4017e0:	90                   	nop
  4017e1:	90                   	nop
  4017e2:	90                   	nop
  4017e3:	90                   	nop
  4017e4:	90                   	nop
  4017e5:	90                   	nop
  4017e6:	90                   	nop
  4017e7:	90                   	nop
  4017e8:	90                   	nop
  4017e9:	90                   	nop
  4017ea:	90                   	nop
  4017eb:	90                   	nop
  4017ec:	90                   	nop
  4017ed:	90                   	nop
  4017ee:	90                   	nop
  4017ef:	90                   	nop
  4017f0:	90                   	nop
  4017f1:	90                   	nop
  4017f2:	90                   	nop
  4017f3:	90                   	nop
  4017f4:	90                   	nop
  4017f5:	90                   	nop
  4017f6:	90                   	nop
  4017f7:	90                   	nop
  4017f8:	90                   	nop
  4017f9:	90                   	nop
  4017fa:	90                   	nop
  4017fb:	90                   	nop
  4017fc:	90                   	nop
  4017fd:	90                   	nop
  4017fe:	90                   	nop
  4017ff:	90                   	nop
  401800:	90                   	nop
  401801:	90                   	nop
  401802:	90                   	nop
  401803:	90                   	nop
  401804:	90                   	nop
  401805:	90                   	nop
  401806:	90                   	nop
  401807:	90                   	nop
  401808:	90                   	nop
  401809:	90                   	nop
  40180a:	90                   	nop
  40180b:	90                   	nop
  40180c:	90                   	nop
  40180d:	90                   	nop
  40180e:	90                   	nop
  40180f:	90                   	nop
  401810:	90                   	nop
  401811:	90                   	nop
  401812:	90                   	nop
  401813:	90                   	nop
  401814:	90                   	nop
  401815:	90                   	nop
  401816:	90                   	nop
  401817:	90                   	nop
  401818:	90                   	nop
  401819:	90                   	nop
  40181a:	90                   	nop
  40181b:	90                   	nop
  40181c:	90                   	nop
  40181d:	90                   	nop
  40181e:	90                   	nop
  40181f:	90                   	nop
  401820:	90                   	nop
  401821:	90                   	nop
  401822:	90                   	nop
  401823:	90                   	nop
  401824:	90                   	nop
  401825:	90                   	nop
  401826:	90                   	nop
  401827:	90                   	nop
  401828:	90                   	nop
  401829:	90                   	nop
  40182a:	90                   	nop
  40182b:	90                   	nop
  40182c:	90                   	nop
  40182d:	90                   	nop
  40182e:	90                   	nop
  40182f:	90                   	nop
  401830:	90                   	nop
  401831:	90                   	nop
  401832:	90                   	nop
  401833:	90                   	nop
  401834:	90                   	nop
  401835:	90                   	nop
  401836:	90                   	nop
  401837:	90                   	nop
  401838:	90                   	nop
  401839:	90                   	nop
  40183a:	90                   	nop
  40183b:	90                   	nop
  40183c:	90                   	nop
  40183d:	90                   	nop
  40183e:	90                   	nop
  40183f:	90                   	nop
  401840:	90                   	nop
  401841:	90                   	nop
  401842:	90                   	nop
  401843:	90                   	nop
  401844:	90                   	nop
  401845:	90                   	nop
  401846:	90                   	nop
  401847:	90                   	nop
  401848:	90                   	nop
  401849:	90                   	nop
  40184a:	90                   	nop
  40184b:	90                   	nop
  40184c:	90                   	nop
  40184d:	90                   	nop
  40184e:	90                   	nop
  40184f:	90                   	nop
  401850:	90                   	nop
  401851:	90                   	nop
  401852:	90                   	nop
  401853:	90                   	nop
  401854:	90                   	nop
  401855:	90                   	nop
  401856:	90                   	nop
  401857:	90                   	nop
  401858:	90                   	nop
  401859:	90                   	nop
  40185a:	90                   	nop
  40185b:	90                   	nop
  40185c:	90                   	nop
  40185d:	90                   	nop
  40185e:	90                   	nop
  40185f:	90                   	nop
  401860:	90                   	nop
  401861:	90                   	nop
  401862:	90                   	nop
  401863:	90                   	nop
  401864:	90                   	nop
  401865:	90                   	nop
  401866:	90                   	nop
  401867:	90                   	nop
  401868:	90                   	nop
  401869:	90                   	nop
  40186a:	90                   	nop
  40186b:	90                   	nop
  40186c:	90                   	nop
  40186d:	90                   	nop
  40186e:	90                   	nop
  40186f:	90                   	nop
  401870:	90                   	nop
  401871:	90                   	nop
  401872:	90                   	nop
  401873:	90                   	nop
  401874:	90                   	nop
  401875:	90                   	nop
  401876:	90                   	nop
  401877:	90                   	nop
  401878:	90                   	nop
  401879:	90                   	nop
  40187a:	90                   	nop
  40187b:	90                   	nop
  40187c:	90                   	nop
  40187d:	90                   	nop
  40187e:	90                   	nop
  40187f:	90                   	nop
  401880:	90                   	nop
  401881:	90                   	nop
  401882:	90                   	nop
  401883:	90                   	nop
  401884:	90                   	nop
  401885:	90                   	nop
  401886:	90                   	nop
  401887:	90                   	nop
  401888:	90                   	nop
  401889:	90                   	nop
  40188a:	90                   	nop
  40188b:	90                   	nop
  40188c:	90                   	nop
  40188d:	90                   	nop
  40188e:	90                   	nop
  40188f:	90                   	nop
  401890:	90                   	nop
  401891:	90                   	nop
  401892:	90                   	nop
  401893:	90                   	nop
  401894:	90                   	nop
  401895:	90                   	nop
  401896:	90                   	nop
  401897:	90                   	nop
  401898:	90                   	nop
  401899:	90                   	nop
  40189a:	90                   	nop
  40189b:	90                   	nop
  40189c:	90                   	nop
  40189d:	90                   	nop
  40189e:	90                   	nop
  40189f:	90                   	nop
  4018a0:	90                   	nop
  4018a1:	90                   	nop
  4018a2:	90                   	nop
  4018a3:	90                   	nop
  4018a4:	90                   	nop
  4018a5:	90                   	nop
  4018a6:	90                   	nop
  4018a7:	90                   	nop
  4018a8:	90                   	nop
  4018a9:	90                   	nop
  4018aa:	90                   	nop
  4018ab:	90                   	nop
  4018ac:	90                   	nop
  4018ad:	90                   	nop
  4018ae:	90                   	nop
  4018af:	90                   	nop
  4018b0:	90                   	nop
  4018b1:	90                   	nop
  4018b2:	90                   	nop
  4018b3:	90                   	nop
  4018b4:	90                   	nop
  4018b5:	90                   	nop
  4018b6:	90                   	nop
  4018b7:	90                   	nop
  4018b8:	90                   	nop
  4018b9:	90                   	nop
  4018ba:	90                   	nop
  4018bb:	90                   	nop
  4018bc:	90                   	nop
  4018bd:	90                   	nop
  4018be:	90                   	nop
  4018bf:	90                   	nop
  4018c0:	90                   	nop
  4018c1:	90                   	nop
  4018c2:	90                   	nop
  4018c3:	90                   	nop
  4018c4:	90                   	nop
  4018c5:	90                   	nop
  4018c6:	90                   	nop
  4018c7:	90                   	nop
  4018c8:	90                   	nop
  4018c9:	90                   	nop
  4018ca:	90                   	nop
  4018cb:	90                   	nop
  4018cc:	90                   	nop
  4018cd:	90                   	nop
  4018ce:	90                   	nop
  4018cf:	90                   	nop
  4018d0:	90                   	nop
  4018d1:	90                   	nop
  4018d2:	90                   	nop
  4018d3:	90                   	nop
  4018d4:	90                   	nop
  4018d5:	90                   	nop
  4018d6:	90                   	nop
  4018d7:	90                   	nop
  4018d8:	90                   	nop
  4018d9:	90                   	nop
  4018da:	90                   	nop
  4018db:	90                   	nop
  4018dc:	90                   	nop
  4018dd:	90                   	nop
  4018de:	90                   	nop
  4018df:	90                   	nop
  4018e0:	90                   	nop
  4018e1:	90                   	nop
  4018e2:	90                   	nop
  4018e3:	90                   	nop
  4018e4:	90                   	nop
  4018e5:	90                   	nop
  4018e6:	90                   	nop
  4018e7:	90                   	nop
  4018e8:	90                   	nop
  4018e9:	90                   	nop
  4018ea:	90                   	nop
  4018eb:	90                   	nop
  4018ec:	90                   	nop
  4018ed:	90                   	nop
  4018ee:	90                   	nop
  4018ef:	90                   	nop
  4018f0:	90                   	nop
  4018f1:	90                   	nop
  4018f2:	90                   	nop
  4018f3:	90                   	nop
  4018f4:	90                   	nop
  4018f5:	90                   	nop
  4018f6:	90                   	nop
  4018f7:	90                   	nop
  4018f8:	90                   	nop
  4018f9:	90                   	nop
  4018fa:	90                   	nop
  4018fb:	90                   	nop
  4018fc:	90                   	nop
  4018fd:	90                   	nop
  4018fe:	90                   	nop
  4018ff:	90                   	nop
  401900:	90                   	nop
  401901:	90                   	nop
  401902:	90                   	nop
  401903:	90                   	nop
  401904:	90                   	nop
  401905:	90                   	nop
  401906:	90                   	nop
  401907:	90                   	nop
  401908:	90                   	nop
  401909:	90                   	nop
  40190a:	90                   	nop
  40190b:	90                   	nop
  40190c:	90                   	nop
  40190d:	90                   	nop
  40190e:	90                   	nop
  40190f:	90                   	nop
  401910:	90                   	nop
  401911:	90                   	nop
  401912:	90                   	nop
  401913:	90                   	nop
  401914:	90                   	nop
  401915:	90                   	nop
  401916:	90                   	nop
  401917:	90                   	nop
  401918:	90                   	nop
  401919:	90                   	nop
  40191a:	90                   	nop
  40191b:	90                   	nop
  40191c:	90                   	nop
  40191d:	90                   	nop
  40191e:	90                   	nop
  40191f:	90                   	nop
  401920:	90                   	nop
  401921:	90                   	nop
  401922:	90                   	nop
  401923:	90                   	nop
  401924:	90                   	nop
  401925:	90                   	nop
  401926:	90                   	nop
  401927:	90                   	nop
  401928:	90                   	nop
  401929:	90                   	nop
  40192a:	90                   	nop
  40192b:	90                   	nop
  40192c:	90                   	nop
  40192d:	90                   	nop
  40192e:	90                   	nop
  40192f:	90                   	nop
  401930:	90                   	nop
  401931:	90                   	nop
  401932:	90                   	nop
  401933:	90                   	nop
  401934:	90                   	nop
  401935:	90                   	nop
  401936:	90                   	nop
  401937:	90                   	nop
  401938:	90                   	nop
  401939:	90                   	nop
  40193a:	90                   	nop
  40193b:	90                   	nop
  40193c:	90                   	nop
  40193d:	90                   	nop
  40193e:	90                   	nop
  40193f:	90                   	nop
  401940:	90                   	nop
  401941:	90                   	nop
  401942:	90                   	nop
  401943:	90                   	nop
  401944:	90                   	nop
  401945:	90                   	nop
  401946:	90                   	nop
  401947:	90                   	nop
  401948:	90                   	nop
  401949:	90                   	nop
  40194a:	90                   	nop
  40194b:	90                   	nop
  40194c:	90                   	nop
  40194d:	90                   	nop
  40194e:	90                   	nop
  40194f:	90                   	nop
  401950:	90                   	nop
  401951:	90                   	nop
  401952:	90                   	nop
  401953:	90                   	nop
  401954:	90                   	nop
  401955:	90                   	nop
  401956:	90                   	nop
  401957:	90                   	nop
  401958:	90                   	nop
  401959:	90                   	nop
  40195a:	90                   	nop
  40195b:	90                   	nop
  40195c:	90                   	nop
  40195d:	90                   	nop
  40195e:	90                   	nop
  40195f:	90                   	nop
  401960:	90                   	nop
  401961:	90                   	nop
  401962:	90                   	nop
  401963:	90                   	nop
  401964:	90                   	nop
  401965:	90                   	nop
  401966:	90                   	nop
  401967:	90                   	nop
  401968:	90                   	nop
  401969:	90                   	nop
  40196a:	90                   	nop
  40196b:	90                   	nop
  40196c:	90                   	nop
  40196d:	90                   	nop
  40196e:	90                   	nop
  40196f:	90                   	nop
  401970:	90                   	nop
  401971:	90                   	nop
  401972:	90                   	nop
  401973:	90                   	nop
  401974:	90                   	nop
  401975:	90                   	nop
  401976:	90                   	nop
  401977:	90                   	nop
  401978:	90                   	nop
  401979:	90                   	nop
  40197a:	90                   	nop
  40197b:	90                   	nop
  40197c:	90                   	nop
  40197d:	90                   	nop
  40197e:	90                   	nop
  40197f:	90                   	nop
  401980:	90                   	nop
  401981:	90                   	nop
  401982:	90                   	nop
  401983:	90                   	nop
  401984:	90                   	nop
  401985:	90                   	nop
  401986:	90                   	nop
  401987:	90                   	nop
  401988:	90                   	nop
  401989:	90                   	nop
  40198a:	90                   	nop
  40198b:	90                   	nop
  40198c:	90                   	nop
  40198d:	90                   	nop
  40198e:	90                   	nop
  40198f:	90                   	nop
  401990:	90                   	nop
  401991:	90                   	nop
  401992:	90                   	nop
  401993:	90                   	nop
  401994:	90                   	nop
  401995:	90                   	nop
  401996:	90                   	nop
  401997:	90                   	nop
  401998:	90                   	nop
  401999:	90                   	nop
  40199a:	90                   	nop
  40199b:	90                   	nop
  40199c:	90                   	nop
  40199d:	90                   	nop
  40199e:	90                   	nop
  40199f:	90                   	nop
  4019a0:	90                   	nop
  4019a1:	90                   	nop
  4019a2:	90                   	nop
  4019a3:	90                   	nop
  4019a4:	90                   	nop
  4019a5:	90                   	nop
  4019a6:	90                   	nop
  4019a7:	90                   	nop
  4019a8:	90                   	nop
  4019a9:	90                   	nop
  4019aa:	90                   	nop
  4019ab:	90                   	nop
  4019ac:	90                   	nop
  4019ad:	90                   	nop
  4019ae:	90                   	nop
  4019af:	90                   	nop
  4019b0:	90                   	nop
  4019b1:	90                   	nop
  4019b2:	90                   	nop
  4019b3:	90                   	nop
  4019b4:	90                   	nop
  4019b5:	90                   	nop
  4019b6:	90                   	nop
  4019b7:	90                   	nop
  4019b8:	90                   	nop
  4019b9:	90                   	nop
  4019ba:	90                   	nop
  4019bb:	90                   	nop
  4019bc:	90                   	nop
  4019bd:	90                   	nop
  4019be:	90                   	nop
  4019bf:	90                   	nop
  4019c0:	90                   	nop
  4019c1:	90                   	nop
  4019c2:	90                   	nop
  4019c3:	90                   	nop
  4019c4:	90                   	nop
  4019c5:	90                   	nop
  4019c6:	90                   	nop
  4019c7:	90                   	nop
  4019c8:	90                   	nop
  4019c9:	90                   	nop
  4019ca:	90                   	nop
  4019cb:	90                   	nop
  4019cc:	90                   	nop
  4019cd:	90                   	nop
  4019ce:	90                   	nop
  4019cf:	90                   	nop
  4019d0:	90                   	nop
  4019d1:	90                   	nop
  4019d2:	90                   	nop
  4019d3:	90                   	nop
  4019d4:	90                   	nop
  4019d5:	90                   	nop
  4019d6:	90                   	nop
  4019d7:	90                   	nop
  4019d8:	90                   	nop
  4019d9:	90                   	nop
  4019da:	90                   	nop
  4019db:	90                   	nop
  4019dc:	90                   	nop
  4019dd:	90                   	nop
  4019de:	90                   	nop
  4019df:	90                   	nop
  4019e0:	90                   	nop
  4019e1:	90                   	nop
  4019e2:	90                   	nop
  4019e3:	90                   	nop
  4019e4:	90                   	nop
  4019e5:	90                   	nop
  4019e6:	90                   	nop
  4019e7:	90                   	nop
  4019e8:	90                   	nop
  4019e9:	90                   	nop
  4019ea:	90                   	nop
  4019eb:	90                   	nop
  4019ec:	90                   	nop
  4019ed:	90                   	nop
  4019ee:	90                   	nop
  4019ef:	90                   	nop
  4019f0:	90                   	nop
  4019f1:	90                   	nop
  4019f2:	90                   	nop
  4019f3:	90                   	nop
  4019f4:	90                   	nop
  4019f5:	90                   	nop
  4019f6:	90                   	nop
  4019f7:	90                   	nop
  4019f8:	90                   	nop
  4019f9:	90                   	nop
  4019fa:	90                   	nop
  4019fb:	90                   	nop
  4019fc:	90                   	nop
  4019fd:	90                   	nop
  4019fe:	90                   	nop
  4019ff:	90                   	nop
  401a00:	90                   	nop
  401a01:	90                   	nop
  401a02:	90                   	nop
  401a03:	90                   	nop
  401a04:	90                   	nop
  401a05:	90                   	nop
  401a06:	90                   	nop
  401a07:	90                   	nop
  401a08:	90                   	nop
  401a09:	90                   	nop
  401a0a:	90                   	nop
  401a0b:	90                   	nop
  401a0c:	90                   	nop
  401a0d:	90                   	nop
  401a0e:	90                   	nop
  401a0f:	90                   	nop
  401a10:	90                   	nop
  401a11:	90                   	nop
  401a12:	90                   	nop
  401a13:	90                   	nop
  401a14:	90                   	nop
  401a15:	90                   	nop
  401a16:	90                   	nop
  401a17:	90                   	nop
  401a18:	90                   	nop
  401a19:	90                   	nop
  401a1a:	90                   	nop
  401a1b:	90                   	nop
  401a1c:	90                   	nop
  401a1d:	90                   	nop
  401a1e:	90                   	nop
  401a1f:	90                   	nop
  401a20:	90                   	nop
  401a21:	90                   	nop
  401a22:	90                   	nop
  401a23:	90                   	nop
  401a24:	90                   	nop
  401a25:	90                   	nop
  401a26:	90                   	nop
  401a27:	90                   	nop
  401a28:	90                   	nop
  401a29:	90                   	nop
  401a2a:	90                   	nop
  401a2b:	90                   	nop
  401a2c:	90                   	nop
  401a2d:	90                   	nop
  401a2e:	90                   	nop
  401a2f:	90                   	nop
  401a30:	90                   	nop
  401a31:	90                   	nop
  401a32:	90                   	nop
  401a33:	90                   	nop
  401a34:	90                   	nop
  401a35:	90                   	nop
  401a36:	90                   	nop
  401a37:	90                   	nop
  401a38:	90                   	nop
  401a39:	90                   	nop
  401a3a:	90                   	nop
  401a3b:	90                   	nop
  401a3c:	90                   	nop
  401a3d:	90                   	nop
  401a3e:	90                   	nop
  401a3f:	90                   	nop
  401a40:	90                   	nop
  401a41:	90                   	nop
  401a42:	90                   	nop
  401a43:	90                   	nop
  401a44:	90                   	nop
  401a45:	90                   	nop
  401a46:	90                   	nop
  401a47:	90                   	nop
  401a48:	90                   	nop
  401a49:	90                   	nop
  401a4a:	90                   	nop
  401a4b:	90                   	nop
  401a4c:	90                   	nop
  401a4d:	90                   	nop
  401a4e:	90                   	nop
  401a4f:	90                   	nop
  401a50:	90                   	nop
  401a51:	90                   	nop
  401a52:	90                   	nop
  401a53:	90                   	nop
  401a54:	90                   	nop
  401a55:	90                   	nop
  401a56:	90                   	nop
  401a57:	90                   	nop
  401a58:	90                   	nop
  401a59:	90                   	nop
  401a5a:	90                   	nop
  401a5b:	90                   	nop
  401a5c:	90                   	nop
  401a5d:	90                   	nop
  401a5e:	90                   	nop
  401a5f:	90                   	nop
  401a60:	90                   	nop
  401a61:	90                   	nop
  401a62:	90                   	nop
  401a63:	90                   	nop
  401a64:	90                   	nop
  401a65:	90                   	nop
  401a66:	90                   	nop
  401a67:	90                   	nop
  401a68:	90                   	nop
  401a69:	90                   	nop
  401a6a:	90                   	nop
  401a6b:	90                   	nop
  401a6c:	90                   	nop
  401a6d:	90                   	nop
  401a6e:	90                   	nop
  401a6f:	90                   	nop
  401a70:	90                   	nop
  401a71:	90                   	nop
  401a72:	90                   	nop
  401a73:	90                   	nop
  401a74:	90                   	nop
  401a75:	90                   	nop
  401a76:	90                   	nop
  401a77:	90                   	nop
  401a78:	90                   	nop
  401a79:	90                   	nop
  401a7a:	90                   	nop
  401a7b:	90                   	nop
  401a7c:	90                   	nop
  401a7d:	90                   	nop
  401a7e:	90                   	nop
  401a7f:	90                   	nop
  401a80:	90                   	nop
  401a81:	90                   	nop
  401a82:	90                   	nop
  401a83:	90                   	nop
  401a84:	90                   	nop
  401a85:	90                   	nop
  401a86:	90                   	nop
  401a87:	90                   	nop
  401a88:	90                   	nop
  401a89:	90                   	nop
  401a8a:	90                   	nop
  401a8b:	90                   	nop
  401a8c:	90                   	nop
  401a8d:	90                   	nop
  401a8e:	90                   	nop
  401a8f:	90                   	nop
  401a90:	90                   	nop
  401a91:	90                   	nop
  401a92:	90                   	nop
  401a93:	90                   	nop
  401a94:	90                   	nop
  401a95:	90                   	nop
  401a96:	90                   	nop
  401a97:	90                   	nop
  401a98:	90                   	nop
  401a99:	90                   	nop
  401a9a:	90                   	nop
  401a9b:	90                   	nop
  401a9c:	90                   	nop
  401a9d:	90                   	nop
  401a9e:	90                   	nop
  401a9f:	90                   	nop
  401aa0:	90                   	nop
  401aa1:	90                   	nop
  401aa2:	90                   	nop
  401aa3:	90                   	nop
  401aa4:	90                   	nop
  401aa5:	90                   	nop
  401aa6:	90                   	nop
  401aa7:	90                   	nop
  401aa8:	90                   	nop
  401aa9:	90                   	nop
  401aaa:	90                   	nop
  401aab:	90                   	nop
  401aac:	90                   	nop
  401aad:	90                   	nop
  401aae:	90                   	nop
  401aaf:	90                   	nop
  401ab0:	90                   	nop
  401ab1:	90                   	nop
  401ab2:	90                   	nop
  401ab3:	90                   	nop
  401ab4:	90                   	nop
  401ab5:	90                   	nop
  401ab6:	90                   	nop
  401ab7:	90                   	nop
  401ab8:	90                   	nop
  401ab9:	90                   	nop
  401aba:	90                   	nop
  401abb:	90                   	nop
  401abc:	90                   	nop
  401abd:	90                   	nop
  401abe:	90                   	nop
  401abf:	90                   	nop
  401ac0:	90                   	nop
  401ac1:	90                   	nop
  401ac2:	90                   	nop
  401ac3:	90                   	nop
  401ac4:	90                   	nop
  401ac5:	90                   	nop
  401ac6:	90                   	nop
  401ac7:	90                   	nop
  401ac8:	90                   	nop
  401ac9:	90                   	nop
  401aca:	90                   	nop
  401acb:	90                   	nop
  401acc:	90                   	nop
  401acd:	90                   	nop
  401ace:	90                   	nop
  401acf:	90                   	nop
  401ad0:	90                   	nop
  401ad1:	90                   	nop
  401ad2:	90                   	nop
  401ad3:	90                   	nop
  401ad4:	90                   	nop
  401ad5:	90                   	nop
  401ad6:	90                   	nop
  401ad7:	90                   	nop
  401ad8:	90                   	nop
  401ad9:	90                   	nop
  401ada:	90                   	nop
  401adb:	90                   	nop
  401adc:	90                   	nop
  401add:	90                   	nop
  401ade:	90                   	nop
  401adf:	90                   	nop
  401ae0:	90                   	nop
  401ae1:	90                   	nop
  401ae2:	90                   	nop
  401ae3:	90                   	nop
  401ae4:	90                   	nop
  401ae5:	90                   	nop
  401ae6:	90                   	nop
  401ae7:	90                   	nop
  401ae8:	90                   	nop
  401ae9:	90                   	nop
  401aea:	90                   	nop
  401aeb:	90                   	nop
  401aec:	90                   	nop
  401aed:	90                   	nop
  401aee:	90                   	nop
  401aef:	90                   	nop
  401af0:	90                   	nop
  401af1:	90                   	nop
  401af2:	90                   	nop
  401af3:	90                   	nop
  401af4:	90                   	nop
  401af5:	90                   	nop
  401af6:	90                   	nop
  401af7:	90                   	nop
  401af8:	90                   	nop
  401af9:	90                   	nop
  401afa:	90                   	nop
  401afb:	90                   	nop
  401afc:	90                   	nop
  401afd:	90                   	nop
  401afe:	90                   	nop
  401aff:	90                   	nop
  401b00:	90                   	nop
  401b01:	90                   	nop
  401b02:	90                   	nop
  401b03:	90                   	nop
  401b04:	90                   	nop
  401b05:	90                   	nop
  401b06:	90                   	nop
  401b07:	90                   	nop
  401b08:	90                   	nop
  401b09:	90                   	nop
  401b0a:	90                   	nop
  401b0b:	90                   	nop
  401b0c:	90                   	nop
  401b0d:	90                   	nop
  401b0e:	90                   	nop
  401b0f:	90                   	nop
  401b10:	90                   	nop
  401b11:	90                   	nop
  401b12:	90                   	nop
  401b13:	90                   	nop
  401b14:	90                   	nop
  401b15:	90                   	nop
  401b16:	90                   	nop
  401b17:	90                   	nop
  401b18:	90                   	nop
  401b19:	90                   	nop
  401b1a:	90                   	nop
  401b1b:	90                   	nop
  401b1c:	90                   	nop
  401b1d:	90                   	nop
  401b1e:	90                   	nop
  401b1f:	90                   	nop
  401b20:	90                   	nop
  401b21:	90                   	nop
  401b22:	90                   	nop
  401b23:	90                   	nop
  401b24:	90                   	nop
  401b25:	90                   	nop
  401b26:	90                   	nop
  401b27:	90                   	nop
  401b28:	90                   	nop
  401b29:	90                   	nop
  401b2a:	90                   	nop
  401b2b:	90                   	nop
  401b2c:	90                   	nop
  401b2d:	90                   	nop
  401b2e:	90                   	nop
  401b2f:	90                   	nop
  401b30:	90                   	nop
  401b31:	90                   	nop
  401b32:	90                   	nop
  401b33:	90                   	nop
  401b34:	90                   	nop
  401b35:	90                   	nop
  401b36:	90                   	nop
  401b37:	90                   	nop
  401b38:	90                   	nop
  401b39:	90                   	nop
  401b3a:	90                   	nop
  401b3b:	90                   	nop
  401b3c:	90                   	nop
  401b3d:	90                   	nop
  401b3e:	90                   	nop
  401b3f:	90                   	nop
  401b40:	90                   	nop
  401b41:	90                   	nop
  401b42:	90                   	nop
  401b43:	90                   	nop
  401b44:	90                   	nop
  401b45:	90                   	nop
  401b46:	90                   	nop
  401b47:	90                   	nop
  401b48:	90                   	nop
  401b49:	90                   	nop
  401b4a:	90                   	nop
  401b4b:	90                   	nop
  401b4c:	90                   	nop
  401b4d:	90                   	nop
  401b4e:	90                   	nop
  401b4f:	90                   	nop
  401b50:	90                   	nop
  401b51:	90                   	nop
  401b52:	90                   	nop
  401b53:	90                   	nop
  401b54:	90                   	nop
  401b55:	90                   	nop
  401b56:	90                   	nop
  401b57:	90                   	nop
  401b58:	90                   	nop
  401b59:	90                   	nop
  401b5a:	90                   	nop
  401b5b:	90                   	nop
  401b5c:	90                   	nop
  401b5d:	90                   	nop
  401b5e:	90                   	nop
  401b5f:	90                   	nop
  401b60:	90                   	nop
  401b61:	90                   	nop
  401b62:	90                   	nop
  401b63:	90                   	nop
  401b64:	90                   	nop
  401b65:	90                   	nop
  401b66:	90                   	nop
  401b67:	90                   	nop
  401b68:	90                   	nop
  401b69:	90                   	nop
  401b6a:	90                   	nop
  401b6b:	90                   	nop
  401b6c:	90                   	nop
  401b6d:	90                   	nop
  401b6e:	90                   	nop
  401b6f:	90                   	nop
  401b70:	90                   	nop
  401b71:	90                   	nop
  401b72:	90                   	nop
  401b73:	90                   	nop
  401b74:	90                   	nop
  401b75:	90                   	nop
  401b76:	90                   	nop
  401b77:	90                   	nop
  401b78:	90                   	nop
  401b79:	90                   	nop
  401b7a:	90                   	nop
  401b7b:	90                   	nop
  401b7c:	90                   	nop
  401b7d:	90                   	nop
  401b7e:	90                   	nop
  401b7f:	90                   	nop
  401b80:	90                   	nop
  401b81:	90                   	nop
  401b82:	90                   	nop
  401b83:	90                   	nop
  401b84:	90                   	nop
  401b85:	90                   	nop
  401b86:	90                   	nop
  401b87:	90                   	nop
  401b88:	90                   	nop
  401b89:	90                   	nop
  401b8a:	90                   	nop
  401b8b:	90                   	nop
  401b8c:	90                   	nop
  401b8d:	90                   	nop
  401b8e:	90                   	nop
  401b8f:	90                   	nop
  401b90:	90                   	nop
  401b91:	90                   	nop
  401b92:	90                   	nop
  401b93:	90                   	nop
  401b94:	90                   	nop
  401b95:	90                   	nop
  401b96:	90                   	nop
  401b97:	90                   	nop
  401b98:	90                   	nop
  401b99:	90                   	nop
  401b9a:	90                   	nop
  401b9b:	90                   	nop
  401b9c:	90                   	nop
  401b9d:	90                   	nop
  401b9e:	90                   	nop
  401b9f:	90                   	nop
  401ba0:	90                   	nop
  401ba1:	90                   	nop
  401ba2:	90                   	nop
  401ba3:	90                   	nop
  401ba4:	90                   	nop
  401ba5:	90                   	nop
  401ba6:	90                   	nop
  401ba7:	90                   	nop
  401ba8:	90                   	nop
  401ba9:	90                   	nop
  401baa:	90                   	nop
  401bab:	90                   	nop
  401bac:	90                   	nop
  401bad:	90                   	nop
  401bae:	90                   	nop
  401baf:	90                   	nop
  401bb0:	90                   	nop
  401bb1:	90                   	nop
  401bb2:	90                   	nop
  401bb3:	90                   	nop
  401bb4:	90                   	nop
  401bb5:	90                   	nop
  401bb6:	90                   	nop
  401bb7:	90                   	nop
  401bb8:	90                   	nop
  401bb9:	90                   	nop
  401bba:	90                   	nop
  401bbb:	90                   	nop
  401bbc:	90                   	nop
  401bbd:	90                   	nop
  401bbe:	90                   	nop
  401bbf:	90                   	nop
  401bc0:	90                   	nop
  401bc1:	90                   	nop
  401bc2:	90                   	nop
  401bc3:	90                   	nop
  401bc4:	90                   	nop
  401bc5:	90                   	nop
  401bc6:	90                   	nop
  401bc7:	90                   	nop
  401bc8:	90                   	nop
  401bc9:	90                   	nop
  401bca:	90                   	nop
  401bcb:	90                   	nop
  401bcc:	90                   	nop
  401bcd:	90                   	nop
  401bce:	90                   	nop
  401bcf:	90                   	nop
  401bd0:	90                   	nop
  401bd1:	90                   	nop
  401bd2:	90                   	nop
  401bd3:	90                   	nop
  401bd4:	90                   	nop
  401bd5:	90                   	nop
  401bd6:	90                   	nop
  401bd7:	90                   	nop
  401bd8:	90                   	nop
  401bd9:	90                   	nop
  401bda:	90                   	nop
  401bdb:	90                   	nop
  401bdc:	90                   	nop
  401bdd:	90                   	nop
  401bde:	90                   	nop
  401bdf:	90                   	nop
  401be0:	90                   	nop
  401be1:	90                   	nop
  401be2:	90                   	nop
  401be3:	90                   	nop
  401be4:	90                   	nop
  401be5:	90                   	nop
  401be6:	90                   	nop
  401be7:	90                   	nop
  401be8:	90                   	nop
  401be9:	90                   	nop
  401bea:	90                   	nop
  401beb:	90                   	nop
  401bec:	90                   	nop
  401bed:	90                   	nop
  401bee:	90                   	nop
  401bef:	90                   	nop
  401bf0:	90                   	nop
  401bf1:	90                   	nop
  401bf2:	90                   	nop
  401bf3:	90                   	nop
  401bf4:	90                   	nop
  401bf5:	90                   	nop
  401bf6:	90                   	nop
  401bf7:	90                   	nop
  401bf8:	90                   	nop
  401bf9:	90                   	nop
  401bfa:	90                   	nop
  401bfb:	90                   	nop
  401bfc:	90                   	nop
  401bfd:	90                   	nop
  401bfe:	90                   	nop
  401bff:	90                   	nop
  401c00:	90                   	nop
  401c01:	90                   	nop
  401c02:	90                   	nop
  401c03:	90                   	nop
  401c04:	90                   	nop
  401c05:	90                   	nop
  401c06:	90                   	nop
  401c07:	90                   	nop
  401c08:	90                   	nop
  401c09:	90                   	nop
  401c0a:	90                   	nop
  401c0b:	90                   	nop
  401c0c:	90                   	nop
  401c0d:	90                   	nop
  401c0e:	90                   	nop
  401c0f:	90                   	nop
  401c10:	90                   	nop
  401c11:	90                   	nop
  401c12:	90                   	nop
  401c13:	90                   	nop
  401c14:	90                   	nop
  401c15:	90                   	nop
  401c16:	90                   	nop
  401c17:	90                   	nop
  401c18:	90                   	nop
  401c19:	90                   	nop
  401c1a:	90                   	nop
  401c1b:	90                   	nop
  401c1c:	90                   	nop
  401c1d:	90                   	nop
  401c1e:	90                   	nop
  401c1f:	90                   	nop
  401c20:	90                   	nop
  401c21:	90                   	nop
  401c22:	90                   	nop
  401c23:	90                   	nop
  401c24:	90                   	nop
  401c25:	90                   	nop
  401c26:	90                   	nop
  401c27:	90                   	nop
  401c28:	90                   	nop
  401c29:	90                   	nop
  401c2a:	90                   	nop
  401c2b:	90                   	nop
  401c2c:	90                   	nop
  401c2d:	90                   	nop
  401c2e:	90                   	nop
  401c2f:	90                   	nop
  401c30:	90                   	nop
  401c31:	90                   	nop
  401c32:	90                   	nop
  401c33:	90                   	nop
  401c34:	90                   	nop
  401c35:	90                   	nop
  401c36:	90                   	nop
  401c37:	90                   	nop
  401c38:	90                   	nop
  401c39:	90                   	nop
  401c3a:	90                   	nop
  401c3b:	90                   	nop
  401c3c:	90                   	nop
  401c3d:	90                   	nop
  401c3e:	90                   	nop
  401c3f:	90                   	nop
  401c40:	90                   	nop
  401c41:	90                   	nop
  401c42:	90                   	nop
  401c43:	90                   	nop
  401c44:	90                   	nop
  401c45:	90                   	nop
  401c46:	90                   	nop
  401c47:	90                   	nop
  401c48:	90                   	nop
  401c49:	90                   	nop
  401c4a:	90                   	nop
  401c4b:	90                   	nop
  401c4c:	90                   	nop
  401c4d:	90                   	nop
  401c4e:	90                   	nop
  401c4f:	90                   	nop
  401c50:	90                   	nop
  401c51:	90                   	nop
  401c52:	90                   	nop
  401c53:	90                   	nop
  401c54:	90                   	nop
  401c55:	90                   	nop
  401c56:	90                   	nop
  401c57:	90                   	nop
  401c58:	90                   	nop
  401c59:	90                   	nop
  401c5a:	90                   	nop
  401c5b:	90                   	nop
  401c5c:	90                   	nop
  401c5d:	90                   	nop
  401c5e:	90                   	nop
  401c5f:	90                   	nop
  401c60:	90                   	nop
  401c61:	90                   	nop
  401c62:	90                   	nop
  401c63:	90                   	nop
  401c64:	90                   	nop
  401c65:	90                   	nop
  401c66:	90                   	nop
  401c67:	90                   	nop
  401c68:	90                   	nop
  401c69:	90                   	nop
  401c6a:	90                   	nop
  401c6b:	90                   	nop
  401c6c:	90                   	nop
  401c6d:	90                   	nop
  401c6e:	90                   	nop
  401c6f:	90                   	nop
  401c70:	90                   	nop
  401c71:	90                   	nop
  401c72:	90                   	nop
  401c73:	90                   	nop
  401c74:	90                   	nop
  401c75:	90                   	nop
  401c76:	90                   	nop
  401c77:	90                   	nop
  401c78:	90                   	nop
  401c79:	90                   	nop
  401c7a:	90                   	nop
  401c7b:	90                   	nop
  401c7c:	90                   	nop
  401c7d:	90                   	nop
  401c7e:	90                   	nop
  401c7f:	90                   	nop
  401c80:	90                   	nop
  401c81:	90                   	nop
  401c82:	90                   	nop
  401c83:	90                   	nop
  401c84:	90                   	nop
  401c85:	90                   	nop
  401c86:	90                   	nop
  401c87:	90                   	nop
  401c88:	90                   	nop
  401c89:	90                   	nop
  401c8a:	90                   	nop
  401c8b:	90                   	nop
  401c8c:	90                   	nop
  401c8d:	90                   	nop
  401c8e:	90                   	nop
  401c8f:	90                   	nop
  401c90:	90                   	nop
  401c91:	90                   	nop
  401c92:	90                   	nop
  401c93:	90                   	nop
  401c94:	90                   	nop
  401c95:	90                   	nop
  401c96:	90                   	nop
  401c97:	90                   	nop
  401c98:	90                   	nop
  401c99:	90                   	nop
  401c9a:	90                   	nop
  401c9b:	90                   	nop
  401c9c:	90                   	nop
  401c9d:	90                   	nop
  401c9e:	90                   	nop
  401c9f:	90                   	nop
  401ca0:	90                   	nop
  401ca1:	90                   	nop
  401ca2:	90                   	nop
  401ca3:	90                   	nop
  401ca4:	90                   	nop
  401ca5:	90                   	nop
  401ca6:	90                   	nop
  401ca7:	90                   	nop
  401ca8:	90                   	nop
  401ca9:	90                   	nop
  401caa:	90                   	nop
  401cab:	90                   	nop
  401cac:	48 c7 45 d0 00 00 00 	movq   $0x0,-0x30(%rbp)
  401cb3:	00 
  401cb4:	48 c7 45 d8 00 00 00 	movq   $0x0,-0x28(%rbp)
  401cbb:	00 
  401cbc:	48 c7 45 e0 00 00 00 	movq   $0x0,-0x20(%rbp)
  401cc3:	00 
  401cc4:	48 c7 45 e8 00 00 00 	movq   $0x0,-0x18(%rbp)
  401ccb:	00 
  401ccc:	be 00 00 00 00       	mov    $0x0,%esi
  401cd1:	48 8d 05 dd 85 00 00 	lea    0x85dd(%rip),%rax        # 40a2b5 <puzzle_x86_64+0x2b5>
  401cd8:	48 89 c7             	mov    %rax,%rdi
  401cdb:	b8 00 00 00 00       	mov    $0x0,%eax
  401ce0:	e8 db 07 00 00       	call   4024c0 <open>
  401ce5:	89 45 cc             	mov    %eax,-0x34(%rbp)
  401ce8:	48 8d 4d d0          	lea    -0x30(%rbp),%rcx
  401cec:	8b 45 cc             	mov    -0x34(%rbp),%eax
  401cef:	ba 20 00 00 00       	mov    $0x20,%edx
  401cf4:	48 89 ce             	mov    %rcx,%rsi
  401cf7:	89 c7                	mov    %eax,%edi
  401cf9:	e8 32 10 00 00       	call   402d30 <read>
  401cfe:	8b 45 cc             	mov    -0x34(%rbp),%eax
  401d01:	89 c7                	mov    %eax,%edi
  401d03:	e8 d8 0f 00 00       	call   402ce0 <close>
  401d08:	48 8d 45 d0          	lea    -0x30(%rbp),%rax
  401d0c:	48 89 c7             	mov    %rax,%rdi
  401d0f:	e8 fc 0b 00 00       	call   402910 <puts>
  401d14:	48 8b 05 ad a2 00 00 	mov    0xa2ad(%rip),%rax        # 40bfc8 <stdout>
  401d1b:	48 89 c7             	mov    %rax,%rdi
  401d1e:	e8 2d 0a 00 00       	call   402750 <fflush>
  401d23:	90                   	nop
  401d24:	48 8b 45 f8          	mov    -0x8(%rbp),%rax
  401d28:	64 48 2b 04 25 28 00 	sub    %fs:0x28,%rax
  401d2f:	00 00 
  401d31:	74 05                	je     401d38 <__libc_deinit_1+0xa67>
  401d33:	e8 28 07 00 00       	call   402460 <__stack_chk_fail>
  401d38:	c9                   	leave  
  401d39:	c3                   	ret    

0000000000401d3a <__libc_init_2>:
  401d3a:	f3 0f 1e fa          	endbr64 
  401d3e:	55                   	push   %rbp
  401d3f:	48 89 e5             	mov    %rsp,%rbp
  401d42:	48 83 ec 40          	sub    $0x40,%rsp
  401d46:	64 48 8b 04 25 28 00 	mov    %fs:0x28,%rax
  401d4d:	00 00 
  401d4f:	48 89 45 f8          	mov    %rax,-0x8(%rbp)
  401d53:	31 c0                	xor    %eax,%eax
  401d55:	48 c7 45 d0 00 00 00 	movq   $0x0,-0x30(%rbp)
  401d5c:	00 
  401d5d:	48 c7 45 d8 00 00 00 	movq   $0x0,-0x28(%rbp)
  401d64:	00 
  401d65:	48 c7 45 e0 00 00 00 	movq   $0x0,-0x20(%rbp)
  401d6c:	00 
  401d6d:	48 c7 45 e8 00 00 00 	movq   $0x0,-0x18(%rbp)
  401d74:	00 
  401d75:	be 00 00 00 00       	mov    $0x0,%esi
  401d7a:	48 8d 05 34 85 00 00 	lea    0x8534(%rip),%rax        # 40a2b5 <puzzle_x86_64+0x2b5>
  401d81:	48 89 c7             	mov    %rax,%rdi
  401d84:	b8 00 00 00 00       	mov    $0x0,%eax
  401d89:	e8 32 07 00 00       	call   4024c0 <open>
  401d8e:	89 45 cc             	mov    %eax,-0x34(%rbp)
  401d91:	48 8d 4d d0          	lea    -0x30(%rbp),%rcx
  401d95:	8b 45 cc             	mov    -0x34(%rbp),%eax
  401d98:	ba 20 00 00 00       	mov    $0x20,%edx
  401d9d:	48 89 ce             	mov    %rcx,%rsi
  401da0:	89 c7                	mov    %eax,%edi
  401da2:	e8 89 0f 00 00       	call   402d30 <read>
  401da7:	8b 45 cc             	mov    -0x34(%rbp),%eax
  401daa:	89 c7                	mov    %eax,%edi
  401dac:	e8 2f 0f 00 00       	call   402ce0 <close>
  401db1:	48 8d 45 d0          	lea    -0x30(%rbp),%rax
  401db5:	48 89 c7             	mov    %rax,%rdi
  401db8:	e8 53 0b 00 00       	call   402910 <puts>
  401dbd:	48 8b 05 04 a2 00 00 	mov    0xa204(%rip),%rax        # 40bfc8 <stdout>
  401dc4:	48 89 c7             	mov    %rax,%rdi
  401dc7:	e8 84 09 00 00       	call   402750 <fflush>
  401dcc:	90                   	nop
  401dcd:	48 8b 45 f8          	mov    -0x8(%rbp),%rax
  401dd1:	64 48 2b 04 25 28 00 	sub    %fs:0x28,%rax
  401dd8:	00 00 
  401dda:	74 05                	je     401de1 <__libc_init_2+0xa7>
  401ddc:	e8 7f 06 00 00       	call   402460 <__stack_chk_fail>
  401de1:	c9                   	leave  
  401de2:	c3                   	ret    

0000000000401de3 <__libc_deinit_2>:
  401de3:	f3 0f 1e fa          	endbr64 
  401de7:	55                   	push   %rbp
  401de8:	48 89 e5             	mov    %rsp,%rbp
  401deb:	48 83 ec 40          	sub    $0x40,%rsp
  401def:	64 48 8b 04 25 28 00 	mov    %fs:0x28,%rax
  401df6:	00 00 
  401df8:	48 89 45 f8          	mov    %rax,-0x8(%rbp)
  401dfc:	31 c0                	xor    %eax,%eax
  401dfe:	48 c7 45 d0 00 00 00 	movq   $0x0,-0x30(%rbp)
  401e05:	00 
  401e06:	48 c7 45 d8 00 00 00 	movq   $0x0,-0x28(%rbp)
  401e0d:	00 
  401e0e:	48 c7 45 e0 00 00 00 	movq   $0x0,-0x20(%rbp)
  401e15:	00 
  401e16:	48 c7 45 e8 00 00 00 	movq   $0x0,-0x18(%rbp)
  401e1d:	00 
  401e1e:	be 00 00 00 00       	mov    $0x0,%esi
  401e23:	48 8d 05 8b 84 00 00 	lea    0x848b(%rip),%rax        # 40a2b5 <puzzle_x86_64+0x2b5>
  401e2a:	48 89 c7             	mov    %rax,%rdi
  401e2d:	b8 00 00 00 00       	mov    $0x0,%eax
  401e32:	e8 89 06 00 00       	call   4024c0 <open>
  401e37:	89 45 cc             	mov    %eax,-0x34(%rbp)
  401e3a:	48 8d 4d d0          	lea    -0x30(%rbp),%rcx
  401e3e:	8b 45 cc             	mov    -0x34(%rbp),%eax
  401e41:	ba 20 00 00 00       	mov    $0x20,%edx
  401e46:	48 89 ce             	mov    %rcx,%rsi
  401e49:	89 c7                	mov    %eax,%edi
  401e4b:	e8 e0 0e 00 00       	call   402d30 <read>
  401e50:	8b 45 cc             	mov    -0x34(%rbp),%eax
  401e53:	89 c7                	mov    %eax,%edi
  401e55:	e8 86 0e 00 00       	call   402ce0 <close>
  401e5a:	48 8d 45 d0          	lea    -0x30(%rbp),%rax
  401e5e:	48 89 c7             	mov    %rax,%rdi
  401e61:	e8 aa 0a 00 00       	call   402910 <puts>
  401e66:	48 8b 05 5b a1 00 00 	mov    0xa15b(%rip),%rax        # 40bfc8 <stdout>
  401e6d:	48 89 c7             	mov    %rax,%rdi
  401e70:	e8 db 08 00 00       	call   402750 <fflush>
  401e75:	90                   	nop
  401e76:	48 8b 45 f8          	mov    -0x8(%rbp),%rax
  401e7a:	64 48 2b 04 25 28 00 	sub    %fs:0x28,%rax
  401e81:	00 00 
  401e83:	74 05                	je     401e8a <__libc_deinit_2+0xa7>
  401e85:	e8 d6 05 00 00       	call   402460 <__stack_chk_fail>
  401e8a:	c9                   	leave  
  401e8b:	c3                   	ret    

0000000000401e8c <init>:
  401e8c:	f3 0f 1e fa          	endbr64 
  401e90:	55                   	push   %rbp
  401e91:	48 89 e5             	mov    %rsp,%rbp
  401e94:	48 83 ec 10          	sub    $0x10,%rsp
  401e98:	bf 02 00 00 00       	mov    $0x2,%edi
  401e9d:	e8 be 0d 00 00       	call   402c60 <alarm>
  401ea2:	48 8d 05 90 f2 ff ff 	lea    -0xd70(%rip),%rax        # 401139 <clean_exit_on_sig>
  401ea9:	48 89 c6             	mov    %rax,%rsi
  401eac:	bf 0b 00 00 00       	mov    $0xb,%edi
  401eb1:	e8 0a 08 00 00       	call   4026c0 <signal>
  401eb6:	48 8d 05 01 84 00 00 	lea    0x8401(%rip),%rax        # 40a2be <puzzle_x86_64+0x2be>
  401ebd:	48 89 c7             	mov    %rax,%rdi
  401ec0:	e8 4b 0a 00 00       	call   402910 <puts>
  401ec5:	48 8b 05 fc a0 00 00 	mov    0xa0fc(%rip),%rax        # 40bfc8 <stdout>
  401ecc:	48 89 c7             	mov    %rax,%rdi
  401ecf:	e8 7c 08 00 00       	call   402750 <fflush>
  401ed4:	48 8d 05 49 a3 00 00 	lea    0xa349(%rip),%rax        # 40c224 <puzzle_xor_key>
  401edb:	48 89 c6             	mov    %rax,%rsi
  401ede:	48 8d 05 e5 83 00 00 	lea    0x83e5(%rip),%rax        # 40a2ca <puzzle_x86_64+0x2ca>
  401ee5:	48 89 c7             	mov    %rax,%rdi
  401ee8:	b8 00 00 00 00       	mov    $0x0,%eax
  401eed:	e8 ee 0a 00 00       	call   4029e0 <scanf>
  401ef2:	48 8d 05 2f a3 00 00 	lea    0xa32f(%rip),%rax        # 40c228 <puzzle_solve_number>
  401ef9:	48 89 c6             	mov    %rax,%rsi
  401efc:	48 8d 05 cc 83 00 00 	lea    0x83cc(%rip),%rax        # 40a2cf <puzzle_x86_64+0x2cf>
  401f03:	48 89 c7             	mov    %rax,%rdi
  401f06:	b8 00 00 00 00       	mov    $0x0,%eax
  401f0b:	e8 d0 0a 00 00       	call   4029e0 <scanf>
  401f10:	b8 00 00 00 00       	mov    $0x0,%eax
  401f15:	e8 52 00 00 00       	call   401f6c <install_puzzle>
  401f1a:	48 89 45 f8          	mov    %rax,-0x8(%rbp)
  401f1e:	0f b6 05 ff a2 00 00 	movzbl 0xa2ff(%rip),%eax        # 40c224 <puzzle_xor_key>
  401f25:	0f b6 d0             	movzbl %al,%edx
  401f28:	48 8b 45 f8          	mov    -0x8(%rbp),%rax
  401f2c:	89 d6                	mov    %edx,%esi
  401f2e:	48 89 c7             	mov    %rax,%rdi
  401f31:	e8 d5 00 00 00       	call   40200b <decrypt_puzzle>
  401f36:	8b 15 ec a2 00 00    	mov    0xa2ec(%rip),%edx        # 40c228 <puzzle_solve_number>
  401f3c:	48 8b 45 f8          	mov    -0x8(%rbp),%rax
  401f40:	89 d6                	mov    %edx,%esi
  401f42:	48 89 c7             	mov    %rax,%rdi
  401f45:	e8 0f 01 00 00       	call   402059 <execute_puzzle>
  401f4a:	85 c0                	test   %eax,%eax
  401f4c:	75 0a                	jne    401f58 <init+0xcc>
  401f4e:	bf 02 00 00 00       	mov    $0x2,%edi
  401f53:	e8 b8 f0 ff ff       	call   401010 <exit>
  401f58:	b8 00 00 00 00       	mov    $0x0,%eax
  401f5d:	e8 47 01 00 00       	call   4020a9 <vuln>
  401f62:	bf 80 00 00 00       	mov    $0x80,%edi
  401f67:	e8 a4 f0 ff ff       	call   401010 <exit>

0000000000401f6c <install_puzzle>:
  401f6c:	f3 0f 1e fa          	endbr64 
  401f70:	55                   	push   %rbp
  401f71:	48 89 e5             	mov    %rsp,%rbp
  401f74:	48 83 ec 10          	sub    $0x10,%rsp
  401f78:	41 b9 00 00 00 00    	mov    $0x0,%r9d
  401f7e:	41 b8 ff ff ff ff    	mov    $0xffffffff,%r8d
  401f84:	b9 21 00 00 00       	mov    $0x21,%ecx
  401f89:	ba 06 00 00 00       	mov    $0x6,%edx
  401f8e:	be 00 10 00 00       	mov    $0x1000,%esi
  401f93:	bf 00 00 00 00       	mov    $0x0,%edi
  401f98:	e8 43 06 00 00       	call   4025e0 <__mmap>
  401f9d:	48 89 45 f8          	mov    %rax,-0x8(%rbp)
  401fa1:	48 83 7d f8 ff       	cmpq   $0xffffffffffffffff,-0x8(%rbp)
  401fa6:	75 0a                	jne    401fb2 <install_puzzle+0x46>
  401fa8:	bf 02 00 00 00       	mov    $0x2,%edi
  401fad:	e8 5e f0 ff ff       	call   401010 <exit>
  401fb2:	48 8b 45 f8          	mov    -0x8(%rbp),%rax
  401fb6:	48 8d 15 43 80 00 00 	lea    0x8043(%rip),%rdx        # 40a000 <puzzle_x86_64>
  401fbd:	b9 aa 02 00 00       	mov    $0x2aa,%ecx
  401fc2:	48 8b 32             	mov    (%rdx),%rsi
  401fc5:	48 89 30             	mov    %rsi,(%rax)
  401fc8:	89 ce                	mov    %ecx,%esi
  401fca:	48 01 c6             	add    %rax,%rsi
  401fcd:	48 8d 7e 08          	lea    0x8(%rsi),%rdi
  401fd1:	89 ce                	mov    %ecx,%esi
  401fd3:	48 01 d6             	add    %rdx,%rsi
  401fd6:	48 83 c6 08          	add    $0x8,%rsi
  401fda:	48 8b 76 f0          	mov    -0x10(%rsi),%rsi
  401fde:	48 89 77 f0          	mov    %rsi,-0x10(%rdi)
  401fe2:	48 8d 78 08          	lea    0x8(%rax),%rdi
  401fe6:	48 83 e7 f8          	and    $0xfffffffffffffff8,%rdi
  401fea:	48 29 f8             	sub    %rdi,%rax
  401fed:	48 29 c2             	sub    %rax,%rdx
  401ff0:	01 c1                	add    %eax,%ecx
  401ff2:	83 e1 f8             	and    $0xfffffff8,%ecx
  401ff5:	89 c8                	mov    %ecx,%eax
  401ff7:	c1 e8 03             	shr    $0x3,%eax
  401ffa:	89 c0                	mov    %eax,%eax
  401ffc:	48 89 d6             	mov    %rdx,%rsi
  401fff:	48 89 c1             	mov    %rax,%rcx
  402002:	f3 48 a5             	rep movsq %ds:(%rsi),%es:(%rdi)
  402005:	48 8b 45 f8          	mov    -0x8(%rbp),%rax
  402009:	c9                   	leave  
  40200a:	c3                   	ret    

000000000040200b <decrypt_puzzle>:
  40200b:	f3 0f 1e fa          	endbr64 
  40200f:	55                   	push   %rbp
  402010:	48 89 e5             	mov    %rsp,%rbp
  402013:	48 89 7d e8          	mov    %rdi,-0x18(%rbp)
  402017:	89 f0                	mov    %esi,%eax
  402019:	88 45 e4             	mov    %al,-0x1c(%rbp)
  40201c:	c7 45 fc 00 00 00 00 	movl   $0x0,-0x4(%rbp)
  402023:	eb 26                	jmp    40204b <decrypt_puzzle+0x40>
  402025:	8b 45 fc             	mov    -0x4(%rbp),%eax
  402028:	48 63 d0             	movslq %eax,%rdx
  40202b:	48 8b 45 e8          	mov    -0x18(%rbp),%rax
  40202f:	48 01 d0             	add    %rdx,%rax
  402032:	0f b6 00             	movzbl (%rax),%eax
  402035:	8b 55 fc             	mov    -0x4(%rbp),%edx
  402038:	48 63 ca             	movslq %edx,%rcx
  40203b:	48 8b 55 e8          	mov    -0x18(%rbp),%rdx
  40203f:	48 01 ca             	add    %rcx,%rdx
  402042:	32 45 e4             	xor    -0x1c(%rbp),%al
  402045:	88 02                	mov    %al,(%rdx)
  402047:	83 45 fc 01          	addl   $0x1,-0x4(%rbp)
  40204b:	8b 45 fc             	mov    -0x4(%rbp),%eax
  40204e:	3d a9 02 00 00       	cmp    $0x2a9,%eax
  402053:	76 d0                	jbe    402025 <decrypt_puzzle+0x1a>
  402055:	90                   	nop
  402056:	90                   	nop
  402057:	5d                   	pop    %rbp
  402058:	c3                   	ret    

0000000000402059 <execute_puzzle>:
  402059:	f3 0f 1e fa          	endbr64 
  40205d:	55                   	push   %rbp
  40205e:	48 89 e5             	mov    %rsp,%rbp
  402061:	48 83 ec 20          	sub    $0x20,%rsp
  402065:	48 89 7d e8          	mov    %rdi,-0x18(%rbp)
  402069:	89 75 e4             	mov    %esi,-0x1c(%rbp)
  40206c:	48 8b 45 e8          	mov    -0x18(%rbp),%rax
  402070:	48 89 45 f8          	mov    %rax,-0x8(%rbp)
  402074:	8b 45 e4             	mov    -0x1c(%rbp),%eax
  402077:	48 8b 55 f8          	mov    -0x8(%rbp),%rdx
  40207b:	89 c7                	mov    %eax,%edi
  40207d:	ff d2                	call   *%rdx
  40207f:	85 c0                	test   %eax,%eax
  402081:	75 0a                	jne    40208d <execute_puzzle+0x34>
  402083:	bf ff ff ff ff       	mov    $0xffffffff,%edi
  402088:	e8 83 ef ff ff       	call   401010 <exit>
  40208d:	90                   	nop
  40208e:	c9                   	leave  
  40208f:	c3                   	ret    

0000000000402090 <main>:
  402090:	f3 0f 1e fa          	endbr64 
  402094:	55                   	push   %rbp
  402095:	48 89 e5             	mov    %rsp,%rbp
  402098:	b8 00 00 00 00       	mov    $0x0,%eax
  40209d:	e8 ea fd ff ff       	call   401e8c <init>
  4020a2:	b8 00 00 00 00       	mov    $0x0,%eax
  4020a7:	5d                   	pop    %rbp
  4020a8:	c3                   	ret    

00000000004020a9 <vuln>:
  4020a9:	f3 0f 1e fa          	endbr64 
  4020ad:	55                   	push   %rbp
  4020ae:	48 89 e5             	mov    %rsp,%rbp
  4020b1:	48 83 ec 30          	sub    $0x30,%rsp
  4020b5:	c7 45 fc 28 c8 72 bf 	movl   $0xbf72c828,-0x4(%rbp)
  4020bc:	48 8d 45 d0          	lea    -0x30(%rbp),%rax
  4020c0:	ba 48 00 00 00       	mov    $0x48,%edx
  4020c5:	48 89 c6             	mov    %rax,%rsi
  4020c8:	bf 00 00 00 00       	mov    $0x0,%edi
  4020cd:	e8 5e 0c 00 00       	call   402d30 <read>
  4020d2:	b8 28 c8 72 bf       	mov    $0xbf72c828,%eax
  4020d7:	39 45 fc             	cmp    %eax,-0x4(%rbp)
  4020da:	74 0f                	je     4020eb <vuln+0x42>
  4020dc:	48 c7 45 f0 00 00 00 	movq   $0x0,-0x10(%rbp)
  4020e3:	00 
  4020e4:	48 8b 45 f0          	mov    -0x10(%rbp),%rax
  4020e8:	c6 00 01             	movb   $0x1,(%rax)
  4020eb:	90                   	nop
  4020ec:	c9                   	leave  
  4020ed:	c3                   	ret    
  4020ee:	66 90                	xchg   %ax,%ax

00000000004020f0 <dummy>:
  4020f0:	f3 0f 1e fa          	endbr64 
  4020f4:	c3                   	ret    
  4020f5:	66 2e 0f 1f 84 00 00 	cs nopw 0x0(%rax,%rax,1)
  4020fc:	00 00 00 
  4020ff:	90                   	nop

0000000000402100 <dummy1>:
  402100:	f3 0f 1e fa          	endbr64 
  402104:	c3                   	ret    
  402105:	66 2e 0f 1f 84 00 00 	cs nopw 0x0(%rax,%rax,1)
  40210c:	00 00 00 
  40210f:	90                   	nop

0000000000402110 <__init_libc>:
  402110:	f3 0f 1e fa          	endbr64 
  402114:	48 81 ec 58 01 00 00 	sub    $0x158,%rsp
  40211b:	48 89 fa             	mov    %rdi,%rdx
  40211e:	31 c0                	xor    %eax,%eax
  402120:	b9 26 00 00 00       	mov    $0x26,%ecx
  402125:	4c 8d 44 24 20       	lea    0x20(%rsp),%r8
  40212a:	48 83 3a 00          	cmpq   $0x0,(%rdx)
  40212e:	4c 89 c7             	mov    %r8,%rdi
  402131:	f3 48 ab             	rep stos %rax,%es:(%rdi)
  402134:	48 c7 c0 e8 c6 40 00 	mov    $0x40c6e8,%rax
  40213b:	48 89 10             	mov    %rdx,(%rax)
  40213e:	0f 84 cc 01 00 00    	je     402310 <__init_libc+0x200>
  402144:	31 c0                	xor    %eax,%eax
  402146:	66 2e 0f 1f 84 00 00 	cs nopw 0x0(%rax,%rax,1)
  40214d:	00 00 00 
  402150:	48 89 c1             	mov    %rax,%rcx
  402153:	48 83 c0 01          	add    $0x1,%rax
  402157:	48 83 3c c2 00       	cmpq   $0x0,(%rdx,%rax,8)
  40215c:	75 f2                	jne    402150 <__init_libc+0x40>
  40215e:	48 8d 04 cd 10 00 00 	lea    0x10(,%rcx,8),%rax
  402165:	00 
  402166:	48 01 d0             	add    %rdx,%rax
  402169:	48 8b 10             	mov    (%rax),%rdx
  40216c:	48 89 05 f5 a0 00 00 	mov    %rax,0xa0f5(%rip)        # 40c268 <__libc+0x8>
  402173:	48 83 c0 08          	add    $0x8,%rax
  402177:	48 85 d2             	test   %rdx,%rdx
  40217a:	0f 84 a0 01 00 00    	je     402320 <__init_libc+0x210>
  402180:	48 83 fa 25          	cmp    $0x25,%rdx
  402184:	77 08                	ja     40218e <__init_libc+0x7e>
  402186:	48 8b 08             	mov    (%rax),%rcx
  402189:	48 89 4c d4 20       	mov    %rcx,0x20(%rsp,%rdx,8)
  40218e:	48 8b 50 08          	mov    0x8(%rax),%rdx
  402192:	48 83 c0 10          	add    $0x10,%rax
  402196:	48 85 d2             	test   %rdx,%rdx
  402199:	75 e5                	jne    402180 <__init_libc+0x70>
  40219b:	48 8b 8c 24 a0 00 00 	mov    0xa0(%rsp),%rcx
  4021a2:	00 
  4021a3:	48 8b 84 24 20 01 00 	mov    0x120(%rsp),%rax
  4021aa:	00 
  4021ab:	48 8b 54 24 50       	mov    0x50(%rsp),%rdx
  4021b0:	48 89 0d 99 a0 00 00 	mov    %rcx,0xa099(%rip)        # 40c250 <__hwcap>
  4021b7:	48 85 c0             	test   %rax,%rax
  4021ba:	74 07                	je     4021c3 <__init_libc+0xb3>
  4021bc:	48 89 05 75 a0 00 00 	mov    %rax,0xa075(%rip)        # 40c238 <__sysinfo>
  4021c3:	48 89 15 c6 a0 00 00 	mov    %rdx,0xa0c6(%rip)        # 40c290 <__libc+0x30>
  4021ca:	48 85 f6             	test   %rsi,%rsi
  4021cd:	0f 84 0d 01 00 00    	je     4022e0 <__init_libc+0x1d0>
  4021d3:	48 c7 c0 40 c2 40 00 	mov    $0x40c240,%rax
  4021da:	48 c7 c1 48 c2 40 00 	mov    $0x40c248,%rcx
  4021e1:	48 89 30             	mov    %rsi,(%rax)
  4021e4:	48 89 31             	mov    %rsi,(%rcx)
  4021e7:	0f b6 16             	movzbl (%rsi),%edx
  4021ea:	84 d2                	test   %dl,%dl
  4021ec:	74 1d                	je     40220b <__init_libc+0xfb>
  4021ee:	48 8d 46 01          	lea    0x1(%rsi),%rax
  4021f2:	66 0f 1f 44 00 00    	nopw   0x0(%rax,%rax,1)
  4021f8:	80 fa 2f             	cmp    $0x2f,%dl
  4021fb:	75 03                	jne    402200 <__init_libc+0xf0>
  4021fd:	48 89 01             	mov    %rax,(%rcx)
  402200:	0f b6 10             	movzbl (%rax),%edx
  402203:	48 83 c0 01          	add    $0x1,%rax
  402207:	84 d2                	test   %dl,%dl
  402209:	75 ed                	jne    4021f8 <__init_libc+0xe8>
  40220b:	4c 89 c7             	mov    %r8,%rdi
  40220e:	e8 4d 0c 00 00       	call   402e60 <__init_tls>
  402213:	48 8b bc 24 e8 00 00 	mov    0xe8(%rsp),%rdi
  40221a:	00 
  40221b:	e8 e0 01 00 00       	call   402400 <__init_ssp>
  402220:	48 8b 84 24 80 00 00 	mov    0x80(%rsp),%rax
  402227:	00 
  402228:	48 39 44 24 78       	cmp    %rax,0x78(%rsp)
  40222d:	0f 84 7d 00 00 00    	je     4022b0 <__init_libc+0x1a0>
  402233:	66 0f ef c0          	pxor   %xmm0,%xmm0
  402237:	48 89 e7             	mov    %rsp,%rdi
  40223a:	b8 07 00 00 00       	mov    $0x7,%eax
  40223f:	31 d2                	xor    %edx,%edx
  402241:	48 c7 44 24 10 00 00 	movq   $0x0,0x10(%rsp)
  402248:	00 00 
  40224a:	be 03 00 00 00       	mov    $0x3,%esi
  40224f:	0f 29 04 24          	movaps %xmm0,(%rsp)
  402253:	c7 44 24 10 02 00 00 	movl   $0x2,0x10(%rsp)
  40225a:	00 
  40225b:	c7 44 24 08 01 00 00 	movl   $0x1,0x8(%rsp)
  402262:	00 
  402263:	0f 05                	syscall 
  402265:	85 c0                	test   %eax,%eax
  402267:	79 01                	jns    40226a <__init_libc+0x15a>
  402269:	f4                   	hlt    
  40226a:	48 89 fa             	mov    %rdi,%rdx
  40226d:	4c 8d 44 24 18       	lea    0x18(%rsp),%r8
  402272:	41 b9 02 00 00 00    	mov    $0x2,%r9d
  402278:	be 02 80 00 00       	mov    $0x8002,%esi
  40227d:	48 8d 3d 54 80 00 00 	lea    0x8054(%rip),%rdi        # 40a2d8 <cookie+0x4>
  402284:	f6 42 06 20          	testb  $0x20,0x6(%rdx)
  402288:	74 0b                	je     402295 <__init_libc+0x185>
  40228a:	4c 89 c8             	mov    %r9,%rax
  40228d:	0f 05                	syscall 
  40228f:	48 85 c0             	test   %rax,%rax
  402292:	79 01                	jns    402295 <__init_libc+0x185>
  402294:	f4                   	hlt    
  402295:	48 83 c2 08          	add    $0x8,%rdx
  402299:	4c 39 c2             	cmp    %r8,%rdx
  40229c:	75 e6                	jne    402284 <__init_libc+0x174>
  40229e:	c6 05 bd 9f 00 00 01 	movb   $0x1,0x9fbd(%rip)        # 40c262 <__libc+0x2>
  4022a5:	48 81 c4 58 01 00 00 	add    $0x158,%rsp
  4022ac:	c3                   	ret    
  4022ad:	0f 1f 00             	nopl   (%rax)
  4022b0:	48 8b 84 24 90 00 00 	mov    0x90(%rsp),%rax
  4022b7:	00 
  4022b8:	48 39 84 24 88 00 00 	cmp    %rax,0x88(%rsp)
  4022bf:	00 
  4022c0:	0f 85 6d ff ff ff    	jne    402233 <__init_libc+0x123>
  4022c6:	48 83 bc 24 d8 00 00 	cmpq   $0x0,0xd8(%rsp)
  4022cd:	00 00 
  4022cf:	0f 85 5e ff ff ff    	jne    402233 <__init_libc+0x123>
  4022d5:	eb ce                	jmp    4022a5 <__init_libc+0x195>
  4022d7:	66 0f 1f 84 00 00 00 	nopw   0x0(%rax,%rax,1)
  4022de:	00 00 
  4022e0:	48 8b 84 24 18 01 00 	mov    0x118(%rsp),%rax
  4022e7:	00 
  4022e8:	48 85 c0             	test   %rax,%rax
  4022eb:	75 43                	jne    402330 <__init_libc+0x220>
  4022ed:	48 c7 c2 40 c2 40 00 	mov    $0x40c240,%rdx
  4022f4:	48 8d 05 e6 7f 00 00 	lea    0x7fe6(%rip),%rax        # 40a2e1 <cookie+0xd>
  4022fb:	48 89 02             	mov    %rax,(%rdx)
  4022fe:	48 c7 c2 48 c2 40 00 	mov    $0x40c248,%rdx
  402305:	48 89 02             	mov    %rax,(%rdx)
  402308:	e9 fe fe ff ff       	jmp    40220b <__init_libc+0xfb>
  40230d:	0f 1f 00             	nopl   (%rax)
  402310:	b8 08 00 00 00       	mov    $0x8,%eax
  402315:	e9 4c fe ff ff       	jmp    402166 <__init_libc+0x56>
  40231a:	66 0f 1f 44 00 00    	nopw   0x0(%rax,%rax,1)
  402320:	48 c7 05 25 9f 00 00 	movq   $0x0,0x9f25(%rip)        # 40c250 <__hwcap>
  402327:	00 00 00 00 
  40232b:	e9 93 fe ff ff       	jmp    4021c3 <__init_libc+0xb3>
  402330:	48 89 c6             	mov    %rax,%rsi
  402333:	e9 9b fe ff ff       	jmp    4021d3 <__init_libc+0xc3>
  402338:	0f 1f 84 00 00 00 00 	nopl   0x0(%rax,%rax,1)
  40233f:	00 

0000000000402340 <__libc_start_init>:
  402340:	f3 0f 1e fa          	endbr64 
  402344:	55                   	push   %rbp
  402345:	53                   	push   %rbx
  402346:	48 83 ec 08          	sub    $0x8,%rsp
  40234a:	e8 b1 ec ff ff       	call   401000 <_init>
  40234f:	48 c7 c3 b0 bf 40 00 	mov    $0x40bfb0,%rbx
  402356:	48 c7 c5 b8 bf 40 00 	mov    $0x40bfb8,%rbp
  40235d:	48 39 eb             	cmp    %rbp,%rbx
  402360:	73 11                	jae    402373 <__libc_start_init+0x33>
  402362:	66 0f 1f 44 00 00    	nopw   0x0(%rax,%rax,1)
  402368:	ff 13                	call   *(%rbx)
  40236a:	48 83 c3 08          	add    $0x8,%rbx
  40236e:	48 39 eb             	cmp    %rbp,%rbx
  402371:	72 f5                	jb     402368 <__libc_start_init+0x28>
  402373:	48 83 c4 08          	add    $0x8,%rsp
  402377:	5b                   	pop    %rbx
  402378:	5d                   	pop    %rbp
  402379:	c3                   	ret    
  40237a:	66 0f 1f 44 00 00    	nopw   0x0(%rax,%rax,1)

0000000000402380 <libc_start_main_stage2>:
  402380:	f3 0f 1e fa          	endbr64 
  402384:	41 55                	push   %r13
  402386:	48 63 c6             	movslq %esi,%rax
  402389:	41 54                	push   %r12
  40238b:	4c 8d 6c c2 08       	lea    0x8(%rdx,%rax,8),%r13
  402390:	49 89 d4             	mov    %rdx,%r12
  402393:	55                   	push   %rbp
  402394:	48 89 c5             	mov    %rax,%rbp
  402397:	53                   	push   %rbx
  402398:	48 89 fb             	mov    %rdi,%rbx
  40239b:	48 83 ec 08          	sub    $0x8,%rsp
  40239f:	e8 9c ff ff ff       	call   402340 <__libc_start_init>
  4023a4:	89 ef                	mov    %ebp,%edi
  4023a6:	4c 89 ea             	mov    %r13,%rdx
  4023a9:	4c 89 e6             	mov    %r12,%rsi
  4023ac:	ff d3                	call   *%rbx
  4023ae:	89 c7                	mov    %eax,%edi
  4023b0:	e8 5b ec ff ff       	call   401010 <exit>
  4023b5:	66 2e 0f 1f 84 00 00 	cs nopw 0x0(%rax,%rax,1)
  4023bc:	00 00 00 
  4023bf:	90                   	nop

00000000004023c0 <__libc_start_main>:
  4023c0:	f3 0f 1e fa          	endbr64 
  4023c4:	41 55                	push   %r13
  4023c6:	48 63 c6             	movslq %esi,%rax
  4023c9:	49 89 fd             	mov    %rdi,%r13
  4023cc:	41 54                	push   %r12
  4023ce:	48 8d 7c c2 08       	lea    0x8(%rdx,%rax,8),%rdi
  4023d3:	49 89 d4             	mov    %rdx,%r12
  4023d6:	55                   	push   %rbp
  4023d7:	48 8b 32             	mov    (%rdx),%rsi
  4023da:	48 89 c5             	mov    %rax,%rbp
  4023dd:	e8 2e fd ff ff       	call   402110 <__init_libc>
  4023e2:	4c 89 e2             	mov    %r12,%rdx
  4023e5:	89 ee                	mov    %ebp,%esi
  4023e7:	4c 89 ef             	mov    %r13,%rdi
  4023ea:	48 8d 05 8f ff ff ff 	lea    -0x71(%rip),%rax        # 402380 <libc_start_main_stage2>
  4023f1:	5d                   	pop    %rbp
  4023f2:	41 5c                	pop    %r12
  4023f4:	41 5d                	pop    %r13
  4023f6:	ff e0                	jmp    *%rax
  4023f8:	0f 1f 84 00 00 00 00 	nopl   0x0(%rax,%rax,1)
  4023ff:	00 

0000000000402400 <__init_ssp>:
  402400:	f3 0f 1e fa          	endbr64 
  402404:	53                   	push   %rbx
  402405:	48 85 ff             	test   %rdi,%rdi
  402408:	74 36                	je     402440 <__init_ssp+0x40>
  40240a:	48 c7 c3 30 c2 40 00 	mov    $0x40c230,%rbx
  402411:	48 89 fe             	mov    %rdi,%rsi
  402414:	ba 08 00 00 00       	mov    $0x8,%edx
  402419:	48 89 df             	mov    %rbx,%rdi
  40241c:	e8 95 06 00 00       	call   402ab6 <memcpy>
  402421:	c6 43 01 00          	movb   $0x0,0x1(%rbx)
  402425:	48 8b 13             	mov    (%rbx),%rdx
  402428:	64 48 8b 04 25 00 00 	mov    %fs:0x0,%rax
  40242f:	00 00 
  402431:	48 89 50 28          	mov    %rdx,0x28(%rax)
  402435:	5b                   	pop    %rbx
  402436:	c3                   	ret    
  402437:	66 0f 1f 84 00 00 00 	nopw   0x0(%rax,%rax,1)
  40243e:	00 00 
  402440:	48 c7 c3 30 c2 40 00 	mov    $0x40c230,%rbx
  402447:	48 69 c3 6d 4e c6 41 	imul   $0x41c64e6d,%rbx,%rax
  40244e:	48 89 03             	mov    %rax,(%rbx)
  402451:	eb ce                	jmp    402421 <__init_ssp+0x21>
  402453:	66 2e 0f 1f 84 00 00 	cs nopw 0x0(%rax,%rax,1)
  40245a:	00 00 00 
  40245d:	0f 1f 00             	nopl   (%rax)

0000000000402460 <__stack_chk_fail>:
  402460:	f3 0f 1e fa          	endbr64 
  402464:	f4                   	hlt    
  402465:	c3                   	ret    
  402466:	66 2e 0f 1f 84 00 00 	cs nopw 0x0(%rax,%rax,1)
  40246d:	00 00 00 

0000000000402470 <__funcs_on_exit>:
  402470:	f3 0f 1e fa          	endbr64 
  402474:	c3                   	ret    
  402475:	66 2e 0f 1f 84 00 00 	cs nopw 0x0(%rax,%rax,1)
  40247c:	00 00 00 
  40247f:	90                   	nop

0000000000402480 <__libc_exit_fini>:
  402480:	f3 0f 1e fa          	endbr64 
  402484:	55                   	push   %rbp
  402485:	53                   	push   %rbx
  402486:	48 83 ec 08          	sub    $0x8,%rsp
  40248a:	48 c7 c3 c0 bf 40 00 	mov    $0x40bfc0,%rbx
  402491:	48 c7 c5 b8 bf 40 00 	mov    $0x40bfb8,%rbp
  402498:	48 39 eb             	cmp    %rbp,%rbx
  40249b:	76 10                	jbe    4024ad <__libc_exit_fini+0x2d>
  40249d:	0f 1f 00             	nopl   (%rax)
  4024a0:	48 83 eb 08          	sub    $0x8,%rbx
  4024a4:	31 c0                	xor    %eax,%eax
  4024a6:	ff 13                	call   *(%rbx)
  4024a8:	48 39 eb             	cmp    %rbp,%rbx
  4024ab:	77 f3                	ja     4024a0 <__libc_exit_fini+0x20>
  4024ad:	48 83 c4 08          	add    $0x8,%rsp
  4024b1:	31 c0                	xor    %eax,%eax
  4024b3:	5b                   	pop    %rbx
  4024b4:	5d                   	pop    %rbp
  4024b5:	e9 2a 6f 00 00       	jmp    4093e4 <_fini>
  4024ba:	66 0f 1f 44 00 00    	nopw   0x0(%rax,%rax,1)

00000000004024c0 <open>:
  4024c0:	f3 0f 1e fa          	endbr64 
  4024c4:	53                   	push   %rbx
  4024c5:	89 f3                	mov    %esi,%ebx
  4024c7:	49 89 fa             	mov    %rdi,%r10
  4024ca:	48 83 ec 50          	sub    $0x50,%rsp
  4024ce:	48 89 54 24 30       	mov    %rdx,0x30(%rsp)
  4024d3:	64 48 8b 04 25 28 00 	mov    %fs:0x28,%rax
  4024da:	00 00 
  4024dc:	48 89 44 24 18       	mov    %rax,0x18(%rsp)
  4024e1:	31 c0                	xor    %eax,%eax
  4024e3:	83 e6 40             	and    $0x40,%esi
  4024e6:	75 60                	jne    402548 <open+0x88>
  4024e8:	89 d8                	mov    %ebx,%eax
  4024ea:	31 c9                	xor    %ecx,%ecx
  4024ec:	25 00 00 41 00       	and    $0x410000,%eax
  4024f1:	3d 00 00 41 00       	cmp    $0x410000,%eax
  4024f6:	74 50                	je     402548 <open+0x88>
  4024f8:	48 83 ec 08          	sub    $0x8,%rsp
  4024fc:	89 da                	mov    %ebx,%edx
  4024fe:	bf 02 00 00 00       	mov    $0x2,%edi
  402503:	45 31 c9             	xor    %r9d,%r9d
  402506:	6a 00                	push   $0x0
  402508:	80 ce 80             	or     $0x80,%dh
  40250b:	45 31 c0             	xor    %r8d,%r8d
  40250e:	4c 89 d6             	mov    %r10,%rsi
  402511:	48 63 d2             	movslq %edx,%rdx
  402514:	e8 37 07 00 00       	call   402c50 <__syscall_cp>
  402519:	5a                   	pop    %rdx
  40251a:	59                   	pop    %rcx
  40251b:	48 63 f8             	movslq %eax,%rdi
  40251e:	85 c0                	test   %eax,%eax
  402520:	78 08                	js     40252a <open+0x6a>
  402522:	81 e3 00 00 08 00    	and    $0x80000,%ebx
  402528:	75 46                	jne    402570 <open+0xb0>
  40252a:	e8 61 00 00 00       	call   402590 <__syscall_ret>
  40252f:	48 8b 54 24 18       	mov    0x18(%rsp),%rdx
  402534:	64 48 2b 14 25 28 00 	sub    %fs:0x28,%rdx
  40253b:	00 00 
  40253d:	75 44                	jne    402583 <open+0xc3>
  40253f:	48 83 c4 50          	add    $0x50,%rsp
  402543:	5b                   	pop    %rbx
  402544:	c3                   	ret    
  402545:	0f 1f 00             	nopl   (%rax)
  402548:	48 8d 44 24 60       	lea    0x60(%rsp),%rax
  40254d:	c7 04 24 10 00 00 00 	movl   $0x10,(%rsp)
  402554:	8b 4c 24 30          	mov    0x30(%rsp),%ecx
  402558:	48 89 44 24 08       	mov    %rax,0x8(%rsp)
  40255d:	48 8d 44 24 20       	lea    0x20(%rsp),%rax
  402562:	48 89 44 24 10       	mov    %rax,0x10(%rsp)
  402567:	eb 8f                	jmp    4024f8 <open+0x38>
  402569:	0f 1f 80 00 00 00 00 	nopl   0x0(%rax)
  402570:	b8 48 00 00 00       	mov    $0x48,%eax
  402575:	be 02 00 00 00       	mov    $0x2,%esi
  40257a:	ba 01 00 00 00       	mov    $0x1,%edx
  40257f:	0f 05                	syscall 
  402581:	eb a7                	jmp    40252a <open+0x6a>
  402583:	e8 d8 fe ff ff       	call   402460 <__stack_chk_fail>
  402588:	0f 1f 84 00 00 00 00 	nopl   0x0(%rax,%rax,1)
  40258f:	00 

0000000000402590 <__syscall_ret>:
  402590:	f3 0f 1e fa          	endbr64 
  402594:	48 81 ff 00 f0 ff ff 	cmp    $0xfffffffffffff000,%rdi
  40259b:	77 0b                	ja     4025a8 <__syscall_ret+0x18>
  40259d:	48 89 f8             	mov    %rdi,%rax
  4025a0:	c3                   	ret    
  4025a1:	0f 1f 80 00 00 00 00 	nopl   0x0(%rax)
  4025a8:	48 83 ec 18          	sub    $0x18,%rsp
  4025ac:	48 89 7c 24 08       	mov    %rdi,0x8(%rsp)
  4025b1:	e8 ca 0a 00 00       	call   403080 <__errno_location>
  4025b6:	48 8b 7c 24 08       	mov    0x8(%rsp),%rdi
  4025bb:	f7 df                	neg    %edi
  4025bd:	89 38                	mov    %edi,(%rax)
  4025bf:	48 c7 c0 ff ff ff ff 	mov    $0xffffffffffffffff,%rax
  4025c6:	48 83 c4 18          	add    $0x18,%rsp
  4025ca:	c3                   	ret    
  4025cb:	0f 1f 44 00 00       	nopl   0x0(%rax,%rax,1)

00000000004025d0 <__vm_wait>:
  4025d0:	f3 0f 1e fa          	endbr64 
  4025d4:	c3                   	ret    
  4025d5:	66 2e 0f 1f 84 00 00 	cs nopw 0x0(%rax,%rax,1)
  4025dc:	00 00 00 
  4025df:	90                   	nop

00000000004025e0 <__mmap>:
  4025e0:	f3 0f 1e fa          	endbr64 
  4025e4:	41 54                	push   %r12
  4025e6:	53                   	push   %rbx
  4025e7:	48 83 ec 28          	sub    $0x28,%rsp
  4025eb:	41 f7 c1 ff 0f 00 00 	test   $0xfff,%r9d
  4025f2:	75 7c                	jne    402670 <__mmap+0x90>
  4025f4:	48 b8 fe ff ff ff ff 	movabs $0x7ffffffffffffffe,%rax
  4025fb:	ff ff 7f 
  4025fe:	48 39 c6             	cmp    %rax,%rsi
  402601:	77 4d                	ja     402650 <__mmap+0x70>
  402603:	49 89 fc             	mov    %rdi,%r12
  402606:	89 cb                	mov    %ecx,%ebx
  402608:	f6 c1 10             	test   $0x10,%cl
  40260b:	0f 85 7f 00 00 00    	jne    402690 <__mmap+0xb0>
  402611:	48 63 d2             	movslq %edx,%rdx
  402614:	4c 63 d3             	movslq %ebx,%r10
  402617:	4d 63 c0             	movslq %r8d,%r8
  40261a:	b8 09 00 00 00       	mov    $0x9,%eax
  40261f:	4c 89 e7             	mov    %r12,%rdi
  402622:	0f 05                	syscall 
  402624:	48 89 c7             	mov    %rax,%rdi
  402627:	48 83 f8 ff          	cmp    $0xffffffffffffffff,%rax
  40262b:	75 16                	jne    402643 <__mmap+0x63>
  40262d:	4d 85 e4             	test   %r12,%r12
  402630:	75 11                	jne    402643 <__mmap+0x63>
  402632:	83 e3 30             	and    $0x30,%ebx
  402635:	48 c7 c0 f4 ff ff ff 	mov    $0xfffffffffffffff4,%rax
  40263c:	83 fb 20             	cmp    $0x20,%ebx
  40263f:	48 0f 44 f8          	cmove  %rax,%rdi
  402643:	48 83 c4 28          	add    $0x28,%rsp
  402647:	5b                   	pop    %rbx
  402648:	41 5c                	pop    %r12
  40264a:	e9 41 ff ff ff       	jmp    402590 <__syscall_ret>
  40264f:	90                   	nop
  402650:	e8 2b 0a 00 00       	call   403080 <__errno_location>
  402655:	c7 00 0c 00 00 00    	movl   $0xc,(%rax)
  40265b:	48 83 c4 28          	add    $0x28,%rsp
  40265f:	48 c7 c0 ff ff ff ff 	mov    $0xffffffffffffffff,%rax
  402666:	5b                   	pop    %rbx
  402667:	41 5c                	pop    %r12
  402669:	c3                   	ret    
  40266a:	66 0f 1f 44 00 00    	nopw   0x0(%rax,%rax,1)
  402670:	e8 0b 0a 00 00       	call   403080 <__errno_location>
  402675:	c7 00 16 00 00 00    	movl   $0x16,(%rax)
  40267b:	48 83 c4 28          	add    $0x28,%rsp
  40267f:	48 c7 c0 ff ff ff ff 	mov    $0xffffffffffffffff,%rax
  402686:	5b                   	pop    %rbx
  402687:	41 5c                	pop    %r12
  402689:	c3                   	ret    
  40268a:	66 0f 1f 44 00 00    	nopw   0x0(%rax,%rax,1)
  402690:	4c 89 4c 24 18       	mov    %r9,0x18(%rsp)
  402695:	44 89 44 24 14       	mov    %r8d,0x14(%rsp)
  40269a:	89 54 24 10          	mov    %edx,0x10(%rsp)
  40269e:	48 89 74 24 08       	mov    %rsi,0x8(%rsp)
  4026a3:	e8 28 ff ff ff       	call   4025d0 <__vm_wait>
  4026a8:	4c 8b 4c 24 18       	mov    0x18(%rsp),%r9
  4026ad:	44 8b 44 24 14       	mov    0x14(%rsp),%r8d
  4026b2:	8b 54 24 10          	mov    0x10(%rsp),%edx
  4026b6:	48 8b 74 24 08       	mov    0x8(%rsp),%rsi
  4026bb:	e9 51 ff ff ff       	jmp    402611 <__mmap+0x31>

00000000004026c0 <signal>:
  4026c0:	f3 0f 1e fa          	endbr64 
  4026c4:	48 81 ec 48 01 00 00 	sub    $0x148,%rsp
  4026cb:	41 89 f8             	mov    %edi,%r8d
  4026ce:	b9 12 00 00 00       	mov    $0x12,%ecx
  4026d3:	64 48 8b 04 25 28 00 	mov    %fs:0x28,%rax
  4026da:	00 00 
  4026dc:	48 89 84 24 38 01 00 	mov    %rax,0x138(%rsp)
  4026e3:	00 
  4026e4:	31 c0                	xor    %eax,%eax
  4026e6:	48 8d bc 24 a8 00 00 	lea    0xa8(%rsp),%rdi
  4026ed:	00 
  4026ee:	48 89 e2             	mov    %rsp,%rdx
  4026f1:	48 89 b4 24 a0 00 00 	mov    %rsi,0xa0(%rsp)
  4026f8:	00 
  4026f9:	48 8d b4 24 a0 00 00 	lea    0xa0(%rsp),%rsi
  402700:	00 
  402701:	f3 48 ab             	rep stos %rax,%es:(%rdi)
  402704:	44 89 c7             	mov    %r8d,%edi
  402707:	c7 84 24 28 01 00 00 	movl   $0x10000000,0x128(%rsp)
  40270e:	00 00 00 10 
  402712:	e8 99 0b 00 00       	call   4032b0 <__sigaction>
  402717:	85 c0                	test   %eax,%eax
  402719:	48 c7 c0 ff ff ff ff 	mov    $0xffffffffffffffff,%rax
  402720:	48 0f 49 04 24       	cmovns (%rsp),%rax
  402725:	48 8b 94 24 38 01 00 	mov    0x138(%rsp),%rdx
  40272c:	00 
  40272d:	64 48 2b 14 25 28 00 	sub    %fs:0x28,%rdx
  402734:	00 00 
  402736:	75 08                	jne    402740 <signal+0x80>
  402738:	48 81 c4 48 01 00 00 	add    $0x148,%rsp
  40273f:	c3                   	ret    
  402740:	e8 1b fd ff ff       	call   402460 <__stack_chk_fail>
  402745:	66 2e 0f 1f 84 00 00 	cs nopw 0x0(%rax,%rax,1)
  40274c:	00 00 00 
  40274f:	90                   	nop

0000000000402750 <fflush>:
  402750:	f3 0f 1e fa          	endbr64 
  402754:	41 54                	push   %r12
  402756:	55                   	push   %rbp
  402757:	53                   	push   %rbx
  402758:	48 85 ff             	test   %rdi,%rdi
  40275b:	0f 84 a7 00 00 00    	je     402808 <fflush+0xb8>
  402761:	8b 87 8c 00 00 00    	mov    0x8c(%rdi),%eax
  402767:	48 89 fd             	mov    %rdi,%rbp
  40276a:	45 31 e4             	xor    %r12d,%r12d
  40276d:	85 c0                	test   %eax,%eax
  40276f:	79 6f                	jns    4027e0 <fflush+0x90>
  402771:	48 8b 45 38          	mov    0x38(%rbp),%rax
  402775:	48 39 45 28          	cmp    %rax,0x28(%rbp)
  402779:	74 15                	je     402790 <fflush+0x40>
  40277b:	31 d2                	xor    %edx,%edx
  40277d:	31 f6                	xor    %esi,%esi
  40277f:	48 89 ef             	mov    %rbp,%rdi
  402782:	ff 55 48             	call   *0x48(%rbp)
  402785:	48 83 7d 28 00       	cmpq   $0x0,0x28(%rbp)
  40278a:	0f 84 29 01 00 00    	je     4028b9 <fflush+0x169>
  402790:	48 8b 75 08          	mov    0x8(%rbp),%rsi
  402794:	48 8b 45 10          	mov    0x10(%rbp),%rax
  402798:	48 39 c6             	cmp    %rax,%rsi
  40279b:	74 0e                	je     4027ab <fflush+0x5b>
  40279d:	48 29 c6             	sub    %rax,%rsi
  4027a0:	ba 01 00 00 00       	mov    $0x1,%edx
  4027a5:	48 89 ef             	mov    %rbp,%rdi
  4027a8:	ff 55 50             	call   *0x50(%rbp)
  4027ab:	48 c7 45 20 00 00 00 	movq   $0x0,0x20(%rbp)
  4027b2:	00 
  4027b3:	48 c7 45 38 00 00 00 	movq   $0x0,0x38(%rbp)
  4027ba:	00 
  4027bb:	48 c7 45 28 00 00 00 	movq   $0x0,0x28(%rbp)
  4027c2:	00 
  4027c3:	48 c7 45 10 00 00 00 	movq   $0x0,0x10(%rbp)
  4027ca:	00 
  4027cb:	48 c7 45 08 00 00 00 	movq   $0x0,0x8(%rbp)
  4027d2:	00 
  4027d3:	45 85 e4             	test   %r12d,%r12d
  4027d6:	75 18                	jne    4027f0 <fflush+0xa0>
  4027d8:	44 89 e0             	mov    %r12d,%eax
  4027db:	5b                   	pop    %rbx
  4027dc:	5d                   	pop    %rbp
  4027dd:	41 5c                	pop    %r12
  4027df:	c3                   	ret    
  4027e0:	e8 cb 0b 00 00       	call   4033b0 <__lockfile>
  4027e5:	41 89 c4             	mov    %eax,%r12d
  4027e8:	eb 87                	jmp    402771 <fflush+0x21>
  4027ea:	66 0f 1f 44 00 00    	nopw   0x0(%rax,%rax,1)
  4027f0:	48 89 ef             	mov    %rbp,%rdi
  4027f3:	45 31 e4             	xor    %r12d,%r12d
  4027f6:	e8 95 0c 00 00       	call   403490 <__unlockfile>
  4027fb:	44 89 e0             	mov    %r12d,%eax
  4027fe:	5b                   	pop    %rbx
  4027ff:	5d                   	pop    %rbp
  402800:	41 5c                	pop    %r12
  402802:	c3                   	ret    
  402803:	0f 1f 44 00 00       	nopl   0x0(%rax,%rax,1)
  402808:	48 8b 05 01 98 00 00 	mov    0x9801(%rip),%rax        # 40c010 <__stdout_used>
  40280f:	45 31 e4             	xor    %r12d,%r12d
  402812:	48 85 c0             	test   %rax,%rax
  402815:	74 0f                	je     402826 <fflush+0xd6>
  402817:	48 8b 3d f2 97 00 00 	mov    0x97f2(%rip),%rdi        # 40c010 <__stdout_used>
  40281e:	e8 2d ff ff ff       	call   402750 <fflush>
  402823:	41 89 c4             	mov    %eax,%r12d
  402826:	48 8b 05 9b 9a 00 00 	mov    0x9a9b(%rip),%rax        # 40c2c8 <__stderr_used>
  40282d:	48 85 c0             	test   %rax,%rax
  402830:	74 0f                	je     402841 <fflush+0xf1>
  402832:	48 8b 3d 8f 9a 00 00 	mov    0x9a8f(%rip),%rdi        # 40c2c8 <__stderr_used>
  402839:	e8 12 ff ff ff       	call   402750 <fflush>
  40283e:	41 09 c4             	or     %eax,%r12d
  402841:	e8 9a 00 00 00       	call   4028e0 <__ofl_lock>
  402846:	48 8b 28             	mov    (%rax),%rbp
  402849:	48 85 ed             	test   %rbp,%rbp
  40284c:	75 20                	jne    40286e <fflush+0x11e>
  40284e:	eb 5c                	jmp    4028ac <fflush+0x15c>
  402850:	48 8b 45 38          	mov    0x38(%rbp),%rax
  402854:	48 39 45 28          	cmp    %rax,0x28(%rbp)
  402858:	74 0b                	je     402865 <fflush+0x115>
  40285a:	48 89 ef             	mov    %rbp,%rdi
  40285d:	e8 ee fe ff ff       	call   402750 <fflush>
  402862:	41 09 c4             	or     %eax,%r12d
  402865:	48 8b 6d 70          	mov    0x70(%rbp),%rbp
  402869:	48 85 ed             	test   %rbp,%rbp
  40286c:	74 3e                	je     4028ac <fflush+0x15c>
  40286e:	8b 85 8c 00 00 00    	mov    0x8c(%rbp),%eax
  402874:	85 c0                	test   %eax,%eax
  402876:	78 d8                	js     402850 <fflush+0x100>
  402878:	48 89 ef             	mov    %rbp,%rdi
  40287b:	e8 30 0b 00 00       	call   4033b0 <__lockfile>
  402880:	89 c3                	mov    %eax,%ebx
  402882:	48 8b 45 38          	mov    0x38(%rbp),%rax
  402886:	48 39 45 28          	cmp    %rax,0x28(%rbp)
  40288a:	74 0b                	je     402897 <fflush+0x147>
  40288c:	48 89 ef             	mov    %rbp,%rdi
  40288f:	e8 bc fe ff ff       	call   402750 <fflush>
  402894:	41 09 c4             	or     %eax,%r12d
  402897:	85 db                	test   %ebx,%ebx
  402899:	74 ca                	je     402865 <fflush+0x115>
  40289b:	48 89 ef             	mov    %rbp,%rdi
  40289e:	e8 ed 0b 00 00       	call   403490 <__unlockfile>
  4028a3:	48 8b 6d 70          	mov    0x70(%rbp),%rbp
  4028a7:	48 85 ed             	test   %rbp,%rbp
  4028aa:	75 c2                	jne    40286e <fflush+0x11e>
  4028ac:	e8 4f 00 00 00       	call   402900 <__ofl_unlock>
  4028b1:	44 89 e0             	mov    %r12d,%eax
  4028b4:	5b                   	pop    %rbx
  4028b5:	5d                   	pop    %rbp
  4028b6:	41 5c                	pop    %r12
  4028b8:	c3                   	ret    
  4028b9:	45 85 e4             	test   %r12d,%r12d
  4028bc:	75 0b                	jne    4028c9 <fflush+0x179>
  4028be:	41 bc ff ff ff ff    	mov    $0xffffffff,%r12d
  4028c4:	e9 0f ff ff ff       	jmp    4027d8 <fflush+0x88>
  4028c9:	48 89 ef             	mov    %rbp,%rdi
  4028cc:	41 83 cc ff          	or     $0xffffffff,%r12d
  4028d0:	e8 bb 0b 00 00       	call   403490 <__unlockfile>
  4028d5:	e9 fe fe ff ff       	jmp    4027d8 <fflush+0x88>
  4028da:	66 0f 1f 44 00 00    	nopw   0x0(%rax,%rax,1)

00000000004028e0 <__ofl_lock>:
  4028e0:	f3 0f 1e fa          	endbr64 
  4028e4:	48 83 ec 08          	sub    $0x8,%rsp
  4028e8:	48 8d 3d e1 99 00 00 	lea    0x99e1(%rip),%rdi        # 40c2d0 <ofl_lock>
  4028ef:	e8 fc 01 00 00       	call   402af0 <__lock>
  4028f4:	48 8d 05 dd 99 00 00 	lea    0x99dd(%rip),%rax        # 40c2d8 <ofl_head>
  4028fb:	48 83 c4 08          	add    $0x8,%rsp
  4028ff:	c3                   	ret    

0000000000402900 <__ofl_unlock>:
  402900:	f3 0f 1e fa          	endbr64 
  402904:	48 8d 3d c5 99 00 00 	lea    0x99c5(%rip),%rdi        # 40c2d0 <ofl_lock>
  40290b:	e9 d0 02 00 00       	jmp    402be0 <__unlock>

0000000000402910 <puts>:
  402910:	f3 0f 1e fa          	endbr64 
  402914:	41 55                	push   %r13
  402916:	4c 8d 2d 03 97 00 00 	lea    0x9703(%rip),%r13        # 40c020 <__stdout_FILE>
  40291d:	41 54                	push   %r12
  40291f:	55                   	push   %rbp
  402920:	48 89 fd             	mov    %rdi,%rbp
  402923:	53                   	push   %rbx
  402924:	48 83 ec 08          	sub    $0x8,%rsp
  402928:	8b 05 7e 97 00 00    	mov    0x977e(%rip),%eax        # 40c0ac <__stdout_FILE+0x8c>
  40292e:	85 c0                	test   %eax,%eax
  402930:	79 76                	jns    4029a8 <puts+0x98>
  402932:	4c 89 ee             	mov    %r13,%rsi
  402935:	41 bc ff ff ff ff    	mov    $0xffffffff,%r12d
  40293b:	31 db                	xor    %ebx,%ebx
  40293d:	e8 9e 0d 00 00       	call   4036e0 <fputs>
  402942:	85 c0                	test   %eax,%eax
  402944:	78 36                	js     40297c <puts+0x6c>
  402946:	83 3d 63 97 00 00 0a 	cmpl   $0xa,0x9763(%rip)        # 40c0b0 <__stdout_FILE+0x90>
  40294d:	74 41                	je     402990 <puts+0x80>
  40294f:	48 8b 05 f2 96 00 00 	mov    0x96f2(%rip),%rax        # 40c048 <__stdout_FILE+0x28>
  402956:	48 3b 05 e3 96 00 00 	cmp    0x96e3(%rip),%rax        # 40c040 <__stdout_FILE+0x20>
  40295d:	74 31                	je     402990 <puts+0x80>
  40295f:	48 8d 50 01          	lea    0x1(%rax),%rdx
  402963:	45 31 e4             	xor    %r12d,%r12d
  402966:	48 89 15 db 96 00 00 	mov    %rdx,0x96db(%rip)        # 40c048 <__stdout_FILE+0x28>
  40296d:	c6 00 0a             	movb   $0xa,(%rax)
  402970:	85 db                	test   %ebx,%ebx
  402972:	74 08                	je     40297c <puts+0x6c>
  402974:	4c 89 ef             	mov    %r13,%rdi
  402977:	e8 14 0b 00 00       	call   403490 <__unlockfile>
  40297c:	48 83 c4 08          	add    $0x8,%rsp
  402980:	44 89 e0             	mov    %r12d,%eax
  402983:	5b                   	pop    %rbx
  402984:	5d                   	pop    %rbp
  402985:	41 5c                	pop    %r12
  402987:	41 5d                	pop    %r13
  402989:	c3                   	ret    
  40298a:	66 0f 1f 44 00 00    	nopw   0x0(%rax,%rax,1)
  402990:	be 0a 00 00 00       	mov    $0xa,%esi
  402995:	4c 89 ef             	mov    %r13,%rdi
  402998:	e8 43 0b 00 00       	call   4034e0 <__overflow>
  40299d:	c1 f8 1f             	sar    $0x1f,%eax
  4029a0:	41 89 c4             	mov    %eax,%r12d
  4029a3:	eb cb                	jmp    402970 <puts+0x60>
  4029a5:	0f 1f 00             	nopl   (%rax)
  4029a8:	4c 89 ef             	mov    %r13,%rdi
  4029ab:	41 bc ff ff ff ff    	mov    $0xffffffff,%r12d
  4029b1:	e8 fa 09 00 00       	call   4033b0 <__lockfile>
  4029b6:	4c 89 ee             	mov    %r13,%rsi
  4029b9:	48 89 ef             	mov    %rbp,%rdi
  4029bc:	89 c3                	mov    %eax,%ebx
  4029be:	e8 1d 0d 00 00       	call   4036e0 <fputs>
  4029c3:	85 c0                	test   %eax,%eax
  4029c5:	78 a9                	js     402970 <puts+0x60>
  4029c7:	83 3d e2 96 00 00 0a 	cmpl   $0xa,0x96e2(%rip)        # 40c0b0 <__stdout_FILE+0x90>
  4029ce:	0f 85 7b ff ff ff    	jne    40294f <puts+0x3f>
  4029d4:	eb ba                	jmp    402990 <puts+0x80>
  4029d6:	66 2e 0f 1f 84 00 00 	cs nopw 0x0(%rax,%rax,1)
  4029dd:	00 00 00 

00000000004029e0 <scanf>:
  4029e0:	f3 0f 1e fa          	endbr64 
  4029e4:	48 81 ec d8 00 00 00 	sub    $0xd8,%rsp
  4029eb:	48 89 74 24 28       	mov    %rsi,0x28(%rsp)
  4029f0:	48 89 54 24 30       	mov    %rdx,0x30(%rsp)
  4029f5:	48 89 4c 24 38       	mov    %rcx,0x38(%rsp)
  4029fa:	4c 89 44 24 40       	mov    %r8,0x40(%rsp)
  4029ff:	4c 89 4c 24 48       	mov    %r9,0x48(%rsp)
  402a04:	84 c0                	test   %al,%al
  402a06:	74 37                	je     402a3f <scanf+0x5f>
  402a08:	0f 29 44 24 50       	movaps %xmm0,0x50(%rsp)
  402a0d:	0f 29 4c 24 60       	movaps %xmm1,0x60(%rsp)
  402a12:	0f 29 54 24 70       	movaps %xmm2,0x70(%rsp)
  402a17:	0f 29 9c 24 80 00 00 	movaps %xmm3,0x80(%rsp)
  402a1e:	00 
  402a1f:	0f 29 a4 24 90 00 00 	movaps %xmm4,0x90(%rsp)
  402a26:	00 
  402a27:	0f 29 ac 24 a0 00 00 	movaps %xmm5,0xa0(%rsp)
  402a2e:	00 
  402a2f:	0f 29 b4 24 b0 00 00 	movaps %xmm6,0xb0(%rsp)
  402a36:	00 
  402a37:	0f 29 bc 24 c0 00 00 	movaps %xmm7,0xc0(%rsp)
  402a3e:	00 
  402a3f:	64 48 8b 04 25 28 00 	mov    %fs:0x28,%rax
  402a46:	00 00 
  402a48:	48 89 44 24 18       	mov    %rax,0x18(%rsp)
  402a4d:	31 c0                	xor    %eax,%eax
  402a4f:	48 8d 84 24 e0 00 00 	lea    0xe0(%rsp),%rax
  402a56:	00 
  402a57:	48 89 e6             	mov    %rsp,%rsi
  402a5a:	c7 04 24 08 00 00 00 	movl   $0x8,(%rsp)
  402a61:	48 89 44 24 08       	mov    %rax,0x8(%rsp)
  402a66:	48 8d 44 24 20       	lea    0x20(%rsp),%rax
  402a6b:	c7 44 24 04 30 00 00 	movl   $0x30,0x4(%rsp)
  402a72:	00 
  402a73:	48 89 44 24 10       	mov    %rax,0x10(%rsp)
  402a78:	e8 23 00 00 00       	call   402aa0 <vscanf>
  402a7d:	48 8b 54 24 18       	mov    0x18(%rsp),%rdx
  402a82:	64 48 2b 14 25 28 00 	sub    %fs:0x28,%rdx
  402a89:	00 00 
  402a8b:	75 08                	jne    402a95 <scanf+0xb5>
  402a8d:	48 81 c4 d8 00 00 00 	add    $0xd8,%rsp
  402a94:	c3                   	ret    
  402a95:	e8 c6 f9 ff ff       	call   402460 <__stack_chk_fail>
  402a9a:	66 0f 1f 44 00 00    	nopw   0x0(%rax,%rax,1)

0000000000402aa0 <vscanf>:
  402aa0:	f3 0f 1e fa          	endbr64 
  402aa4:	48 89 f2             	mov    %rsi,%rdx
  402aa7:	48 89 fe             	mov    %rdi,%rsi
  402aaa:	48 8d 3d 6f 96 00 00 	lea    0x966f(%rip),%rdi        # 40c120 <__stdin_FILE>
  402ab1:	e9 ba 0e 00 00       	jmp    403970 <vfscanf>

0000000000402ab6 <memcpy>:
  402ab6:	48 89 f8             	mov    %rdi,%rax
  402ab9:	48 83 fa 08          	cmp    $0x8,%rdx
  402abd:	72 14                	jb     402ad3 <memcpy+0x1d>
  402abf:	f7 c7 07 00 00 00    	test   $0x7,%edi
  402ac5:	74 0c                	je     402ad3 <memcpy+0x1d>
  402ac7:	a4                   	movsb  %ds:(%rsi),%es:(%rdi)
  402ac8:	48 ff ca             	dec    %rdx
  402acb:	f7 c7 07 00 00 00    	test   $0x7,%edi
  402ad1:	75 f4                	jne    402ac7 <memcpy+0x11>
  402ad3:	48 89 d1             	mov    %rdx,%rcx
  402ad6:	48 c1 e9 03          	shr    $0x3,%rcx
  402ada:	f3 48 a5             	rep movsq %ds:(%rsi),%es:(%rdi)
  402add:	83 e2 07             	and    $0x7,%edx
  402ae0:	74 05                	je     402ae7 <memcpy+0x31>
  402ae2:	a4                   	movsb  %ds:(%rsi),%es:(%rdi)
  402ae3:	ff ca                	dec    %edx
  402ae5:	75 fb                	jne    402ae2 <memcpy+0x2c>
  402ae7:	c3                   	ret    
  402ae8:	0f 1f 84 00 00 00 00 	nopl   0x0(%rax,%rax,1)
  402aef:	00 

0000000000402af0 <__lock>:
  402af0:	f3 0f 1e fa          	endbr64 
  402af4:	0f be 0d 68 97 00 00 	movsbl 0x9768(%rip),%ecx        # 40c263 <__libc+0x3>
  402afb:	85 c9                	test   %ecx,%ecx
  402afd:	74 51                	je     402b50 <__lock+0x60>
  402aff:	31 c0                	xor    %eax,%eax
  402b01:	ba 01 00 00 80       	mov    $0x80000001,%edx
  402b06:	f0 0f b1 17          	lock cmpxchg %edx,(%rdi)
  402b0a:	89 c2                	mov    %eax,%edx
  402b0c:	85 c9                	test   %ecx,%ecx
  402b0e:	78 48                	js     402b58 <__lock+0x68>
  402b10:	85 c0                	test   %eax,%eax
  402b12:	74 3c                	je     402b50 <__lock+0x60>
  402b14:	41 b8 0a 00 00 00    	mov    $0xa,%r8d
  402b1a:	eb 1e                	jmp    402b3a <__lock+0x4a>
  402b1c:	0f 1f 40 00          	nopl   0x0(%rax)
  402b20:	8d b2 01 00 00 80    	lea    -0x7fffffff(%rdx),%esi
  402b26:	89 d1                	mov    %edx,%ecx
  402b28:	89 c8                	mov    %ecx,%eax
  402b2a:	f0 0f b1 37          	lock cmpxchg %esi,(%rdi)
  402b2e:	89 c2                	mov    %eax,%edx
  402b30:	39 c1                	cmp    %eax,%ecx
  402b32:	74 1c                	je     402b50 <__lock+0x60>
  402b34:	41 83 e8 01          	sub    $0x1,%r8d
  402b38:	74 2e                	je     402b68 <__lock+0x78>
  402b3a:	85 d2                	test   %edx,%edx
  402b3c:	79 e2                	jns    402b20 <__lock+0x30>
  402b3e:	8d 8a ff ff ff 7f    	lea    0x7fffffff(%rdx),%ecx
  402b44:	89 d6                	mov    %edx,%esi
  402b46:	eb e0                	jmp    402b28 <__lock+0x38>
  402b48:	0f 1f 84 00 00 00 00 	nopl   0x0(%rax,%rax,1)
  402b4f:	00 
  402b50:	c3                   	ret    
  402b51:	0f 1f 80 00 00 00 00 	nopl   0x0(%rax)
  402b58:	c6 05 04 97 00 00 00 	movb   $0x0,0x9704(%rip)        # 40c263 <__libc+0x3>
  402b5f:	85 c0                	test   %eax,%eax
  402b61:	75 b1                	jne    402b14 <__lock+0x24>
  402b63:	eb eb                	jmp    402b50 <__lock+0x60>
  402b65:	0f 1f 00             	nopl   (%rax)
  402b68:	53                   	push   %rbx
  402b69:	41 b8 01 00 00 00    	mov    $0x1,%r8d
  402b6f:	f0 44 0f c1 07       	lock xadd %r8d,(%rdi)
  402b74:	41 b9 ca 00 00 00    	mov    $0xca,%r9d
  402b7a:	41 83 c0 01          	add    $0x1,%r8d
  402b7e:	bb 80 00 00 00       	mov    $0x80,%ebx
  402b83:	eb 18                	jmp    402b9d <__lock+0xad>
  402b85:	0f 1f 00             	nopl   (%rax)
  402b88:	44 8d 82 00 00 00 80 	lea    -0x80000000(%rdx),%r8d
  402b8f:	89 d0                	mov    %edx,%eax
  402b91:	f0 44 0f b1 07       	lock cmpxchg %r8d,(%rdi)
  402b96:	41 89 c0             	mov    %eax,%r8d
  402b99:	39 c2                	cmp    %eax,%edx
  402b9b:	74 33                	je     402bd0 <__lock+0xe0>
  402b9d:	44 89 c2             	mov    %r8d,%edx
  402ba0:	45 85 c0             	test   %r8d,%r8d
  402ba3:	79 e3                	jns    402b88 <__lock+0x98>
  402ba5:	49 63 d0             	movslq %r8d,%rdx
  402ba8:	45 31 d2             	xor    %r10d,%r10d
  402bab:	4c 89 c8             	mov    %r9,%rax
  402bae:	48 89 de             	mov    %rbx,%rsi
  402bb1:	0f 05                	syscall 
  402bb3:	48 83 f8 da          	cmp    $0xffffffffffffffda,%rax
  402bb7:	75 07                	jne    402bc0 <__lock+0xd0>
  402bb9:	31 f6                	xor    %esi,%esi
  402bbb:	4c 89 c8             	mov    %r9,%rax
  402bbe:	0f 05                	syscall 
  402bc0:	41 8d 90 ff ff ff 7f 	lea    0x7fffffff(%r8),%edx
  402bc7:	eb bf                	jmp    402b88 <__lock+0x98>
  402bc9:	0f 1f 80 00 00 00 00 	nopl   0x0(%rax)
  402bd0:	5b                   	pop    %rbx
  402bd1:	c3                   	ret    
  402bd2:	66 2e 0f 1f 84 00 00 	cs nopw 0x0(%rax,%rax,1)
  402bd9:	00 00 00 
  402bdc:	0f 1f 40 00          	nopl   0x0(%rax)

0000000000402be0 <__unlock>:
  402be0:	f3 0f 1e fa          	endbr64 
  402be4:	8b 07                	mov    (%rdi),%eax
  402be6:	85 c0                	test   %eax,%eax
  402be8:	78 06                	js     402bf0 <__unlock+0x10>
  402bea:	c3                   	ret    
  402beb:	0f 1f 44 00 00       	nopl   0x0(%rax,%rax,1)
  402bf0:	b8 ff ff ff 7f       	mov    $0x7fffffff,%eax
  402bf5:	f0 0f c1 07          	lock xadd %eax,(%rdi)
  402bf9:	3d 01 00 00 80       	cmp    $0x80000001,%eax
  402bfe:	74 ea                	je     402bea <__unlock+0xa>
  402c00:	41 b8 ca 00 00 00    	mov    $0xca,%r8d
  402c06:	ba 01 00 00 00       	mov    $0x1,%edx
  402c0b:	be 81 00 00 00       	mov    $0x81,%esi
  402c10:	4c 89 c0             	mov    %r8,%rax
  402c13:	0f 05                	syscall 
  402c15:	48 83 f8 da          	cmp    $0xffffffffffffffda,%rax
  402c19:	75 cf                	jne    402bea <__unlock+0xa>
  402c1b:	4c 89 c0             	mov    %r8,%rax
  402c1e:	48 89 d6             	mov    %rdx,%rsi
  402c21:	0f 05                	syscall 
  402c23:	c3                   	ret    
  402c24:	66 2e 0f 1f 84 00 00 	cs nopw 0x0(%rax,%rax,1)
  402c2b:	00 00 00 
  402c2e:	66 90                	xchg   %ax,%ax

0000000000402c30 <__syscall_cp_c>:
  402c30:	f3 0f 1e fa          	endbr64 
  402c34:	48 89 f8             	mov    %rdi,%rax
  402c37:	4d 89 c2             	mov    %r8,%r10
  402c3a:	48 89 f7             	mov    %rsi,%rdi
  402c3d:	4d 89 c8             	mov    %r9,%r8
  402c40:	48 89 d6             	mov    %rdx,%rsi
  402c43:	4c 8b 4c 24 08       	mov    0x8(%rsp),%r9
  402c48:	48 89 ca             	mov    %rcx,%rdx
  402c4b:	0f 05                	syscall 
  402c4d:	c3                   	ret    
  402c4e:	66 90                	xchg   %ax,%ax

0000000000402c50 <__syscall_cp>:
  402c50:	f3 0f 1e fa          	endbr64 
  402c54:	e9 d7 ff ff ff       	jmp    402c30 <__syscall_cp_c>
  402c59:	0f 1f 80 00 00 00 00 	nopl   0x0(%rax)

0000000000402c60 <alarm>:
  402c60:	f3 0f 1e fa          	endbr64 
  402c64:	48 83 ec 58          	sub    $0x58,%rsp
  402c68:	66 0f ef c0          	pxor   %xmm0,%xmm0
  402c6c:	64 48 8b 04 25 28 00 	mov    %fs:0x28,%rax
  402c73:	00 00 
  402c75:	48 89 44 24 48       	mov    %rax,0x48(%rsp)
  402c7a:	31 c0                	xor    %eax,%eax
  402c7c:	48 8d 54 24 20       	lea    0x20(%rsp),%rdx
  402c81:	89 f8                	mov    %edi,%eax
  402c83:	48 89 e6             	mov    %rsp,%rsi
  402c86:	31 ff                	xor    %edi,%edi
  402c88:	0f 29 44 24 10       	movaps %xmm0,0x10(%rsp)
  402c8d:	0f 29 04 24          	movaps %xmm0,(%rsp)
  402c91:	48 89 44 24 10       	mov    %rax,0x10(%rsp)
  402c96:	0f 29 44 24 20       	movaps %xmm0,0x20(%rsp)
  402c9b:	0f 29 44 24 30       	movaps %xmm0,0x30(%rsp)
  402ca0:	e8 1b 04 00 00       	call   4030c0 <setitimer>
  402ca5:	31 c0                	xor    %eax,%eax
  402ca7:	48 83 7c 24 38 00    	cmpq   $0x0,0x38(%rsp)
  402cad:	0f 95 c0             	setne  %al
  402cb0:	03 44 24 30          	add    0x30(%rsp),%eax
  402cb4:	48 8b 54 24 48       	mov    0x48(%rsp),%rdx
  402cb9:	64 48 2b 14 25 28 00 	sub    %fs:0x28,%rdx
  402cc0:	00 00 
  402cc2:	75 05                	jne    402cc9 <alarm+0x69>
  402cc4:	48 83 c4 58          	add    $0x58,%rsp
  402cc8:	c3                   	ret    
  402cc9:	e8 92 f7 ff ff       	call   402460 <__stack_chk_fail>
  402cce:	66 90                	xchg   %ax,%ax

0000000000402cd0 <__aio_close>:
  402cd0:	f3 0f 1e fa          	endbr64 
  402cd4:	89 f8                	mov    %edi,%eax
  402cd6:	c3                   	ret    
  402cd7:	66 0f 1f 84 00 00 00 	nopw   0x0(%rax,%rax,1)
  402cde:	00 00 

0000000000402ce0 <close>:
  402ce0:	f3 0f 1e fa          	endbr64 
  402ce4:	48 83 ec 08          	sub    $0x8,%rsp
  402ce8:	e8 e3 ff ff ff       	call   402cd0 <__aio_close>
  402ced:	48 83 ec 08          	sub    $0x8,%rsp
  402cf1:	45 31 c9             	xor    %r9d,%r9d
  402cf4:	45 31 c0             	xor    %r8d,%r8d
  402cf7:	6a 00                	push   $0x0
  402cf9:	31 c9                	xor    %ecx,%ecx
  402cfb:	31 d2                	xor    %edx,%edx
  402cfd:	48 63 f0             	movslq %eax,%rsi
  402d00:	bf 03 00 00 00       	mov    $0x3,%edi
  402d05:	e8 46 ff ff ff       	call   402c50 <__syscall_cp>
  402d0a:	5a                   	pop    %rdx
  402d0b:	31 d2                	xor    %edx,%edx
  402d0d:	59                   	pop    %rcx
  402d0e:	83 f8 fc             	cmp    $0xfffffffc,%eax
  402d11:	0f 44 c2             	cmove  %edx,%eax
  402d14:	48 63 f8             	movslq %eax,%rdi
  402d17:	e8 74 f8 ff ff       	call   402590 <__syscall_ret>
  402d1c:	48 83 c4 08          	add    $0x8,%rsp
  402d20:	c3                   	ret    
  402d21:	66 2e 0f 1f 84 00 00 	cs nopw 0x0(%rax,%rax,1)
  402d28:	00 00 00 
  402d2b:	0f 1f 44 00 00       	nopl   0x0(%rax,%rax,1)

0000000000402d30 <read>:
  402d30:	f3 0f 1e fa          	endbr64 
  402d34:	48 83 ec 10          	sub    $0x10,%rsp
  402d38:	49 89 f2             	mov    %rsi,%r10
  402d3b:	48 89 d1             	mov    %rdx,%rcx
  402d3e:	48 63 f7             	movslq %edi,%rsi
  402d41:	6a 00                	push   $0x0
  402d43:	31 ff                	xor    %edi,%edi
  402d45:	45 31 c9             	xor    %r9d,%r9d
  402d48:	45 31 c0             	xor    %r8d,%r8d
  402d4b:	4c 89 d2             	mov    %r10,%rdx
  402d4e:	e8 fd fe ff ff       	call   402c50 <__syscall_cp>
  402d53:	48 83 c4 18          	add    $0x18,%rsp
  402d57:	48 89 c7             	mov    %rax,%rdi
  402d5a:	e9 31 f8 ff ff       	jmp    402590 <__syscall_ret>
  402d5f:	90                   	nop

0000000000402d60 <__init_tp>:
  402d60:	f3 0f 1e fa          	endbr64 
  402d64:	53                   	push   %rbx
  402d65:	48 89 fb             	mov    %rdi,%rbx
  402d68:	48 89 3f             	mov    %rdi,(%rdi)
  402d6b:	e8 61 1c 00 00       	call   4049d1 <__set_thread_area>
  402d70:	85 c0                	test   %eax,%eax
  402d72:	78 54                	js     402dc8 <__init_tp+0x68>
  402d74:	75 07                	jne    402d7d <__init_tp+0x1d>
  402d76:	c6 05 e3 94 00 00 01 	movb   $0x1,0x94e3(%rip)        # 40c260 <__libc>
  402d7d:	c7 43 38 02 00 00 00 	movl   $0x2,0x38(%rbx)
  402d84:	b8 da 00 00 00       	mov    $0xda,%eax
  402d89:	48 8d 3d 00 9b 00 00 	lea    0x9b00(%rip),%rdi        # 40c890 <__thread_list_lock>
  402d90:	0f 05                	syscall 
  402d92:	89 43 30             	mov    %eax,0x30(%rbx)
  402d95:	48 8d 05 fc 94 00 00 	lea    0x94fc(%rip),%rax        # 40c298 <__libc+0x38>
  402d9c:	48 89 83 a8 00 00 00 	mov    %rax,0xa8(%rbx)
  402da3:	48 8d 83 88 00 00 00 	lea    0x88(%rbx),%rax
  402daa:	48 89 83 88 00 00 00 	mov    %rax,0x88(%rbx)
  402db1:	48 8b 05 80 94 00 00 	mov    0x9480(%rip),%rax        # 40c238 <__sysinfo>
  402db8:	48 89 5b 10          	mov    %rbx,0x10(%rbx)
  402dbc:	48 89 43 20          	mov    %rax,0x20(%rbx)
  402dc0:	31 c0                	xor    %eax,%eax
  402dc2:	48 89 5b 18          	mov    %rbx,0x18(%rbx)
  402dc6:	5b                   	pop    %rbx
  402dc7:	c3                   	ret    
  402dc8:	b8 ff ff ff ff       	mov    $0xffffffff,%eax
  402dcd:	5b                   	pop    %rbx
  402dce:	c3                   	ret    
  402dcf:	90                   	nop

0000000000402dd0 <__copy_tls>:
  402dd0:	f3 0f 1e fa          	endbr64 
  402dd4:	41 55                	push   %r13
  402dd6:	49 89 fd             	mov    %rdi,%r13
  402dd9:	41 54                	push   %r12
  402ddb:	55                   	push   %rbp
  402ddc:	53                   	push   %rbx
  402ddd:	48 83 ec 08          	sub    $0x8,%rsp
  402de1:	48 8b 05 90 94 00 00 	mov    0x9490(%rip),%rax        # 40c278 <__libc+0x18>
  402de8:	4c 8b 25 91 94 00 00 	mov    0x9491(%rip),%r12        # 40c280 <__libc+0x20>
  402def:	48 8b 1d 7a 94 00 00 	mov    0x947a(%rip),%rbx        # 40c270 <__libc+0x10>
  402df6:	48 8d 84 07 38 ff ff 	lea    -0xc8(%rdi,%rax,1),%rax
  402dfd:	ff 
  402dfe:	49 f7 dc             	neg    %r12
  402e01:	49 21 c4             	and    %rax,%r12
  402e04:	48 85 db             	test   %rbx,%rbx
  402e07:	74 32                	je     402e3b <__copy_tls+0x6b>
  402e09:	48 8d 6f 08          	lea    0x8(%rdi),%rbp
  402e0d:	0f 1f 00             	nopl   (%rax)
  402e10:	4c 89 e0             	mov    %r12,%rax
  402e13:	48 2b 43 28          	sub    0x28(%rbx),%rax
  402e17:	48 8b 73 08          	mov    0x8(%rbx),%rsi
  402e1b:	4c 89 e7             	mov    %r12,%rdi
  402e1e:	48 89 45 00          	mov    %rax,0x0(%rbp)
  402e22:	48 8b 53 10          	mov    0x10(%rbx),%rdx
  402e26:	48 83 c5 08          	add    $0x8,%rbp
  402e2a:	48 2b 7b 28          	sub    0x28(%rbx),%rdi
  402e2e:	e8 83 fc ff ff       	call   402ab6 <memcpy>
  402e33:	48 8b 1b             	mov    (%rbx),%rbx
  402e36:	48 85 db             	test   %rbx,%rbx
  402e39:	75 d5                	jne    402e10 <__copy_tls+0x40>
  402e3b:	48 8b 05 46 94 00 00 	mov    0x9446(%rip),%rax        # 40c288 <__libc+0x28>
  402e42:	49 89 45 00          	mov    %rax,0x0(%r13)
  402e46:	4c 89 e0             	mov    %r12,%rax
  402e49:	4d 89 6c 24 08       	mov    %r13,0x8(%r12)
  402e4e:	48 83 c4 08          	add    $0x8,%rsp
  402e52:	5b                   	pop    %rbx
  402e53:	5d                   	pop    %rbp
  402e54:	41 5c                	pop    %r12
  402e56:	41 5d                	pop    %r13
  402e58:	c3                   	ret    
  402e59:	0f 1f 80 00 00 00 00 	nopl   0x0(%rax)

0000000000402e60 <__init_tls>:
  402e60:	f3 0f 1e fa          	endbr64 
  402e64:	53                   	push   %rbx
  402e65:	48 8b 4f 28          	mov    0x28(%rdi),%rcx
  402e69:	4c 8b 5f 18          	mov    0x18(%rdi),%r11
  402e6d:	48 85 c9             	test   %rcx,%rcx
  402e70:	0f 84 ea 01 00 00    	je     403060 <__init_tls+0x200>
  402e76:	44 8b 05 8f 93 00 00 	mov    0x938f(%rip),%r8d        # 40c20c <__default_stacksize>
  402e7d:	48 8b 7f 20          	mov    0x20(%rdi),%rdi
  402e81:	4c 89 d8             	mov    %r11,%rax
  402e84:	31 db                	xor    %ebx,%ebx
  402e86:	31 f6                	xor    %esi,%esi
  402e88:	45 31 c9             	xor    %r9d,%r9d
  402e8b:	eb 21                	jmp    402eae <__init_tls+0x4e>
  402e8d:	0f 1f 00             	nopl   (%rax)
  402e90:	83 fa 02             	cmp    $0x2,%edx
  402e93:	0f 84 a7 01 00 00    	je     403040 <__init_tls+0x1e0>
  402e99:	83 fa 07             	cmp    $0x7,%edx
  402e9c:	0f 85 68 01 00 00    	jne    40300a <__init_tls+0x1aa>
  402ea2:	49 89 c1             	mov    %rax,%r9
  402ea5:	48 01 f8             	add    %rdi,%rax
  402ea8:	48 83 e9 01          	sub    $0x1,%rcx
  402eac:	74 17                	je     402ec5 <__init_tls+0x65>
  402eae:	8b 10                	mov    (%rax),%edx
  402eb0:	83 fa 06             	cmp    $0x6,%edx
  402eb3:	75 db                	jne    402e90 <__init_tls+0x30>
  402eb5:	4c 89 de             	mov    %r11,%rsi
  402eb8:	48 2b 70 10          	sub    0x10(%rax),%rsi
  402ebc:	48 01 f8             	add    %rdi,%rax
  402ebf:	48 83 e9 01          	sub    $0x1,%rcx
  402ec3:	75 e9                	jne    402eae <__init_tls+0x4e>
  402ec5:	84 db                	test   %bl,%bl
  402ec7:	74 07                	je     402ed0 <__init_tls+0x70>
  402ec9:	44 89 05 3c 93 00 00 	mov    %r8d,0x933c(%rip)        # 40c20c <__default_stacksize>
  402ed0:	4d 85 c9             	test   %r9,%r9
  402ed3:	0f 84 87 01 00 00    	je     403060 <__init_tls+0x200>
  402ed9:	49 8b 41 20          	mov    0x20(%r9),%rax
  402edd:	49 03 71 10          	add    0x10(%r9),%rsi
  402ee1:	48 8d 0d 18 98 00 00 	lea    0x9818(%rip),%rcx        # 40c700 <main_tls>
  402ee8:	49 8b 51 28          	mov    0x28(%r9),%rdx
  402eec:	48 89 35 15 98 00 00 	mov    %rsi,0x9815(%rip)        # 40c708 <main_tls+0x8>
  402ef3:	48 89 05 16 98 00 00 	mov    %rax,0x9816(%rip)        # 40c710 <main_tls+0x10>
  402efa:	49 8b 41 30          	mov    0x30(%r9),%rax
  402efe:	48 c7 05 7f 93 00 00 	movq   $0x1,0x937f(%rip)        # 40c288 <__libc+0x28>
  402f05:	01 00 00 00 
  402f09:	48 89 05 10 98 00 00 	mov    %rax,0x9810(%rip)        # 40c720 <main_tls+0x20>
  402f10:	48 89 0d 59 93 00 00 	mov    %rcx,0x9359(%rip)        # 40c270 <__libc+0x10>
  402f17:	48 01 d6             	add    %rdx,%rsi
  402f1a:	48 8d 48 ff          	lea    -0x1(%rax),%rcx
  402f1e:	48 f7 de             	neg    %rsi
  402f21:	48 21 ce             	and    %rcx,%rsi
  402f24:	48 01 d6             	add    %rdx,%rsi
  402f27:	48 8d 90 df 00 00 00 	lea    0xdf(%rax),%rdx
  402f2e:	48 89 35 e3 97 00 00 	mov    %rsi,0x97e3(%rip)        # 40c718 <main_tls+0x18>
  402f35:	48 89 35 ec 97 00 00 	mov    %rsi,0x97ec(%rip)        # 40c728 <main_tls+0x28>
  402f3c:	48 83 f8 07          	cmp    $0x7,%rax
  402f40:	77 15                	ja     402f57 <__init_tls+0xf7>
  402f42:	48 c7 05 d3 97 00 00 	movq   $0x8,0x97d3(%rip)        # 40c720 <main_tls+0x20>
  402f49:	08 00 00 00 
  402f4d:	ba e7 00 00 00       	mov    $0xe7,%edx
  402f52:	b8 08 00 00 00       	mov    $0x8,%eax
  402f57:	48 01 d6             	add    %rdx,%rsi
  402f5a:	48 89 05 1f 93 00 00 	mov    %rax,0x931f(%rip)        # 40c280 <__libc+0x20>
  402f61:	48 8d 3d d8 97 00 00 	lea    0x97d8(%rip),%rdi        # 40c740 <builtin_tls>
  402f68:	48 83 e6 f8          	and    $0xfffffffffffffff8,%rsi
  402f6c:	48 89 35 05 93 00 00 	mov    %rsi,0x9305(%rip)        # 40c278 <__libc+0x18>
  402f73:	48 81 fe 50 01 00 00 	cmp    $0x150,%rsi
  402f7a:	76 21                	jbe    402f9d <__init_tls+0x13d>
  402f7c:	41 ba 22 00 00 00    	mov    $0x22,%r10d
  402f82:	45 31 c9             	xor    %r9d,%r9d
  402f85:	b8 09 00 00 00       	mov    $0x9,%eax
  402f8a:	31 ff                	xor    %edi,%edi
  402f8c:	49 c7 c0 ff ff ff ff 	mov    $0xffffffffffffffff,%r8
  402f93:	ba 03 00 00 00       	mov    $0x3,%edx
  402f98:	0f 05                	syscall 
  402f9a:	48 89 c7             	mov    %rax,%rdi
  402f9d:	e8 2e fe ff ff       	call   402dd0 <__copy_tls>
  402fa2:	48 89 00             	mov    %rax,(%rax)
  402fa5:	48 89 c7             	mov    %rax,%rdi
  402fa8:	48 89 c3             	mov    %rax,%rbx
  402fab:	e8 21 1a 00 00       	call   4049d1 <__set_thread_area>
  402fb0:	85 c0                	test   %eax,%eax
  402fb2:	0f 88 a4 00 00 00    	js     40305c <__init_tls+0x1fc>
  402fb8:	75 07                	jne    402fc1 <__init_tls+0x161>
  402fba:	c6 05 9f 92 00 00 01 	movb   $0x1,0x929f(%rip)        # 40c260 <__libc>
  402fc1:	c7 43 38 02 00 00 00 	movl   $0x2,0x38(%rbx)
  402fc8:	b8 da 00 00 00       	mov    $0xda,%eax
  402fcd:	48 8d 3d bc 98 00 00 	lea    0x98bc(%rip),%rdi        # 40c890 <__thread_list_lock>
  402fd4:	0f 05                	syscall 
  402fd6:	89 43 30             	mov    %eax,0x30(%rbx)
  402fd9:	48 8d 05 b8 92 00 00 	lea    0x92b8(%rip),%rax        # 40c298 <__libc+0x38>
  402fe0:	48 89 83 a8 00 00 00 	mov    %rax,0xa8(%rbx)
  402fe7:	48 8d 83 88 00 00 00 	lea    0x88(%rbx),%rax
  402fee:	48 89 83 88 00 00 00 	mov    %rax,0x88(%rbx)
  402ff5:	48 8b 05 3c 92 00 00 	mov    0x923c(%rip),%rax        # 40c238 <__sysinfo>
  402ffc:	48 89 5b 10          	mov    %rbx,0x10(%rbx)
  403000:	48 89 43 20          	mov    %rax,0x20(%rbx)
  403004:	48 89 5b 18          	mov    %rbx,0x18(%rbx)
  403008:	5b                   	pop    %rbx
  403009:	c3                   	ret    
  40300a:	81 fa 51 e5 74 64    	cmp    $0x6474e551,%edx
  403010:	0f 85 8f fe ff ff    	jne    402ea5 <__init_tls+0x45>
  403016:	48 8b 50 28          	mov    0x28(%rax),%rdx
  40301a:	45 89 c2             	mov    %r8d,%r10d
  40301d:	4c 39 d2             	cmp    %r10,%rdx
  403020:	0f 86 7f fe ff ff    	jbe    402ea5 <__init_tls+0x45>
  403026:	41 b8 00 00 80 00    	mov    $0x800000,%r8d
  40302c:	bb 01 00 00 00       	mov    $0x1,%ebx
  403031:	4c 39 c2             	cmp    %r8,%rdx
  403034:	4c 0f 46 c2          	cmovbe %rdx,%r8
  403038:	e9 68 fe ff ff       	jmp    402ea5 <__init_tls+0x45>
  40303d:	0f 1f 00             	nopl   (%rax)
  403040:	48 c7 c2 00 00 00 00 	mov    $0x0,%rdx
  403047:	48 85 d2             	test   %rdx,%rdx
  40304a:	0f 84 55 fe ff ff    	je     402ea5 <__init_tls+0x45>
  403050:	48 89 d6             	mov    %rdx,%rsi
  403053:	48 2b 70 10          	sub    0x10(%rax),%rsi
  403057:	e9 49 fe ff ff       	jmp    402ea5 <__init_tls+0x45>
  40305c:	f4                   	hlt    
  40305d:	5b                   	pop    %rbx
  40305e:	c3                   	ret    
  40305f:	90                   	nop
  403060:	48 8b 15 b1 96 00 00 	mov    0x96b1(%rip),%rdx        # 40c718 <main_tls+0x18>
  403067:	48 8b 35 9a 96 00 00 	mov    0x969a(%rip),%rsi        # 40c708 <main_tls+0x8>
  40306e:	48 8b 05 ab 96 00 00 	mov    0x96ab(%rip),%rax        # 40c720 <main_tls+0x20>
  403075:	e9 9d fe ff ff       	jmp    402f17 <__init_tls+0xb7>
  40307a:	66 0f 1f 44 00 00    	nopw   0x0(%rax,%rax,1)

0000000000403080 <__errno_location>:
  403080:	f3 0f 1e fa          	endbr64 
  403084:	64 48 8b 04 25 00 00 	mov    %fs:0x0,%rax
  40308b:	00 00 
  40308d:	48 83 c0 34          	add    $0x34,%rax
  403091:	c3                   	ret    
  403092:	66 2e 0f 1f 84 00 00 	cs nopw 0x0(%rax,%rax,1)
  403099:	00 00 00 
  40309c:	0f 1f 40 00          	nopl   0x0(%rax)

00000000004030a0 <_Exit>:
  4030a0:	f3 0f 1e fa          	endbr64 
  4030a4:	48 63 ff             	movslq %edi,%rdi
  4030a7:	b8 e7 00 00 00       	mov    $0xe7,%eax
  4030ac:	0f 05                	syscall 
  4030ae:	ba 3c 00 00 00       	mov    $0x3c,%edx
  4030b3:	0f 1f 44 00 00       	nopl   0x0(%rax,%rax,1)
  4030b8:	48 89 d0             	mov    %rdx,%rax
  4030bb:	0f 05                	syscall 
  4030bd:	eb f9                	jmp    4030b8 <_Exit+0x18>
  4030bf:	90                   	nop

00000000004030c0 <setitimer>:
  4030c0:	f3 0f 1e fa          	endbr64 
  4030c4:	48 83 ec 08          	sub    $0x8,%rsp
  4030c8:	48 63 ff             	movslq %edi,%rdi
  4030cb:	b8 26 00 00 00       	mov    $0x26,%eax
  4030d0:	0f 05                	syscall 
  4030d2:	48 89 c7             	mov    %rax,%rdi
  4030d5:	e8 b6 f4 ff ff       	call   402590 <__syscall_ret>
  4030da:	48 83 c4 08          	add    $0x8,%rsp
  4030de:	c3                   	ret    
  4030df:	90                   	nop

00000000004030e0 <__get_handler_set>:
  4030e0:	f3 0f 1e fa          	endbr64 
  4030e4:	ba 08 00 00 00       	mov    $0x8,%edx
  4030e9:	48 8d 35 a8 97 00 00 	lea    0x97a8(%rip),%rsi        # 40c898 <handler_set>
  4030f0:	e9 c1 f9 ff ff       	jmp    402ab6 <memcpy>
  4030f5:	66 2e 0f 1f 84 00 00 	cs nopw 0x0(%rax,%rax,1)
  4030fc:	00 00 00 
  4030ff:	90                   	nop

0000000000403100 <__libc_sigaction>:
  403100:	f3 0f 1e fa          	endbr64 
  403104:	55                   	push   %rbp
  403105:	48 89 d5             	mov    %rdx,%rbp
  403108:	53                   	push   %rbx
  403109:	89 fb                	mov    %edi,%ebx
  40310b:	48 83 ec 58          	sub    $0x58,%rsp
  40310f:	64 48 8b 04 25 28 00 	mov    %fs:0x28,%rax
  403116:	00 00 
  403118:	48 89 44 24 48       	mov    %rax,0x48(%rsp)
  40311d:	31 c0                	xor    %eax,%eax
  40311f:	48 85 f6             	test   %rsi,%rsi
  403122:	0f 84 20 01 00 00    	je     403248 <__libc_sigaction+0x148>
  403128:	48 8b 16             	mov    (%rsi),%rdx
  40312b:	49 89 f0             	mov    %rsi,%r8
  40312e:	48 83 fa 01          	cmp    $0x1,%rdx
  403132:	76 67                	jbe    40319b <__libc_sigaction+0x9b>
  403134:	8d 4f ff             	lea    -0x1(%rdi),%ecx
  403137:	bf 01 00 00 00       	mov    $0x1,%edi
  40313c:	48 8d 05 55 97 00 00 	lea    0x9755(%rip),%rax        # 40c898 <handler_set>
  403143:	48 89 fa             	mov    %rdi,%rdx
  403146:	48 d3 e2             	shl    %cl,%rdx
  403149:	48 63 c9             	movslq %ecx,%rcx
  40314c:	48 c1 e9 06          	shr    $0x6,%rcx
  403150:	48 8d 04 c8          	lea    (%rax,%rcx,8),%rax
  403154:	f0 48 09 10          	lock or %rdx,(%rax)
  403158:	80 3d 02 91 00 00 00 	cmpb   $0x0,0x9102(%rip)        # 40c261 <__libc+0x1>
  40315f:	75 0e                	jne    40316f <__libc_sigaction+0x6f>
  403161:	8b 05 39 97 00 00    	mov    0x9739(%rip),%eax        # 40c8a0 <unmask_done>
  403167:	85 c0                	test   %eax,%eax
  403169:	0f 84 f1 00 00 00    	je     403260 <__libc_sigaction+0x160>
  40316f:	41 8b 80 88 00 00 00 	mov    0x88(%r8),%eax
  403176:	a9 00 00 00 10       	test   $0x10000000,%eax
  40317b:	74 0b                	je     403188 <__libc_sigaction+0x88>
  40317d:	49 8b 10             	mov    (%r8),%rdx
  403180:	eb 20                	jmp    4031a2 <__libc_sigaction+0xa2>
  403182:	66 0f 1f 44 00 00    	nopw   0x0(%rax,%rax,1)
  403188:	b8 01 00 00 00       	mov    $0x1,%eax
  40318d:	89 05 01 97 00 00    	mov    %eax,0x9701(%rip)        # 40c894 <__eintr_valid_flag>
  403193:	f0 83 0c 24 00       	lock orl $0x0,(%rsp)
  403198:	49 8b 10             	mov    (%r8),%rdx
  40319b:	41 8b 80 88 00 00 00 	mov    0x88(%r8),%eax
  4031a2:	0d 00 00 00 04       	or     $0x4000000,%eax
  4031a7:	48 89 14 24          	mov    %rdx,(%rsp)
  4031ab:	49 8d 70 08          	lea    0x8(%r8),%rsi
  4031af:	ba 08 00 00 00       	mov    $0x8,%edx
  4031b4:	48 98                	cltq   
  4031b6:	48 8d 7c 24 18       	lea    0x18(%rsp),%rdi
  4031bb:	48 89 44 24 08       	mov    %rax,0x8(%rsp)
  4031c0:	48 8d 05 d2 01 00 00 	lea    0x1d2(%rip),%rax        # 403399 <__restore_rt>
  4031c7:	48 89 44 24 10       	mov    %rax,0x10(%rsp)
  4031cc:	e8 e5 f8 ff ff       	call   402ab6 <memcpy>
  4031d1:	31 c0                	xor    %eax,%eax
  4031d3:	48 8d 54 24 20       	lea    0x20(%rsp),%rdx
  4031d8:	48 85 ed             	test   %rbp,%rbp
  4031db:	48 0f 44 d0          	cmove  %rax,%rdx
  4031df:	48 89 e6             	mov    %rsp,%rsi
  4031e2:	48 63 fb             	movslq %ebx,%rdi
  4031e5:	41 ba 08 00 00 00    	mov    $0x8,%r10d
  4031eb:	b8 0d 00 00 00       	mov    $0xd,%eax
  4031f0:	0f 05                	syscall 
  4031f2:	48 89 c3             	mov    %rax,%rbx
  4031f5:	48 85 ed             	test   %rbp,%rbp
  4031f8:	74 2b                	je     403225 <__libc_sigaction+0x125>
  4031fa:	85 c0                	test   %eax,%eax
  4031fc:	75 27                	jne    403225 <__libc_sigaction+0x125>
  4031fe:	48 8b 44 24 20       	mov    0x20(%rsp),%rax
  403203:	48 8d 74 24 38       	lea    0x38(%rsp),%rsi
  403208:	48 8d 7d 08          	lea    0x8(%rbp),%rdi
  40320c:	ba 08 00 00 00       	mov    $0x8,%edx
  403211:	48 89 45 00          	mov    %rax,0x0(%rbp)
  403215:	48 8b 44 24 28       	mov    0x28(%rsp),%rax
  40321a:	89 85 88 00 00 00    	mov    %eax,0x88(%rbp)
  403220:	e8 91 f8 ff ff       	call   402ab6 <memcpy>
  403225:	48 63 fb             	movslq %ebx,%rdi
  403228:	e8 63 f3 ff ff       	call   402590 <__syscall_ret>
  40322d:	48 8b 54 24 48       	mov    0x48(%rsp),%rdx
  403232:	64 48 2b 14 25 28 00 	sub    %fs:0x28,%rdx
  403239:	00 00 
  40323b:	75 64                	jne    4032a1 <__libc_sigaction+0x1a1>
  40323d:	48 83 c4 58          	add    $0x58,%rsp
  403241:	5b                   	pop    %rbx
  403242:	5d                   	pop    %rbp
  403243:	c3                   	ret    
  403244:	0f 1f 40 00          	nopl   0x0(%rax)
  403248:	48 85 d2             	test   %rdx,%rdx
  40324b:	74 4b                	je     403298 <__libc_sigaction+0x198>
  40324d:	48 8d 54 24 20       	lea    0x20(%rsp),%rdx
  403252:	31 f6                	xor    %esi,%esi
  403254:	eb 8c                	jmp    4031e2 <__libc_sigaction+0xe2>
  403256:	66 2e 0f 1f 84 00 00 	cs nopw 0x0(%rax,%rax,1)
  40325d:	00 00 00 
  403260:	48 8d 74 24 20       	lea    0x20(%rsp),%rsi
  403265:	41 ba 08 00 00 00    	mov    $0x8,%r10d
  40326b:	31 d2                	xor    %edx,%edx
  40326d:	48 b8 00 00 00 00 03 	movabs $0x300000000,%rax
  403274:	00 00 00 
  403277:	48 89 44 24 20       	mov    %rax,0x20(%rsp)
  40327c:	b8 0e 00 00 00       	mov    $0xe,%eax
  403281:	0f 05                	syscall 
  403283:	c7 05 13 96 00 00 01 	movl   $0x1,0x9613(%rip)        # 40c8a0 <unmask_done>
  40328a:	00 00 00 
  40328d:	e9 dd fe ff ff       	jmp    40316f <__libc_sigaction+0x6f>
  403292:	66 0f 1f 44 00 00    	nopw   0x0(%rax,%rax,1)
  403298:	31 d2                	xor    %edx,%edx
  40329a:	31 f6                	xor    %esi,%esi
  40329c:	e9 41 ff ff ff       	jmp    4031e2 <__libc_sigaction+0xe2>
  4032a1:	e8 ba f1 ff ff       	call   402460 <__stack_chk_fail>
  4032a6:	66 2e 0f 1f 84 00 00 	cs nopw 0x0(%rax,%rax,1)
  4032ad:	00 00 00 

00000000004032b0 <__sigaction>:
  4032b0:	f3 0f 1e fa          	endbr64 
  4032b4:	41 55                	push   %r13
  4032b6:	41 54                	push   %r12
  4032b8:	55                   	push   %rbp
  4032b9:	48 83 ec 20          	sub    $0x20,%rsp
  4032bd:	64 48 8b 04 25 28 00 	mov    %fs:0x28,%rax
  4032c4:	00 00 
  4032c6:	48 89 44 24 18       	mov    %rax,0x18(%rsp)
  4032cb:	31 c0                	xor    %eax,%eax
  4032cd:	8d 47 e0             	lea    -0x20(%rdi),%eax
  4032d0:	83 f8 02             	cmp    $0x2,%eax
  4032d3:	0f 86 a7 00 00 00    	jbe    403380 <__sigaction+0xd0>
  4032d9:	8d 47 ff             	lea    -0x1(%rdi),%eax
  4032dc:	83 f8 3f             	cmp    $0x3f,%eax
  4032df:	0f 87 9b 00 00 00    	ja     403380 <__sigaction+0xd0>
  4032e5:	83 ff 06             	cmp    $0x6,%edi
  4032e8:	74 26                	je     403310 <__sigaction+0x60>
  4032ea:	48 8b 44 24 18       	mov    0x18(%rsp),%rax
  4032ef:	64 48 2b 04 25 28 00 	sub    %fs:0x28,%rax
  4032f6:	00 00 
  4032f8:	0f 85 95 00 00 00    	jne    403393 <__sigaction+0xe3>
  4032fe:	48 83 c4 20          	add    $0x20,%rsp
  403302:	5d                   	pop    %rbp
  403303:	41 5c                	pop    %r12
  403305:	41 5d                	pop    %r13
  403307:	e9 f4 fd ff ff       	jmp    403100 <__libc_sigaction>
  40330c:	0f 1f 40 00          	nopl   0x0(%rax)
  403310:	48 8d 6c 24 10       	lea    0x10(%rsp),%rbp
  403315:	4c 8d 2d ac 99 00 00 	lea    0x99ac(%rip),%r13        # 40ccc8 <__abort_lock>
  40331c:	48 89 54 24 08       	mov    %rdx,0x8(%rsp)
  403321:	48 89 ef             	mov    %rbp,%rdi
  403324:	48 89 34 24          	mov    %rsi,(%rsp)
  403328:	e8 f3 56 00 00       	call   408a20 <__block_all_sigs>
  40332d:	4c 89 ef             	mov    %r13,%rdi
  403330:	e8 bb f7 ff ff       	call   402af0 <__lock>
  403335:	48 8b 54 24 08       	mov    0x8(%rsp),%rdx
  40333a:	48 8b 34 24          	mov    (%rsp),%rsi
  40333e:	bf 06 00 00 00       	mov    $0x6,%edi
  403343:	e8 b8 fd ff ff       	call   403100 <__libc_sigaction>
  403348:	4c 89 ef             	mov    %r13,%rdi
  40334b:	41 89 c4             	mov    %eax,%r12d
  40334e:	e8 8d f8 ff ff       	call   402be0 <__unlock>
  403353:	48 89 ef             	mov    %rbp,%rdi
  403356:	e8 05 57 00 00       	call   408a60 <__restore_sigs>
  40335b:	48 8b 44 24 18       	mov    0x18(%rsp),%rax
  403360:	64 48 2b 04 25 28 00 	sub    %fs:0x28,%rax
  403367:	00 00 
  403369:	75 28                	jne    403393 <__sigaction+0xe3>
  40336b:	48 83 c4 20          	add    $0x20,%rsp
  40336f:	44 89 e0             	mov    %r12d,%eax
  403372:	5d                   	pop    %rbp
  403373:	41 5c                	pop    %r12
  403375:	41 5d                	pop    %r13
  403377:	c3                   	ret    
  403378:	0f 1f 84 00 00 00 00 	nopl   0x0(%rax,%rax,1)
  40337f:	00 
  403380:	e8 fb fc ff ff       	call   403080 <__errno_location>
  403385:	41 bc ff ff ff ff    	mov    $0xffffffff,%r12d
  40338b:	c7 00 16 00 00 00    	movl   $0x16,(%rax)
  403391:	eb c8                	jmp    40335b <__sigaction+0xab>
  403393:	e8 c8 f0 ff ff       	call   402460 <__stack_chk_fail>
  403398:	90                   	nop

0000000000403399 <__restore_rt>:
  403399:	48 c7 c0 0f 00 00 00 	mov    $0xf,%rax
  4033a0:	0f 05                	syscall 
  4033a2:	66 2e 0f 1f 84 00 00 	cs nopw 0x0(%rax,%rax,1)
  4033a9:	00 00 00 
  4033ac:	0f 1f 40 00          	nopl   0x0(%rax)

00000000004033b0 <__lockfile>:
  4033b0:	f3 0f 1e fa          	endbr64 
  4033b4:	8b 87 8c 00 00 00    	mov    0x8c(%rdi),%eax
  4033ba:	45 31 c0             	xor    %r8d,%r8d
  4033bd:	64 48 8b 0c 25 00 00 	mov    %fs:0x0,%rcx
  4033c4:	00 00 
  4033c6:	44 8b 49 30          	mov    0x30(%rcx),%r9d
  4033ca:	25 ff ff ff bf       	and    $0xbfffffff,%eax
  4033cf:	44 39 c8             	cmp    %r9d,%eax
  4033d2:	0f 84 ae 00 00 00    	je     403486 <__lockfile+0xd6>
  4033d8:	48 89 fa             	mov    %rdi,%rdx
  4033db:	44 89 c0             	mov    %r8d,%eax
  4033de:	48 8d bf 8c 00 00 00 	lea    0x8c(%rdi),%rdi
  4033e5:	f0 44 0f b1 8a 8c 00 	lock cmpxchg %r9d,0x8c(%rdx)
  4033ec:	00 00 
  4033ee:	85 c0                	test   %eax,%eax
  4033f0:	0f 84 8a 00 00 00    	je     403480 <__lockfile+0xd0>
  4033f6:	41 81 c9 00 00 00 40 	or     $0x40000000,%r9d
  4033fd:	44 89 c0             	mov    %r8d,%eax
  403400:	f0 44 0f b1 8a 8c 00 	lock cmpxchg %r9d,0x8c(%rdx)
  403407:	00 00 
  403409:	89 c1                	mov    %eax,%ecx
  40340b:	85 c0                	test   %eax,%eax
  40340d:	74 71                	je     403480 <__lockfile+0xd0>
  40340f:	55                   	push   %rbp
  403410:	45 31 c0             	xor    %r8d,%r8d
  403413:	bd 80 00 00 00       	mov    $0x80,%ebp
  403418:	53                   	push   %rbx
  403419:	bb ca 00 00 00       	mov    $0xca,%ebx
  40341e:	eb 18                	jmp    403438 <__lockfile+0x88>
  403420:	89 c8                	mov    %ecx,%eax
  403422:	f0 0f b1 17          	lock cmpxchg %edx,(%rdi)
  403426:	39 c8                	cmp    %ecx,%eax
  403428:	74 1e                	je     403448 <__lockfile+0x98>
  40342a:	44 89 c0             	mov    %r8d,%eax
  40342d:	f0 44 0f b1 0f       	lock cmpxchg %r9d,(%rdi)
  403432:	89 c1                	mov    %eax,%ecx
  403434:	85 c0                	test   %eax,%eax
  403436:	74 38                	je     403470 <__lockfile+0xc0>
  403438:	89 ca                	mov    %ecx,%edx
  40343a:	81 ca 00 00 00 40    	or     $0x40000000,%edx
  403440:	f7 c1 00 00 00 40    	test   $0x40000000,%ecx
  403446:	74 d8                	je     403420 <__lockfile+0x70>
  403448:	48 63 d2             	movslq %edx,%rdx
  40344b:	45 31 d2             	xor    %r10d,%r10d
  40344e:	48 89 d8             	mov    %rbx,%rax
  403451:	48 89 ee             	mov    %rbp,%rsi
  403454:	0f 05                	syscall 
  403456:	48 83 f8 da          	cmp    $0xffffffffffffffda,%rax
  40345a:	75 ce                	jne    40342a <__lockfile+0x7a>
  40345c:	45 31 d2             	xor    %r10d,%r10d
  40345f:	31 f6                	xor    %esi,%esi
  403461:	48 89 d8             	mov    %rbx,%rax
  403464:	0f 05                	syscall 
  403466:	eb c2                	jmp    40342a <__lockfile+0x7a>
  403468:	0f 1f 84 00 00 00 00 	nopl   0x0(%rax,%rax,1)
  40346f:	00 
  403470:	b8 01 00 00 00       	mov    $0x1,%eax
  403475:	5b                   	pop    %rbx
  403476:	5d                   	pop    %rbp
  403477:	c3                   	ret    
  403478:	0f 1f 84 00 00 00 00 	nopl   0x0(%rax,%rax,1)
  40347f:	00 
  403480:	41 b8 01 00 00 00    	mov    $0x1,%r8d
  403486:	44 89 c0             	mov    %r8d,%eax
  403489:	c3                   	ret    
  40348a:	66 0f 1f 44 00 00    	nopw   0x0(%rax,%rax,1)

0000000000403490 <__unlockfile>:
  403490:	f3 0f 1e fa          	endbr64 
  403494:	48 89 fa             	mov    %rdi,%rdx
  403497:	31 c0                	xor    %eax,%eax
  403499:	48 8d bf 8c 00 00 00 	lea    0x8c(%rdi),%rdi
  4034a0:	87 82 8c 00 00 00    	xchg   %eax,0x8c(%rdx)
  4034a6:	a9 00 00 00 40       	test   $0x40000000,%eax
  4034ab:	74 1b                	je     4034c8 <__unlockfile+0x38>
  4034ad:	41 b8 ca 00 00 00    	mov    $0xca,%r8d
  4034b3:	ba 01 00 00 00       	mov    $0x1,%edx
  4034b8:	be 81 00 00 00       	mov    $0x81,%esi
  4034bd:	4c 89 c0             	mov    %r8,%rax
  4034c0:	0f 05                	syscall 
  4034c2:	48 83 f8 da          	cmp    $0xffffffffffffffda,%rax
  4034c6:	74 08                	je     4034d0 <__unlockfile+0x40>
  4034c8:	c3                   	ret    
  4034c9:	0f 1f 80 00 00 00 00 	nopl   0x0(%rax)
  4034d0:	4c 89 c0             	mov    %r8,%rax
  4034d3:	48 89 d6             	mov    %rdx,%rsi
  4034d6:	0f 05                	syscall 
  4034d8:	c3                   	ret    
  4034d9:	0f 1f 80 00 00 00 00 	nopl   0x0(%rax)

00000000004034e0 <__overflow>:
  4034e0:	f3 0f 1e fa          	endbr64 
  4034e4:	53                   	push   %rbx
  4034e5:	48 89 fb             	mov    %rdi,%rbx
  4034e8:	48 83 ec 10          	sub    $0x10,%rsp
  4034ec:	64 48 8b 04 25 28 00 	mov    %fs:0x28,%rax
  4034f3:	00 00 
  4034f5:	48 89 44 24 08       	mov    %rax,0x8(%rsp)
  4034fa:	31 c0                	xor    %eax,%eax
  4034fc:	48 8b 47 20          	mov    0x20(%rdi),%rax
  403500:	40 88 74 24 07       	mov    %sil,0x7(%rsp)
  403505:	48 85 c0             	test   %rax,%rax
  403508:	74 5e                	je     403568 <__overflow+0x88>
  40350a:	48 8b 53 28          	mov    0x28(%rbx),%rdx
  40350e:	48 39 c2             	cmp    %rax,%rdx
  403511:	74 0d                	je     403520 <__overflow+0x40>
  403513:	0f b6 44 24 07       	movzbl 0x7(%rsp),%eax
  403518:	3b 83 90 00 00 00    	cmp    0x90(%rbx),%eax
  40351e:	75 38                	jne    403558 <__overflow+0x78>
  403520:	48 8d 74 24 07       	lea    0x7(%rsp),%rsi
  403525:	ba 01 00 00 00       	mov    $0x1,%edx
  40352a:	48 89 df             	mov    %rbx,%rdi
  40352d:	ff 53 48             	call   *0x48(%rbx)
  403530:	48 83 f8 01          	cmp    $0x1,%rax
  403534:	75 4a                	jne    403580 <__overflow+0xa0>
  403536:	0f b6 44 24 07       	movzbl 0x7(%rsp),%eax
  40353b:	48 8b 54 24 08       	mov    0x8(%rsp),%rdx
  403540:	64 48 2b 14 25 28 00 	sub    %fs:0x28,%rdx
  403547:	00 00 
  403549:	75 3c                	jne    403587 <__overflow+0xa7>
  40354b:	48 83 c4 10          	add    $0x10,%rsp
  40354f:	5b                   	pop    %rbx
  403550:	c3                   	ret    
  403551:	0f 1f 80 00 00 00 00 	nopl   0x0(%rax)
  403558:	48 8d 72 01          	lea    0x1(%rdx),%rsi
  40355c:	48 89 73 28          	mov    %rsi,0x28(%rbx)
  403560:	88 02                	mov    %al,(%rdx)
  403562:	eb d7                	jmp    40353b <__overflow+0x5b>
  403564:	0f 1f 40 00          	nopl   0x0(%rax)
  403568:	e8 03 01 00 00       	call   403670 <__towrite>
  40356d:	85 c0                	test   %eax,%eax
  40356f:	75 0f                	jne    403580 <__overflow+0xa0>
  403571:	48 8b 43 20          	mov    0x20(%rbx),%rax
  403575:	eb 93                	jmp    40350a <__overflow+0x2a>
  403577:	66 0f 1f 84 00 00 00 	nopw   0x0(%rax,%rax,1)
  40357e:	00 00 
  403580:	b8 ff ff ff ff       	mov    $0xffffffff,%eax
  403585:	eb b4                	jmp    40353b <__overflow+0x5b>
  403587:	e8 d4 ee ff ff       	call   402460 <__stack_chk_fail>
  40358c:	0f 1f 40 00          	nopl   0x0(%rax)

0000000000403590 <dummy>:
  403590:	f3 0f 1e fa          	endbr64 
  403594:	89 f8                	mov    %edi,%eax
  403596:	c3                   	ret    
  403597:	66 0f 1f 84 00 00 00 	nopw   0x0(%rax,%rax,1)
  40359e:	00 00 

00000000004035a0 <__stdio_close>:
  4035a0:	f3 0f 1e fa          	endbr64 
  4035a4:	48 83 ec 08          	sub    $0x8,%rsp
  4035a8:	8b 7f 78             	mov    0x78(%rdi),%edi
  4035ab:	e8 20 f7 ff ff       	call   402cd0 <__aio_close>
  4035b0:	48 63 f8             	movslq %eax,%rdi
  4035b3:	b8 03 00 00 00       	mov    $0x3,%eax
  4035b8:	0f 05                	syscall 
  4035ba:	48 89 c7             	mov    %rax,%rdi
  4035bd:	e8 ce ef ff ff       	call   402590 <__syscall_ret>
  4035c2:	48 83 c4 08          	add    $0x8,%rsp
  4035c6:	c3                   	ret    
  4035c7:	66 0f 1f 84 00 00 00 	nopw   0x0(%rax,%rax,1)
  4035ce:	00 00 

00000000004035d0 <__stdio_seek>:
  4035d0:	f3 0f 1e fa          	endbr64 
  4035d4:	8b 7f 78             	mov    0x78(%rdi),%edi
  4035d7:	e9 14 14 00 00       	jmp    4049f0 <__lseek>
  4035dc:	0f 1f 40 00          	nopl   0x0(%rax)

00000000004035e0 <__stdout_write>:
  4035e0:	f3 0f 1e fa          	endbr64 
  4035e4:	48 83 ec 18          	sub    $0x18,%rsp
  4035e8:	49 89 f8             	mov    %rdi,%r8
  4035eb:	49 89 f1             	mov    %rsi,%r9
  4035ee:	49 89 d2             	mov    %rdx,%r10
  4035f1:	64 48 8b 04 25 28 00 	mov    %fs:0x28,%rax
  4035f8:	00 00 
  4035fa:	48 89 44 24 08       	mov    %rax,0x8(%rsp)
  4035ff:	48 8d 05 2a 56 00 00 	lea    0x562a(%rip),%rax        # 408c30 <__stdio_write>
  403606:	48 89 47 48          	mov    %rax,0x48(%rdi)
  40360a:	f6 07 40             	testb  $0x40,(%rdi)
  40360d:	75 18                	jne    403627 <__stdout_write+0x47>
  40360f:	48 63 7f 78          	movslq 0x78(%rdi),%rdi
  403613:	48 89 e2             	mov    %rsp,%rdx
  403616:	b8 10 00 00 00       	mov    $0x10,%eax
  40361b:	be 13 54 00 00       	mov    $0x5413,%esi
  403620:	0f 05                	syscall 
  403622:	48 85 c0             	test   %rax,%rax
  403625:	75 29                	jne    403650 <__stdout_write+0x70>
  403627:	4c 89 d2             	mov    %r10,%rdx
  40362a:	4c 89 ce             	mov    %r9,%rsi
  40362d:	4c 89 c7             	mov    %r8,%rdi
  403630:	e8 fb 55 00 00       	call   408c30 <__stdio_write>
  403635:	48 8b 54 24 08       	mov    0x8(%rsp),%rdx
  40363a:	64 48 2b 14 25 28 00 	sub    %fs:0x28,%rdx
  403641:	00 00 
  403643:	75 18                	jne    40365d <__stdout_write+0x7d>
  403645:	48 83 c4 18          	add    $0x18,%rsp
  403649:	c3                   	ret    
  40364a:	66 0f 1f 44 00 00    	nopw   0x0(%rax,%rax,1)
  403650:	41 c7 80 90 00 00 00 	movl   $0xffffffff,0x90(%r8)
  403657:	ff ff ff ff 
  40365b:	eb ca                	jmp    403627 <__stdout_write+0x47>
  40365d:	e8 fe ed ff ff       	call   402460 <__stack_chk_fail>
  403662:	66 2e 0f 1f 84 00 00 	cs nopw 0x0(%rax,%rax,1)
  403669:	00 00 00 
  40366c:	0f 1f 40 00          	nopl   0x0(%rax)

0000000000403670 <__towrite>:
  403670:	f3 0f 1e fa          	endbr64 
  403674:	8b 97 88 00 00 00    	mov    0x88(%rdi),%edx
  40367a:	8d 42 ff             	lea    -0x1(%rdx),%eax
  40367d:	09 d0                	or     %edx,%eax
  40367f:	89 87 88 00 00 00    	mov    %eax,0x88(%rdi)
  403685:	8b 07                	mov    (%rdi),%eax
  403687:	a8 08                	test   $0x8,%al
  403689:	75 2d                	jne    4036b8 <__towrite+0x48>
  40368b:	48 8b 47 58          	mov    0x58(%rdi),%rax
  40368f:	48 c7 47 10 00 00 00 	movq   $0x0,0x10(%rdi)
  403696:	00 
  403697:	48 c7 47 08 00 00 00 	movq   $0x0,0x8(%rdi)
  40369e:	00 
  40369f:	48 89 47 38          	mov    %rax,0x38(%rdi)
  4036a3:	48 89 47 28          	mov    %rax,0x28(%rdi)
  4036a7:	48 03 47 60          	add    0x60(%rdi),%rax
  4036ab:	48 89 47 20          	mov    %rax,0x20(%rdi)
  4036af:	31 c0                	xor    %eax,%eax
  4036b1:	c3                   	ret    
  4036b2:	66 0f 1f 44 00 00    	nopw   0x0(%rax,%rax,1)
  4036b8:	83 c8 20             	or     $0x20,%eax
  4036bb:	89 07                	mov    %eax,(%rdi)
  4036bd:	b8 ff ff ff ff       	mov    $0xffffffff,%eax
  4036c2:	c3                   	ret    
  4036c3:	66 2e 0f 1f 84 00 00 	cs nopw 0x0(%rax,%rax,1)
  4036ca:	00 00 00 
  4036cd:	0f 1f 00             	nopl   (%rax)

00000000004036d0 <__towrite_needs_stdio_exit>:
  4036d0:	f3 0f 1e fa          	endbr64 
  4036d4:	e9 17 54 00 00       	jmp    408af0 <__stdio_exit>
  4036d9:	0f 1f 80 00 00 00 00 	nopl   0x0(%rax)

00000000004036e0 <fputs>:
  4036e0:	f3 0f 1e fa          	endbr64 
  4036e4:	41 54                	push   %r12
  4036e6:	49 89 f4             	mov    %rsi,%r12
  4036e9:	55                   	push   %rbp
  4036ea:	48 89 fd             	mov    %rdi,%rbp
  4036ed:	53                   	push   %rbx
  4036ee:	e8 9d 11 00 00       	call   404890 <strlen>
  4036f3:	4c 89 e1             	mov    %r12,%rcx
  4036f6:	48 89 ef             	mov    %rbp,%rdi
  4036f9:	be 01 00 00 00       	mov    $0x1,%esi
  4036fe:	48 89 c2             	mov    %rax,%rdx
  403701:	48 89 c3             	mov    %rax,%rbx
  403704:	e8 f7 00 00 00       	call   403800 <fwrite>
  403709:	48 39 d8             	cmp    %rbx,%rax
  40370c:	5b                   	pop    %rbx
  40370d:	5d                   	pop    %rbp
  40370e:	0f 95 c0             	setne  %al
  403711:	41 5c                	pop    %r12
  403713:	0f b6 c0             	movzbl %al,%eax
  403716:	f7 d8                	neg    %eax
  403718:	c3                   	ret    
  403719:	0f 1f 80 00 00 00 00 	nopl   0x0(%rax)

0000000000403720 <__fwritex>:
  403720:	f3 0f 1e fa          	endbr64 
  403724:	41 56                	push   %r14
  403726:	41 55                	push   %r13
  403728:	49 89 f5             	mov    %rsi,%r13
  40372b:	41 54                	push   %r12
  40372d:	49 89 d4             	mov    %rdx,%r12
  403730:	55                   	push   %rbp
  403731:	48 89 fd             	mov    %rdi,%rbp
  403734:	53                   	push   %rbx
  403735:	48 8b 42 20          	mov    0x20(%rdx),%rax
  403739:	48 85 c0             	test   %rax,%rax
  40373c:	0f 84 96 00 00 00    	je     4037d8 <__fwritex+0xb8>
  403742:	49 8b 7c 24 28       	mov    0x28(%r12),%rdi
  403747:	48 29 f8             	sub    %rdi,%rax
  40374a:	4c 39 e8             	cmp    %r13,%rax
  40374d:	72 49                	jb     403798 <__fwritex+0x78>
  40374f:	41 8b 84 24 90 00 00 	mov    0x90(%r12),%eax
  403756:	00 
  403757:	4c 89 eb             	mov    %r13,%rbx
  40375a:	85 c0                	test   %eax,%eax
  40375c:	79 30                	jns    40378e <__fwritex+0x6e>
  40375e:	4d 89 ee             	mov    %r13,%r14
  403761:	4c 89 f2             	mov    %r14,%rdx
  403764:	48 89 ee             	mov    %rbp,%rsi
  403767:	e8 4a f3 ff ff       	call   402ab6 <memcpy>
  40376c:	4d 01 74 24 28       	add    %r14,0x28(%r12)
  403771:	4c 89 e8             	mov    %r13,%rax
  403774:	5b                   	pop    %rbx
  403775:	5d                   	pop    %rbp
  403776:	41 5c                	pop    %r12
  403778:	41 5d                	pop    %r13
  40377a:	41 5e                	pop    %r14
  40377c:	c3                   	ret    
  40377d:	0f 1f 00             	nopl   (%rax)
  403780:	80 7c 1d ff 0a       	cmpb   $0xa,-0x1(%rbp,%rbx,1)
  403785:	48 8d 43 ff          	lea    -0x1(%rbx),%rax
  403789:	74 25                	je     4037b0 <__fwritex+0x90>
  40378b:	48 89 c3             	mov    %rax,%rbx
  40378e:	48 85 db             	test   %rbx,%rbx
  403791:	75 ed                	jne    403780 <__fwritex+0x60>
  403793:	eb c9                	jmp    40375e <__fwritex+0x3e>
  403795:	0f 1f 00             	nopl   (%rax)
  403798:	5b                   	pop    %rbx
  403799:	49 8b 44 24 48       	mov    0x48(%r12),%rax
  40379e:	4c 89 ea             	mov    %r13,%rdx
  4037a1:	48 89 ee             	mov    %rbp,%rsi
  4037a4:	4c 89 e7             	mov    %r12,%rdi
  4037a7:	5d                   	pop    %rbp
  4037a8:	41 5c                	pop    %r12
  4037aa:	41 5d                	pop    %r13
  4037ac:	41 5e                	pop    %r14
  4037ae:	ff e0                	jmp    *%rax
  4037b0:	48 89 da             	mov    %rbx,%rdx
  4037b3:	48 89 ee             	mov    %rbp,%rsi
  4037b6:	4c 89 e7             	mov    %r12,%rdi
  4037b9:	41 ff 54 24 48       	call   *0x48(%r12)
  4037be:	48 39 c3             	cmp    %rax,%rbx
  4037c1:	77 b1                	ja     403774 <__fwritex+0x54>
  4037c3:	4d 89 ee             	mov    %r13,%r14
  4037c6:	49 8b 7c 24 28       	mov    0x28(%r12),%rdi
  4037cb:	48 01 dd             	add    %rbx,%rbp
  4037ce:	49 29 de             	sub    %rbx,%r14
  4037d1:	eb 8e                	jmp    403761 <__fwritex+0x41>
  4037d3:	0f 1f 44 00 00       	nopl   0x0(%rax,%rax,1)
  4037d8:	48 89 d7             	mov    %rdx,%rdi
  4037db:	e8 90 fe ff ff       	call   403670 <__towrite>
  4037e0:	85 c0                	test   %eax,%eax
  4037e2:	75 0c                	jne    4037f0 <__fwritex+0xd0>
  4037e4:	49 8b 44 24 20       	mov    0x20(%r12),%rax
  4037e9:	e9 54 ff ff ff       	jmp    403742 <__fwritex+0x22>
  4037ee:	66 90                	xchg   %ax,%ax
  4037f0:	31 c0                	xor    %eax,%eax
  4037f2:	eb 80                	jmp    403774 <__fwritex+0x54>
  4037f4:	66 2e 0f 1f 84 00 00 	cs nopw 0x0(%rax,%rax,1)
  4037fb:	00 00 00 
  4037fe:	66 90                	xchg   %ax,%ax

0000000000403800 <fwrite>:
  403800:	f3 0f 1e fa          	endbr64 
  403804:	41 57                	push   %r15
  403806:	31 c0                	xor    %eax,%eax
  403808:	41 56                	push   %r14
  40380a:	49 89 f6             	mov    %rsi,%r14
  40380d:	41 55                	push   %r13
  40380f:	4c 0f af f2          	imul   %rdx,%r14
  403813:	49 89 fd             	mov    %rdi,%r13
  403816:	41 54                	push   %r12
  403818:	49 89 cc             	mov    %rcx,%r12
  40381b:	55                   	push   %rbp
  40381c:	48 89 f5             	mov    %rsi,%rbp
  40381f:	53                   	push   %rbx
  403820:	48 89 d3             	mov    %rdx,%rbx
  403823:	48 83 ec 08          	sub    $0x8,%rsp
  403827:	48 85 f6             	test   %rsi,%rsi
  40382a:	48 0f 44 d8          	cmove  %rax,%rbx
  40382e:	8b 81 8c 00 00 00    	mov    0x8c(%rcx),%eax
  403834:	85 c0                	test   %eax,%eax
  403836:	79 30                	jns    403868 <fwrite+0x68>
  403838:	48 89 ca             	mov    %rcx,%rdx
  40383b:	4c 89 f6             	mov    %r14,%rsi
  40383e:	e8 dd fe ff ff       	call   403720 <__fwritex>
  403843:	49 89 c5             	mov    %rax,%r13
  403846:	48 89 d8             	mov    %rbx,%rax
  403849:	4d 39 ee             	cmp    %r13,%r14
  40384c:	74 08                	je     403856 <fwrite+0x56>
  40384e:	4c 89 e8             	mov    %r13,%rax
  403851:	31 d2                	xor    %edx,%edx
  403853:	48 f7 f5             	div    %rbp
  403856:	48 83 c4 08          	add    $0x8,%rsp
  40385a:	5b                   	pop    %rbx
  40385b:	5d                   	pop    %rbp
  40385c:	41 5c                	pop    %r12
  40385e:	41 5d                	pop    %r13
  403860:	41 5e                	pop    %r14
  403862:	41 5f                	pop    %r15
  403864:	c3                   	ret    
  403865:	0f 1f 00             	nopl   (%rax)
  403868:	48 89 cf             	mov    %rcx,%rdi
  40386b:	e8 40 fb ff ff       	call   4033b0 <__lockfile>
  403870:	4c 89 ef             	mov    %r13,%rdi
  403873:	4c 89 e2             	mov    %r12,%rdx
  403876:	4c 89 f6             	mov    %r14,%rsi
  403879:	41 89 c7             	mov    %eax,%r15d
  40387c:	e8 9f fe ff ff       	call   403720 <__fwritex>
  403881:	49 89 c5             	mov    %rax,%r13
  403884:	45 85 ff             	test   %r15d,%r15d
  403887:	74 bd                	je     403846 <fwrite+0x46>
  403889:	4c 89 e7             	mov    %r12,%rdi
  40388c:	e8 ff fb ff ff       	call   403490 <__unlockfile>
  403891:	eb b3                	jmp    403846 <fwrite+0x46>
  403893:	66 2e 0f 1f 84 00 00 	cs nopw 0x0(%rax,%rax,1)
  40389a:	00 00 00 
  40389d:	0f 1f 00             	nopl   (%rax)

00000000004038a0 <arg_n>:
  4038a0:	48 83 ec 28          	sub    $0x28,%rsp
  4038a4:	64 48 8b 04 25 28 00 	mov    %fs:0x28,%rax
  4038ab:	00 00 
  4038ad:	48 89 44 24 18       	mov    %rax,0x18(%rsp)
  4038b2:	31 c0                	xor    %eax,%eax
  4038b4:	f3 0f 6f 07          	movdqu (%rdi),%xmm0
  4038b8:	0f 11 04 24          	movups %xmm0,(%rsp)
  4038bc:	48 8b 47 10          	mov    0x10(%rdi),%rax
  4038c0:	44 8b 04 24          	mov    (%rsp),%r8d
  4038c4:	48 89 44 24 10       	mov    %rax,0x10(%rsp)
  4038c9:	83 fe 01             	cmp    $0x1,%esi
  4038cc:	76 4c                	jbe    40391a <arg_n+0x7a>
  4038ce:	48 8b 54 24 08       	mov    0x8(%rsp),%rdx
  4038d3:	44 89 c0             	mov    %r8d,%eax
  4038d6:	31 c9                	xor    %ecx,%ecx
  4038d8:	31 ff                	xor    %edi,%edi
  4038da:	eb 14                	jmp    4038f0 <arg_n+0x50>
  4038dc:	0f 1f 40 00          	nopl   0x0(%rax)
  4038e0:	83 ee 01             	sub    $0x1,%esi
  4038e3:	83 c0 08             	add    $0x8,%eax
  4038e6:	bf 01 00 00 00       	mov    $0x1,%edi
  4038eb:	83 fe 01             	cmp    $0x1,%esi
  4038ee:	74 16                	je     403906 <arg_n+0x66>
  4038f0:	83 f8 2f             	cmp    $0x2f,%eax
  4038f3:	76 eb                	jbe    4038e0 <arg_n+0x40>
  4038f5:	83 ee 01             	sub    $0x1,%esi
  4038f8:	48 83 c2 08          	add    $0x8,%rdx
  4038fc:	b9 01 00 00 00       	mov    $0x1,%ecx
  403901:	83 fe 01             	cmp    $0x1,%esi
  403904:	75 ea                	jne    4038f0 <arg_n+0x50>
  403906:	84 c9                	test   %cl,%cl
  403908:	74 05                	je     40390f <arg_n+0x6f>
  40390a:	48 89 54 24 08       	mov    %rdx,0x8(%rsp)
  40390f:	40 84 ff             	test   %dil,%dil
  403912:	74 06                	je     40391a <arg_n+0x7a>
  403914:	89 04 24             	mov    %eax,(%rsp)
  403917:	41 89 c0             	mov    %eax,%r8d
  40391a:	41 83 f8 2f          	cmp    $0x2f,%r8d
  40391e:	77 30                	ja     403950 <arg_n+0xb0>
  403920:	44 89 c0             	mov    %r8d,%eax
  403923:	41 83 c0 08          	add    $0x8,%r8d
  403927:	48 03 44 24 10       	add    0x10(%rsp),%rax
  40392c:	44 89 04 24          	mov    %r8d,(%rsp)
  403930:	48 8b 00             	mov    (%rax),%rax
  403933:	48 8b 54 24 18       	mov    0x18(%rsp),%rdx
  403938:	64 48 2b 14 25 28 00 	sub    %fs:0x28,%rdx
  40393f:	00 00 
  403941:	75 1d                	jne    403960 <arg_n+0xc0>
  403943:	48 83 c4 28          	add    $0x28,%rsp
  403947:	c3                   	ret    
  403948:	0f 1f 84 00 00 00 00 	nopl   0x0(%rax,%rax,1)
  40394f:	00 
  403950:	48 8b 44 24 08       	mov    0x8(%rsp),%rax
  403955:	48 8d 50 08          	lea    0x8(%rax),%rdx
  403959:	48 89 54 24 08       	mov    %rdx,0x8(%rsp)
  40395e:	eb d0                	jmp    403930 <arg_n+0x90>
  403960:	e8 fb ea ff ff       	call   402460 <__stack_chk_fail>
  403965:	66 2e 0f 1f 84 00 00 	cs nopw 0x0(%rax,%rax,1)
  40396c:	00 00 00 
  40396f:	90                   	nop

0000000000403970 <vfscanf>:
  403970:	f3 0f 1e fa          	endbr64 
  403974:	41 57                	push   %r15
  403976:	41 56                	push   %r14
  403978:	45 31 f6             	xor    %r14d,%r14d
  40397b:	41 55                	push   %r13
  40397d:	49 89 fd             	mov    %rdi,%r13
  403980:	41 54                	push   %r12
  403982:	55                   	push   %rbp
  403983:	48 89 f5             	mov    %rsi,%rbp
  403986:	53                   	push   %rbx
  403987:	48 81 ec 78 01 00 00 	sub    $0x178,%rsp
  40398e:	48 89 14 24          	mov    %rdx,(%rsp)
  403992:	64 48 8b 04 25 28 00 	mov    %fs:0x28,%rax
  403999:	00 00 
  40399b:	48 89 84 24 68 01 00 	mov    %rax,0x168(%rsp)
  4039a2:	00 
  4039a3:	8b 87 8c 00 00 00    	mov    0x8c(%rdi),%eax
  4039a9:	85 c0                	test   %eax,%eax
  4039ab:	78 08                	js     4039b5 <vfscanf+0x45>
  4039ad:	e8 fe f9 ff ff       	call   4033b0 <__lockfile>
  4039b2:	41 89 c6             	mov    %eax,%r14d
  4039b5:	49 83 7d 08 00       	cmpq   $0x0,0x8(%r13)
  4039ba:	0f 84 a0 04 00 00    	je     403e60 <vfscanf+0x4f0>
  4039c0:	0f b6 45 00          	movzbl 0x0(%rbp),%eax
  4039c4:	84 c0                	test   %al,%al
  4039c6:	0f 84 84 09 00 00    	je     404350 <vfscanf+0x9e0>
  4039cc:	48 8d 74 24 53       	lea    0x53(%rsp),%rsi
  4039d1:	31 db                	xor    %ebx,%ebx
  4039d3:	45 31 e4             	xor    %r12d,%r12d
  4039d6:	48 89 74 24 08       	mov    %rsi,0x8(%rsp)
  4039db:	0f b6 d0             	movzbl %al,%edx
  4039de:	83 ea 09             	sub    $0x9,%edx
  4039e1:	83 fa 04             	cmp    $0x4,%edx
  4039e4:	0f 86 aa 00 00 00    	jbe    403a94 <vfscanf+0x124>
  4039ea:	3c 20                	cmp    $0x20,%al
  4039ec:	0f 84 a2 00 00 00    	je     403a94 <vfscanf+0x124>
  4039f2:	3c 25                	cmp    $0x25,%al
  4039f4:	75 0d                	jne    403a03 <vfscanf+0x93>
  4039f6:	0f b6 55 01          	movzbl 0x1(%rbp),%edx
  4039fa:	80 fa 25             	cmp    $0x25,%dl
  4039fd:	0f 85 45 01 00 00    	jne    403b48 <vfscanf+0x1d8>
  403a03:	31 f6                	xor    %esi,%esi
  403a05:	4c 89 ef             	mov    %r13,%rdi
  403a08:	e8 a3 2c 00 00       	call   4066b0 <__shlim>
  403a0d:	0f b6 55 00          	movzbl 0x0(%rbp),%edx
  403a11:	80 fa 25             	cmp    $0x25,%dl
  403a14:	0f 84 66 04 00 00    	je     403e80 <vfscanf+0x510>
  403a1a:	49 8b 45 08          	mov    0x8(%r13),%rax
  403a1e:	49 3b 85 b8 00 00 00 	cmp    0xb8(%r13),%rax
  403a25:	0f 84 a5 04 00 00    	je     403ed0 <vfscanf+0x560>
  403a2b:	48 8d 48 01          	lea    0x1(%rax),%rcx
  403a2f:	49 89 4d 08          	mov    %rcx,0x8(%r13)
  403a33:	0f b6 00             	movzbl (%rax),%eax
  403a36:	39 c2                	cmp    %eax,%edx
  403a38:	0f 84 12 04 00 00    	je     403e50 <vfscanf+0x4e0>
  403a3e:	49 83 bd c0 00 00 00 	cmpq   $0x0,0xc0(%r13)
  403a45:	00 
  403a46:	78 05                	js     403a4d <vfscanf+0xdd>
  403a48:	49 83 6d 08 01       	subq   $0x1,0x8(%r13)
  403a4d:	85 c0                	test   %eax,%eax
  403a4f:	0f 88 cb 00 00 00    	js     403b20 <vfscanf+0x1b0>
  403a55:	45 85 f6             	test   %r14d,%r14d
  403a58:	0f 85 da 00 00 00    	jne    403b38 <vfscanf+0x1c8>
  403a5e:	48 8b 84 24 68 01 00 	mov    0x168(%rsp),%rax
  403a65:	00 
  403a66:	64 48 2b 04 25 28 00 	sub    %fs:0x28,%rax
  403a6d:	00 00 
  403a6f:	0f 85 d8 0d 00 00    	jne    40484d <vfscanf+0xedd>
  403a75:	48 81 c4 78 01 00 00 	add    $0x178,%rsp
  403a7c:	44 89 e0             	mov    %r12d,%eax
  403a7f:	5b                   	pop    %rbx
  403a80:	5d                   	pop    %rbp
  403a81:	41 5c                	pop    %r12
  403a83:	41 5d                	pop    %r13
  403a85:	41 5e                	pop    %r14
  403a87:	41 5f                	pop    %r15
  403a89:	c3                   	ret    
  403a8a:	66 0f 1f 44 00 00    	nopw   0x0(%rax,%rax,1)
  403a90:	48 83 c5 01          	add    $0x1,%rbp
  403a94:	0f b6 45 01          	movzbl 0x1(%rbp),%eax
  403a98:	89 c2                	mov    %eax,%edx
  403a9a:	83 e8 09             	sub    $0x9,%eax
  403a9d:	83 f8 04             	cmp    $0x4,%eax
  403aa0:	76 ee                	jbe    403a90 <vfscanf+0x120>
  403aa2:	80 fa 20             	cmp    $0x20,%dl
  403aa5:	74 e9                	je     403a90 <vfscanf+0x120>
  403aa7:	31 f6                	xor    %esi,%esi
  403aa9:	4c 89 ef             	mov    %r13,%rdi
  403aac:	e8 ff 2b 00 00       	call   4066b0 <__shlim>
  403ab1:	49 8b 45 08          	mov    0x8(%r13),%rax
  403ab5:	0f 1f 00             	nopl   (%rax)
  403ab8:	49 39 85 b8 00 00 00 	cmp    %rax,0xb8(%r13)
  403abf:	0f 84 5b 01 00 00    	je     403c20 <vfscanf+0x2b0>
  403ac5:	48 8d 48 01          	lea    0x1(%rax),%rcx
  403ac9:	49 89 4d 08          	mov    %rcx,0x8(%r13)
  403acd:	0f b6 10             	movzbl (%rax),%edx
  403ad0:	48 89 c8             	mov    %rcx,%rax
  403ad3:	8d 4a f7             	lea    -0x9(%rdx),%ecx
  403ad6:	83 f9 04             	cmp    $0x4,%ecx
  403ad9:	76 dd                	jbe    403ab8 <vfscanf+0x148>
  403adb:	83 fa 20             	cmp    $0x20,%edx
  403ade:	74 d8                	je     403ab8 <vfscanf+0x148>
  403ae0:	49 83 bd c0 00 00 00 	cmpq   $0x0,0xc0(%r13)
  403ae7:	00 
  403ae8:	78 08                	js     403af2 <vfscanf+0x182>
  403aea:	48 83 e8 01          	sub    $0x1,%rax
  403aee:	49 89 45 08          	mov    %rax,0x8(%r13)
  403af2:	49 2b 45 58          	sub    0x58(%r13),%rax
  403af6:	49 03 85 c8 00 00 00 	add    0xc8(%r13),%rax
  403afd:	49 89 e8             	mov    %rbp,%r8
  403b00:	48 01 c3             	add    %rax,%rbx
  403b03:	41 0f b6 40 01       	movzbl 0x1(%r8),%eax
  403b08:	49 8d 68 01          	lea    0x1(%r8),%rbp
  403b0c:	84 c0                	test   %al,%al
  403b0e:	0f 85 c7 fe ff ff    	jne    4039db <vfscanf+0x6b>
  403b14:	e9 3c ff ff ff       	jmp    403a55 <vfscanf+0xe5>
  403b19:	0f 1f 80 00 00 00 00 	nopl   0x0(%rax)
  403b20:	45 85 e4             	test   %r12d,%r12d
  403b23:	0f 85 2c ff ff ff    	jne    403a55 <vfscanf+0xe5>
  403b29:	41 bc ff ff ff ff    	mov    $0xffffffff,%r12d
  403b2f:	45 85 f6             	test   %r14d,%r14d
  403b32:	0f 84 26 ff ff ff    	je     403a5e <vfscanf+0xee>
  403b38:	4c 89 ef             	mov    %r13,%rdi
  403b3b:	e8 50 f9 ff ff       	call   403490 <__unlockfile>
  403b40:	e9 19 ff ff ff       	jmp    403a5e <vfscanf+0xee>
  403b45:	0f 1f 00             	nopl   (%rax)
  403b48:	80 fa 2a             	cmp    $0x2a,%dl
  403b4b:	0f 84 e7 00 00 00    	je     403c38 <vfscanf+0x2c8>
  403b51:	0f b6 c2             	movzbl %dl,%eax
  403b54:	8d 70 d0             	lea    -0x30(%rax),%esi
  403b57:	83 fe 09             	cmp    $0x9,%esi
  403b5a:	77 0a                	ja     403b66 <vfscanf+0x1f6>
  403b5c:	80 7d 02 24          	cmpb   $0x24,0x2(%rbp)
  403b60:	0f 84 ca 07 00 00    	je     404330 <vfscanf+0x9c0>
  403b66:	4c 8b 1c 24          	mov    (%rsp),%r11
  403b6a:	41 8b 0b             	mov    (%r11),%ecx
  403b6d:	83 f9 2f             	cmp    $0x2f,%ecx
  403b70:	0f 87 e2 03 00 00    	ja     403f58 <vfscanf+0x5e8>
  403b76:	89 cf                	mov    %ecx,%edi
  403b78:	83 c1 08             	add    $0x8,%ecx
  403b7b:	49 03 7b 10          	add    0x10(%r11),%rdi
  403b7f:	41 89 0b             	mov    %ecx,(%r11)
  403b82:	48 8b 3f             	mov    (%rdi),%rdi
  403b85:	4c 8d 45 01          	lea    0x1(%rbp),%r8
  403b89:	48 89 7c 24 10       	mov    %rdi,0x10(%rsp)
  403b8e:	45 31 ff             	xor    %r15d,%r15d
  403b91:	83 fe 09             	cmp    $0x9,%esi
  403b94:	77 25                	ja     403bbb <vfscanf+0x24b>
  403b96:	66 2e 0f 1f 84 00 00 	cs nopw 0x0(%rax,%rax,1)
  403b9d:	00 00 00 
  403ba0:	43 8d 14 bf          	lea    (%r15,%r15,4),%edx
  403ba4:	49 83 c0 01          	add    $0x1,%r8
  403ba8:	44 8d 7c 50 d0       	lea    -0x30(%rax,%rdx,2),%r15d
  403bad:	41 0f b6 00          	movzbl (%r8),%eax
  403bb1:	8d 48 d0             	lea    -0x30(%rax),%ecx
  403bb4:	89 c2                	mov    %eax,%edx
  403bb6:	83 f9 09             	cmp    $0x9,%ecx
  403bb9:	76 e5                	jbe    403ba0 <vfscanf+0x230>
  403bbb:	c7 44 24 18 00 00 00 	movl   $0x0,0x18(%rsp)
  403bc2:	00 
  403bc3:	80 fa 6d             	cmp    $0x6d,%dl
  403bc6:	75 25                	jne    403bed <vfscanf+0x27d>
  403bc8:	48 c7 44 24 20 00 00 	movq   $0x0,0x20(%rsp)
  403bcf:	00 00 
  403bd1:	31 c0                	xor    %eax,%eax
  403bd3:	49 83 c0 01          	add    $0x1,%r8
  403bd7:	48 83 7c 24 10 00    	cmpq   $0x0,0x10(%rsp)
  403bdd:	48 c7 44 24 28 00 00 	movq   $0x0,0x28(%rsp)
  403be4:	00 00 
  403be6:	0f 95 c0             	setne  %al
  403be9:	89 44 24 18          	mov    %eax,0x18(%rsp)
  403bed:	41 0f b6 00          	movzbl (%r8),%eax
  403bf1:	49 8d 70 01          	lea    0x1(%r8),%rsi
  403bf5:	3c 6a                	cmp    $0x6a,%al
  403bf7:	0f 87 fb 01 00 00    	ja     403df8 <vfscanf+0x488>
  403bfd:	3c 52                	cmp    $0x52,%al
  403bff:	0f 87 ab 01 00 00    	ja     403db0 <vfscanf+0x440>
  403c05:	3c 4c                	cmp    $0x4c,%al
  403c07:	75 4f                	jne    403c58 <vfscanf+0x2e8>
  403c09:	41 0f b6 40 01       	movzbl 0x1(%r8),%eax
  403c0e:	c7 44 24 1c 02 00 00 	movl   $0x2,0x1c(%rsp)
  403c15:	00 
  403c16:	49 89 f0             	mov    %rsi,%r8
  403c19:	e9 d2 02 00 00       	jmp    403ef0 <vfscanf+0x580>
  403c1e:	66 90                	xchg   %ax,%ax
  403c20:	4c 89 ef             	mov    %r13,%rdi
  403c23:	e8 c8 2a 00 00       	call   4066f0 <__shgetc>
  403c28:	89 c2                	mov    %eax,%edx
  403c2a:	49 8b 45 08          	mov    0x8(%r13),%rax
  403c2e:	e9 a0 fe ff ff       	jmp    403ad3 <vfscanf+0x163>
  403c33:	0f 1f 44 00 00       	nopl   0x0(%rax,%rax,1)
  403c38:	0f b6 45 02          	movzbl 0x2(%rbp),%eax
  403c3c:	4c 8d 45 02          	lea    0x2(%rbp),%r8
  403c40:	48 c7 44 24 10 00 00 	movq   $0x0,0x10(%rsp)
  403c47:	00 00 
  403c49:	89 c2                	mov    %eax,%edx
  403c4b:	8d 70 d0             	lea    -0x30(%rax),%esi
  403c4e:	e9 3b ff ff ff       	jmp    403b8e <vfscanf+0x21e>
  403c53:	0f 1f 44 00 00       	nopl   0x0(%rax,%rax,1)
  403c58:	76 3e                	jbe    403c98 <vfscanf+0x328>
  403c5a:	66 0f 1f 44 00 00    	nopw   0x0(%rax,%rax,1)
  403c60:	45 85 e4             	test   %r12d,%r12d
  403c63:	b8 ff ff ff ff       	mov    $0xffffffff,%eax
  403c68:	44 0f 44 e0          	cmove  %eax,%r12d
  403c6c:	eb 02                	jmp    403c70 <vfscanf+0x300>
  403c6e:	dd d8                	fstp   %st(0)
  403c70:	8b 74 24 18          	mov    0x18(%rsp),%esi
  403c74:	85 f6                	test   %esi,%esi
  403c76:	0f 84 d9 fd ff ff    	je     403a55 <vfscanf+0xe5>
  403c7c:	48 8b 7c 24 28       	mov    0x28(%rsp),%rdi
  403c81:	e8 3a 2b 00 00       	call   4067c0 <free>
  403c86:	48 8b 7c 24 20       	mov    0x20(%rsp),%rdi
  403c8b:	e8 30 2b 00 00       	call   4067c0 <free>
  403c90:	e9 c0 fd ff ff       	jmp    403a55 <vfscanf+0xe5>
  403c95:	0f 1f 00             	nopl   (%rax)
  403c98:	3c 43                	cmp    $0x43,%al
  403c9a:	0f 84 d0 02 00 00    	je     403f70 <vfscanf+0x600>
  403ca0:	0f 86 fa 00 00 00    	jbe    403da0 <vfscanf+0x430>
  403ca6:	8d 50 bb             	lea    -0x45(%rax),%edx
  403ca9:	80 fa 02             	cmp    $0x2,%dl
  403cac:	77 b2                	ja     403c60 <vfscanf+0x2f0>
  403cae:	c7 44 24 1c 00 00 00 	movl   $0x0,0x1c(%rsp)
  403cb5:	00 
  403cb6:	0f b6 e8             	movzbl %al,%ebp
  403cb9:	3c 63                	cmp    $0x63,%al
  403cbb:	0f 84 b7 02 00 00    	je     403f78 <vfscanf+0x608>
  403cc1:	83 fd 6e             	cmp    $0x6e,%ebp
  403cc4:	0f 84 ee 05 00 00    	je     4042b8 <vfscanf+0x948>
  403cca:	83 fd 5b             	cmp    $0x5b,%ebp
  403ccd:	74 69                	je     403d38 <vfscanf+0x3c8>
  403ccf:	31 f6                	xor    %esi,%esi
  403cd1:	4c 89 ef             	mov    %r13,%rdi
  403cd4:	4c 89 44 24 30       	mov    %r8,0x30(%rsp)
  403cd9:	e8 d2 29 00 00       	call   4066b0 <__shlim>
  403cde:	49 8b 45 08          	mov    0x8(%r13),%rax
  403ce2:	4c 8b 44 24 30       	mov    0x30(%rsp),%r8
  403ce7:	66 0f 1f 84 00 00 00 	nopw   0x0(%rax,%rax,1)
  403cee:	00 00 
  403cf0:	49 39 85 b8 00 00 00 	cmp    %rax,0xb8(%r13)
  403cf7:	0f 84 3b 02 00 00    	je     403f38 <vfscanf+0x5c8>
  403cfd:	48 8d 48 01          	lea    0x1(%rax),%rcx
  403d01:	49 89 4d 08          	mov    %rcx,0x8(%r13)
  403d05:	0f b6 10             	movzbl (%rax),%edx
  403d08:	48 89 c8             	mov    %rcx,%rax
  403d0b:	8d 4a f7             	lea    -0x9(%rdx),%ecx
  403d0e:	83 f9 04             	cmp    $0x4,%ecx
  403d11:	76 dd                	jbe    403cf0 <vfscanf+0x380>
  403d13:	83 fa 20             	cmp    $0x20,%edx
  403d16:	74 d8                	je     403cf0 <vfscanf+0x380>
  403d18:	49 83 bd c0 00 00 00 	cmpq   $0x0,0xc0(%r13)
  403d1f:	00 
  403d20:	78 08                	js     403d2a <vfscanf+0x3ba>
  403d22:	48 83 e8 01          	sub    $0x1,%rax
  403d26:	49 89 45 08          	mov    %rax,0x8(%r13)
  403d2a:	49 2b 45 58          	sub    0x58(%r13),%rax
  403d2e:	49 03 85 c8 00 00 00 	add    0xc8(%r13),%rax
  403d35:	48 01 c3             	add    %rax,%rbx
  403d38:	49 63 c7             	movslq %r15d,%rax
  403d3b:	4c 89 ef             	mov    %r13,%rdi
  403d3e:	4c 89 44 24 30       	mov    %r8,0x30(%rsp)
  403d43:	48 89 c6             	mov    %rax,%rsi
  403d46:	48 89 44 24 38       	mov    %rax,0x38(%rsp)
  403d4b:	e8 60 29 00 00       	call   4066b0 <__shlim>
  403d50:	49 8b 45 08          	mov    0x8(%r13),%rax
  403d54:	49 3b 85 b8 00 00 00 	cmp    0xb8(%r13),%rax
  403d5b:	4c 8b 44 24 30       	mov    0x30(%rsp),%r8
  403d60:	0f 84 aa 05 00 00    	je     404310 <vfscanf+0x9a0>
  403d66:	48 83 c0 01          	add    $0x1,%rax
  403d6a:	49 89 45 08          	mov    %rax,0x8(%r13)
  403d6e:	49 83 bd c0 00 00 00 	cmpq   $0x0,0xc0(%r13)
  403d75:	00 
  403d76:	78 05                	js     403d7d <vfscanf+0x40d>
  403d78:	49 83 6d 08 01       	subq   $0x1,0x8(%r13)
  403d7d:	8d 45 bf             	lea    -0x41(%rbp),%eax
  403d80:	83 f8 37             	cmp    $0x37,%eax
  403d83:	0f 87 07 02 00 00    	ja     403f90 <vfscanf+0x620>
  403d89:	48 8d 3d 54 65 00 00 	lea    0x6554(%rip),%rdi        # 40a2e4 <cookie+0x10>
  403d90:	48 63 04 87          	movslq (%rdi,%rax,4),%rax
  403d94:	48 01 f8             	add    %rdi,%rax
  403d97:	3e ff e0             	notrack jmp *%rax
  403d9a:	66 0f 1f 44 00 00    	nopw   0x0(%rax,%rax,1)
  403da0:	3c 41                	cmp    $0x41,%al
  403da2:	0f 85 b8 fe ff ff    	jne    403c60 <vfscanf+0x2f0>
  403da8:	e9 01 ff ff ff       	jmp    403cae <vfscanf+0x33e>
  403dad:	0f 1f 00             	nopl   (%rax)
  403db0:	8d 48 ad             	lea    -0x53(%rax),%ecx
  403db3:	ba 01 00 00 00       	mov    $0x1,%edx
  403db8:	48 d3 e2             	shl    %cl,%rdx
  403dbb:	f7 c2 21 41 5f 00    	test   $0x5f4121,%edx
  403dc1:	0f 85 21 01 00 00    	jne    403ee8 <vfscanf+0x578>
  403dc7:	3c 6a                	cmp    $0x6a,%al
  403dc9:	0f 84 ce 04 00 00    	je     40429d <vfscanf+0x92d>
  403dcf:	3c 68                	cmp    $0x68,%al
  403dd1:	0f 85 89 fe ff ff    	jne    403c60 <vfscanf+0x2f0>
  403dd7:	41 0f b6 40 01       	movzbl 0x1(%r8),%eax
  403ddc:	3c 68                	cmp    $0x68,%al
  403dde:	0f 84 9d 05 00 00    	je     404381 <vfscanf+0xa11>
  403de4:	c7 44 24 1c ff ff ff 	movl   $0xffffffff,0x1c(%rsp)
  403deb:	ff 
  403dec:	49 89 f0             	mov    %rsi,%r8
  403def:	e9 fc 00 00 00       	jmp    403ef0 <vfscanf+0x580>
  403df4:	0f 1f 40 00          	nopl   0x0(%rax)
  403df8:	8d 48 94             	lea    -0x6c(%rax),%ecx
  403dfb:	80 f9 0e             	cmp    $0xe,%cl
  403dfe:	0f 87 5c fe ff ff    	ja     403c60 <vfscanf+0x2f0>
  403e04:	ba 01 00 00 00       	mov    $0x1,%edx
  403e09:	48 d3 e2             	shl    %cl,%rdx
  403e0c:	f7 c2 9c 12 00 00    	test   $0x129c,%edx
  403e12:	0f 85 96 fe ff ff    	jne    403cae <vfscanf+0x33e>
  403e18:	f6 c6 41             	test   $0x41,%dh
  403e1b:	0f 85 67 04 00 00    	jne    404288 <vfscanf+0x918>
  403e21:	83 e2 01             	and    $0x1,%edx
  403e24:	0f 84 36 fe ff ff    	je     403c60 <vfscanf+0x2f0>
  403e2a:	41 0f b6 40 01       	movzbl 0x1(%r8),%eax
  403e2f:	3c 6c                	cmp    $0x6c,%al
  403e31:	0f 84 34 05 00 00    	je     40436b <vfscanf+0x9fb>
  403e37:	c7 44 24 1c 01 00 00 	movl   $0x1,0x1c(%rsp)
  403e3e:	00 
  403e3f:	49 89 f0             	mov    %rsi,%r8
  403e42:	e9 a9 00 00 00       	jmp    403ef0 <vfscanf+0x580>
  403e47:	66 0f 1f 84 00 00 00 	nopw   0x0(%rax,%rax,1)
  403e4e:	00 00 
  403e50:	49 8b 45 08          	mov    0x8(%r13),%rax
  403e54:	e9 99 fc ff ff       	jmp    403af2 <vfscanf+0x182>
  403e59:	0f 1f 80 00 00 00 00 	nopl   0x0(%rax)
  403e60:	4c 89 ef             	mov    %r13,%rdi
  403e63:	e8 f8 4e 00 00       	call   408d60 <__toread>
  403e68:	49 83 7d 08 00       	cmpq   $0x0,0x8(%r13)
  403e6d:	0f 85 4d fb ff ff    	jne    4039c0 <vfscanf+0x50>
  403e73:	41 bc ff ff ff ff    	mov    $0xffffffff,%r12d
  403e79:	e9 b1 fc ff ff       	jmp    403b2f <vfscanf+0x1bf>
  403e7e:	66 90                	xchg   %ax,%ax
  403e80:	4c 8d 7d 01          	lea    0x1(%rbp),%r15
  403e84:	0f 1f 40 00          	nopl   0x0(%rax)
  403e88:	49 8b 45 08          	mov    0x8(%r13),%rax
  403e8c:	49 3b 85 b8 00 00 00 	cmp    0xb8(%r13),%rax
  403e93:	74 2b                	je     403ec0 <vfscanf+0x550>
  403e95:	48 8d 50 01          	lea    0x1(%rax),%rdx
  403e99:	49 89 55 08          	mov    %rdx,0x8(%r13)
  403e9d:	0f b6 00             	movzbl (%rax),%eax
  403ea0:	8d 50 f7             	lea    -0x9(%rax),%edx
  403ea3:	83 fa 04             	cmp    $0x4,%edx
  403ea6:	76 e0                	jbe    403e88 <vfscanf+0x518>
  403ea8:	83 f8 20             	cmp    $0x20,%eax
  403eab:	74 db                	je     403e88 <vfscanf+0x518>
  403ead:	0f b6 55 01          	movzbl 0x1(%rbp),%edx
  403eb1:	4c 89 fd             	mov    %r15,%rbp
  403eb4:	e9 7d fb ff ff       	jmp    403a36 <vfscanf+0xc6>
  403eb9:	0f 1f 80 00 00 00 00 	nopl   0x0(%rax)
  403ec0:	4c 89 ef             	mov    %r13,%rdi
  403ec3:	e8 28 28 00 00       	call   4066f0 <__shgetc>
  403ec8:	eb d6                	jmp    403ea0 <vfscanf+0x530>
  403eca:	66 0f 1f 44 00 00    	nopw   0x0(%rax,%rax,1)
  403ed0:	4c 89 ef             	mov    %r13,%rdi
  403ed3:	e8 18 28 00 00       	call   4066f0 <__shgetc>
  403ed8:	0f b6 55 00          	movzbl 0x0(%rbp),%edx
  403edc:	e9 55 fb ff ff       	jmp    403a36 <vfscanf+0xc6>
  403ee1:	0f 1f 80 00 00 00 00 	nopl   0x0(%rax)
  403ee8:	c7 44 24 1c 00 00 00 	movl   $0x0,0x1c(%rsp)
  403eef:	00 
  403ef0:	89 c2                	mov    %eax,%edx
  403ef2:	83 e2 2f             	and    $0x2f,%edx
  403ef5:	80 fa 03             	cmp    $0x3,%dl
  403ef8:	0f 85 b8 fd ff ff    	jne    403cb6 <vfscanf+0x346>
  403efe:	83 c8 20             	or     $0x20,%eax
  403f01:	c7 44 24 1c 01 00 00 	movl   $0x1,0x1c(%rsp)
  403f08:	00 
  403f09:	0f b6 e8             	movzbl %al,%ebp
  403f0c:	3c 63                	cmp    $0x63,%al
  403f0e:	74 68                	je     403f78 <vfscanf+0x608>
  403f10:	83 fd 6e             	cmp    $0x6e,%ebp
  403f13:	0f 85 b1 fd ff ff    	jne    403cca <vfscanf+0x35a>
  403f19:	48 83 7c 24 10 00    	cmpq   $0x0,0x10(%rsp)
  403f1f:	0f 84 de fb ff ff    	je     403b03 <vfscanf+0x193>
  403f25:	48 8b 44 24 10       	mov    0x10(%rsp),%rax
  403f2a:	48 89 18             	mov    %rbx,(%rax)
  403f2d:	e9 d1 fb ff ff       	jmp    403b03 <vfscanf+0x193>
  403f32:	66 0f 1f 44 00 00    	nopw   0x0(%rax,%rax,1)
  403f38:	4c 89 ef             	mov    %r13,%rdi
  403f3b:	4c 89 44 24 30       	mov    %r8,0x30(%rsp)
  403f40:	e8 ab 27 00 00       	call   4066f0 <__shgetc>
  403f45:	4c 8b 44 24 30       	mov    0x30(%rsp),%r8
  403f4a:	89 c2                	mov    %eax,%edx
  403f4c:	49 8b 45 08          	mov    0x8(%r13),%rax
  403f50:	e9 b6 fd ff ff       	jmp    403d0b <vfscanf+0x39b>
  403f55:	0f 1f 00             	nopl   (%rax)
  403f58:	4c 8b 14 24          	mov    (%rsp),%r10
  403f5c:	49 8b 7a 08          	mov    0x8(%r10),%rdi
  403f60:	48 8d 4f 08          	lea    0x8(%rdi),%rcx
  403f64:	49 89 4a 08          	mov    %rcx,0x8(%r10)
  403f68:	e9 15 fc ff ff       	jmp    403b82 <vfscanf+0x212>
  403f6d:	0f 1f 00             	nopl   (%rax)
  403f70:	c7 44 24 1c 01 00 00 	movl   $0x1,0x1c(%rsp)
  403f77:	00 
  403f78:	45 85 ff             	test   %r15d,%r15d
  403f7b:	b8 01 00 00 00       	mov    $0x1,%eax
  403f80:	bd 63 00 00 00       	mov    $0x63,%ebp
  403f85:	44 0f 4e f8          	cmovle %eax,%r15d
  403f89:	e9 aa fd ff ff       	jmp    403d38 <vfscanf+0x3c8>
  403f8e:	66 90                	xchg   %ax,%ax
  403f90:	49 8b 45 08          	mov    0x8(%r13),%rax
  403f94:	49 2b 45 58          	sub    0x58(%r13),%rax
  403f98:	49 03 85 c8 00 00 00 	add    0xc8(%r13),%rax
  403f9f:	48 01 c3             	add    %rax,%rbx
  403fa2:	48 83 7c 24 10 00    	cmpq   $0x0,0x10(%rsp)
  403fa8:	0f 84 55 fb ff ff    	je     403b03 <vfscanf+0x193>
  403fae:	66 90                	xchg   %ax,%ax
  403fb0:	41 83 c4 01          	add    $0x1,%r12d
  403fb4:	e9 4a fb ff ff       	jmp    403b03 <vfscanf+0x193>
  403fb9:	0f 1f 80 00 00 00 00 	nopl   0x0(%rax)
  403fc0:	44 8b 7c 24 1c       	mov    0x1c(%rsp),%r15d
  403fc5:	31 d2                	xor    %edx,%edx
  403fc7:	4c 89 ef             	mov    %r13,%rdi
  403fca:	4c 89 44 24 30       	mov    %r8,0x30(%rsp)
  403fcf:	44 89 fe             	mov    %r15d,%esi
  403fd2:	e8 f9 17 00 00       	call   4057d0 <__floatscan>
  403fd7:	49 8b 45 08          	mov    0x8(%r13),%rax
  403fdb:	49 2b 45 58          	sub    0x58(%r13),%rax
  403fdf:	49 03 85 c8 00 00 00 	add    0xc8(%r13),%rax
  403fe6:	0f 84 82 fc ff ff    	je     403c6e <vfscanf+0x2fe>
  403fec:	48 83 7c 24 10 00    	cmpq   $0x0,0x10(%rsp)
  403ff2:	4c 8b 44 24 30       	mov    0x30(%rsp),%r8
  403ff7:	0f 84 64 03 00 00    	je     404361 <vfscanf+0x9f1>
  403ffd:	41 83 ff 01          	cmp    $0x1,%r15d
  404001:	0f 84 51 06 00 00    	je     404658 <vfscanf+0xce8>
  404007:	41 83 ff 02          	cmp    $0x2,%r15d
  40400b:	0f 84 5f 06 00 00    	je     404670 <vfscanf+0xd00>
  404011:	45 85 ff             	test   %r15d,%r15d
  404014:	0f 84 4a 06 00 00    	je     404664 <vfscanf+0xcf4>
  40401a:	dd d8                	fstp   %st(0)
  40401c:	0f 1f 40 00          	nopl   0x0(%rax)
  404020:	48 01 c3             	add    %rax,%rbx
  404023:	eb 8b                	jmp    403fb0 <vfscanf+0x640>
  404025:	89 e8                	mov    %ebp,%eax
  404027:	83 e0 ef             	and    $0xffffffef,%eax
  40402a:	83 f8 63             	cmp    $0x63,%eax
  40402d:	0f 85 64 03 00 00    	jne    404397 <vfscanf+0xa27>
  404033:	48 8d 7c 24 60       	lea    0x60(%rsp),%rdi
  404038:	ba 01 01 00 00       	mov    $0x101,%edx
  40403d:	be ff ff ff ff       	mov    $0xffffffff,%esi
  404042:	4c 89 44 24 20       	mov    %r8,0x20(%rsp)
  404047:	e8 c1 08 00 00       	call   40490d <memset>
  40404c:	41 83 c7 01          	add    $0x1,%r15d
  404050:	83 fd 73             	cmp    $0x73,%ebp
  404053:	c6 44 24 60 00       	movb   $0x0,0x60(%rsp)
  404058:	4c 8b 44 24 20       	mov    0x20(%rsp),%r8
  40405d:	75 1b                	jne    40407a <vfscanf+0x70a>
  40405f:	c7 44 24 6a 00 00 00 	movl   $0x0,0x6a(%rsp)
  404066:	00 
  404067:	41 bf 1f 00 00 00    	mov    $0x1f,%r15d
  40406d:	c6 44 24 6e 00       	movb   $0x0,0x6e(%rsp)
  404072:	c6 84 24 81 00 00 00 	movb   $0x0,0x81(%rsp)
  404079:	00 
  40407a:	83 7c 24 1c 01       	cmpl   $0x1,0x1c(%rsp)
  40407f:	0f 84 86 04 00 00    	je     40450b <vfscanf+0xb9b>
  404085:	8b 7c 24 18          	mov    0x18(%rsp),%edi
  404089:	85 ff                	test   %edi,%edi
  40408b:	0f 85 97 06 00 00    	jne    404728 <vfscanf+0xdb8>
  404091:	49 8b 55 08          	mov    0x8(%r13),%rdx
  404095:	45 31 c9             	xor    %r9d,%r9d
  404098:	48 83 7c 24 10 00    	cmpq   $0x0,0x10(%rsp)
  40409e:	4d 89 c7             	mov    %r8,%r15
  4040a1:	48 89 d0             	mov    %rdx,%rax
  4040a4:	74 79                	je     40411f <vfscanf+0x7af>
  4040a6:	48 89 5c 24 20       	mov    %rbx,0x20(%rsp)
  4040ab:	48 8b 5c 24 10       	mov    0x10(%rsp),%rbx
  4040b0:	89 6c 24 28          	mov    %ebp,0x28(%rsp)
  4040b4:	4c 89 cd             	mov    %r9,%rbp
  4040b7:	eb 2f                	jmp    4040e8 <vfscanf+0x778>
  4040b9:	0f 1f 80 00 00 00 00 	nopl   0x0(%rax)
  4040c0:	48 8d 42 01          	lea    0x1(%rdx),%rax
  4040c4:	49 89 45 08          	mov    %rax,0x8(%r13)
  4040c8:	0f b6 02             	movzbl (%rdx),%eax
  4040cb:	8d 50 01             	lea    0x1(%rax),%edx
  4040ce:	48 63 d2             	movslq %edx,%rdx
  4040d1:	80 7c 14 60 00       	cmpb   $0x0,0x60(%rsp,%rdx,1)
  4040d6:	0f 84 7b 03 00 00    	je     404457 <vfscanf+0xae7>
  4040dc:	48 83 c5 01          	add    $0x1,%rbp
  4040e0:	88 44 2b ff          	mov    %al,-0x1(%rbx,%rbp,1)
  4040e4:	49 8b 55 08          	mov    0x8(%r13),%rdx
  4040e8:	49 3b 95 b8 00 00 00 	cmp    0xb8(%r13),%rdx
  4040ef:	75 cf                	jne    4040c0 <vfscanf+0x750>
  4040f1:	4c 89 ef             	mov    %r13,%rdi
  4040f4:	e8 f7 25 00 00       	call   4066f0 <__shgetc>
  4040f9:	eb d0                	jmp    4040cb <vfscanf+0x75b>
  4040fb:	0f 1f 44 00 00       	nopl   0x0(%rax,%rax,1)
  404100:	48 8d 48 01          	lea    0x1(%rax),%rcx
  404104:	49 89 4d 08          	mov    %rcx,0x8(%r13)
  404108:	0f b6 10             	movzbl (%rax),%edx
  40410b:	48 89 c8             	mov    %rcx,%rax
  40410e:	83 c2 01             	add    $0x1,%edx
  404111:	48 63 d2             	movslq %edx,%rdx
  404114:	80 7c 14 60 00       	cmpb   $0x0,0x60(%rsp,%rdx,1)
  404119:	0f 84 6c 05 00 00    	je     40468b <vfscanf+0xd1b>
  40411f:	49 39 85 b8 00 00 00 	cmp    %rax,0xb8(%r13)
  404126:	75 d8                	jne    404100 <vfscanf+0x790>
  404128:	4c 89 ef             	mov    %r13,%rdi
  40412b:	e8 c0 25 00 00       	call   4066f0 <__shgetc>
  404130:	89 c2                	mov    %eax,%edx
  404132:	49 8b 45 08          	mov    0x8(%r13),%rax
  404136:	eb d6                	jmp    40410e <vfscanf+0x79e>
  404138:	be 10 00 00 00       	mov    $0x10,%esi
  40413d:	31 d2                	xor    %edx,%edx
  40413f:	48 c7 c1 ff ff ff ff 	mov    $0xffffffffffffffff,%rcx
  404146:	4c 89 ef             	mov    %r13,%rdi
  404149:	4c 89 44 24 30       	mov    %r8,0x30(%rsp)
  40414e:	e8 7d 1f 00 00       	call   4060d0 <__intscan>
  404153:	49 8b 55 08          	mov    0x8(%r13),%rdx
  404157:	48 89 c1             	mov    %rax,%rcx
  40415a:	49 8b 85 c8 00 00 00 	mov    0xc8(%r13),%rax
  404161:	48 89 d6             	mov    %rdx,%rsi
  404164:	49 2b 75 58          	sub    0x58(%r13),%rsi
  404168:	48 01 c6             	add    %rax,%rsi
  40416b:	0f 84 ff fa ff ff    	je     403c70 <vfscanf+0x300>
  404171:	83 fd 70             	cmp    $0x70,%ebp
  404174:	4c 8b 44 24 30       	mov    0x30(%rsp),%r8
  404179:	75 63                	jne    4041de <vfscanf+0x86e>
  40417b:	48 8b 74 24 10       	mov    0x10(%rsp),%rsi
  404180:	48 85 f6             	test   %rsi,%rsi
  404183:	0f 84 cf 01 00 00    	je     404358 <vfscanf+0x9e8>
  404189:	48 89 0e             	mov    %rcx,(%rsi)
  40418c:	49 8b 55 08          	mov    0x8(%r13),%rdx
  404190:	49 2b 55 58          	sub    0x58(%r13),%rdx
  404194:	48 01 d0             	add    %rdx,%rax
  404197:	e9 84 fe ff ff       	jmp    404020 <vfscanf+0x6b0>
  40419c:	be 0a 00 00 00       	mov    $0xa,%esi
  4041a1:	eb 9a                	jmp    40413d <vfscanf+0x7cd>
  4041a3:	31 f6                	xor    %esi,%esi
  4041a5:	31 d2                	xor    %edx,%edx
  4041a7:	48 c7 c1 ff ff ff ff 	mov    $0xffffffffffffffff,%rcx
  4041ae:	4c 89 ef             	mov    %r13,%rdi
  4041b1:	4c 89 44 24 30       	mov    %r8,0x30(%rsp)
  4041b6:	e8 15 1f 00 00       	call   4060d0 <__intscan>
  4041bb:	49 8b 55 08          	mov    0x8(%r13),%rdx
  4041bf:	4c 8b 44 24 30       	mov    0x30(%rsp),%r8
  4041c4:	48 89 c1             	mov    %rax,%rcx
  4041c7:	49 8b 85 c8 00 00 00 	mov    0xc8(%r13),%rax
  4041ce:	48 89 d6             	mov    %rdx,%rsi
  4041d1:	49 2b 75 58          	sub    0x58(%r13),%rsi
  4041d5:	48 01 c6             	add    %rax,%rsi
  4041d8:	0f 84 92 fa ff ff    	je     403c70 <vfscanf+0x300>
  4041de:	48 83 7c 24 10 00    	cmpq   $0x0,0x10(%rsp)
  4041e4:	0f 84 6e 01 00 00    	je     404358 <vfscanf+0x9e8>
  4041ea:	44 8b 7c 24 1c       	mov    0x1c(%rsp),%r15d
  4041ef:	41 83 c7 02          	add    $0x2,%r15d
  4041f3:	41 83 ff 05          	cmp    $0x5,%r15d
  4041f7:	77 5b                	ja     404254 <vfscanf+0x8e4>
  4041f9:	48 8d 3d c4 61 00 00 	lea    0x61c4(%rip),%rdi        # 40a3c4 <cookie+0xf0>
  404200:	4a 63 34 bf          	movslq (%rdi,%r15,4),%rsi
  404204:	48 01 fe             	add    %rdi,%rsi
  404207:	3e ff e6             	notrack jmp *%rsi
  40420a:	48 8b 74 24 10       	mov    0x10(%rsp),%rsi
  40420f:	49 2b 55 58          	sub    0x58(%r13),%rdx
  404213:	48 01 d0             	add    %rdx,%rax
  404216:	48 89 0e             	mov    %rcx,(%rsi)
  404219:	e9 02 fe ff ff       	jmp    404020 <vfscanf+0x6b0>
  40421e:	48 8b 44 24 10       	mov    0x10(%rsp),%rax
  404223:	48 89 08             	mov    %rcx,(%rax)
  404226:	48 89 d0             	mov    %rdx,%rax
  404229:	49 2b 45 58          	sub    0x58(%r13),%rax
  40422d:	49 03 85 c8 00 00 00 	add    0xc8(%r13),%rax
  404234:	e9 e7 fd ff ff       	jmp    404020 <vfscanf+0x6b0>
  404239:	48 8b 74 24 10       	mov    0x10(%rsp),%rsi
  40423e:	49 2b 55 58          	sub    0x58(%r13),%rdx
  404242:	48 01 d0             	add    %rdx,%rax
  404245:	89 0e                	mov    %ecx,(%rsi)
  404247:	e9 d4 fd ff ff       	jmp    404020 <vfscanf+0x6b0>
  40424c:	48 8b 74 24 10       	mov    0x10(%rsp),%rsi
  404251:	66 89 0e             	mov    %cx,(%rsi)
  404254:	49 2b 55 58          	sub    0x58(%r13),%rdx
  404258:	48 01 d0             	add    %rdx,%rax
  40425b:	e9 c0 fd ff ff       	jmp    404020 <vfscanf+0x6b0>
  404260:	48 8b 44 24 10       	mov    0x10(%rsp),%rax
  404265:	88 08                	mov    %cl,(%rax)
  404267:	49 8b 45 08          	mov    0x8(%r13),%rax
  40426b:	49 2b 45 58          	sub    0x58(%r13),%rax
  40426f:	49 03 85 c8 00 00 00 	add    0xc8(%r13),%rax
  404276:	e9 a5 fd ff ff       	jmp    404020 <vfscanf+0x6b0>
  40427b:	be 08 00 00 00       	mov    $0x8,%esi
  404280:	e9 20 ff ff ff       	jmp    4041a5 <vfscanf+0x835>
  404285:	0f 1f 00             	nopl   (%rax)
  404288:	41 0f b6 40 01       	movzbl 0x1(%r8),%eax
  40428d:	c7 44 24 1c 01 00 00 	movl   $0x1,0x1c(%rsp)
  404294:	00 
  404295:	49 89 f0             	mov    %rsi,%r8
  404298:	e9 53 fc ff ff       	jmp    403ef0 <vfscanf+0x580>
  40429d:	41 0f b6 40 01       	movzbl 0x1(%r8),%eax
  4042a2:	c7 44 24 1c 03 00 00 	movl   $0x3,0x1c(%rsp)
  4042a9:	00 
  4042aa:	49 89 f0             	mov    %rsi,%r8
  4042ad:	e9 3e fc ff ff       	jmp    403ef0 <vfscanf+0x580>
  4042b2:	66 0f 1f 44 00 00    	nopw   0x0(%rax,%rax,1)
  4042b8:	48 83 7c 24 10 00    	cmpq   $0x0,0x10(%rsp)
  4042be:	0f 84 3f f8 ff ff    	je     403b03 <vfscanf+0x193>
  4042c4:	44 8b 7c 24 1c       	mov    0x1c(%rsp),%r15d
  4042c9:	41 83 c7 02          	add    $0x2,%r15d
  4042cd:	41 83 ff 05          	cmp    $0x5,%r15d
  4042d1:	0f 87 2c f8 ff ff    	ja     403b03 <vfscanf+0x193>
  4042d7:	48 8d 15 fe 60 00 00 	lea    0x60fe(%rip),%rdx        # 40a3dc <cookie+0x108>
  4042de:	4a 63 04 ba          	movslq (%rdx,%r15,4),%rax
  4042e2:	48 01 d0             	add    %rdx,%rax
  4042e5:	3e ff e0             	notrack jmp *%rax
  4042e8:	48 8b 44 24 10       	mov    0x10(%rsp),%rax
  4042ed:	89 18                	mov    %ebx,(%rax)
  4042ef:	e9 0f f8 ff ff       	jmp    403b03 <vfscanf+0x193>
  4042f4:	48 8b 44 24 10       	mov    0x10(%rsp),%rax
  4042f9:	66 89 18             	mov    %bx,(%rax)
  4042fc:	e9 02 f8 ff ff       	jmp    403b03 <vfscanf+0x193>
  404301:	48 8b 44 24 10       	mov    0x10(%rsp),%rax
  404306:	88 18                	mov    %bl,(%rax)
  404308:	e9 f6 f7 ff ff       	jmp    403b03 <vfscanf+0x193>
  40430d:	0f 1f 00             	nopl   (%rax)
  404310:	4c 89 ef             	mov    %r13,%rdi
  404313:	4c 89 44 24 30       	mov    %r8,0x30(%rsp)
  404318:	e8 d3 23 00 00       	call   4066f0 <__shgetc>
  40431d:	4c 8b 44 24 30       	mov    0x30(%rsp),%r8
  404322:	85 c0                	test   %eax,%eax
  404324:	0f 89 44 fa ff ff    	jns    403d6e <vfscanf+0x3fe>
  40432a:	e9 31 f9 ff ff       	jmp    403c60 <vfscanf+0x2f0>
  40432f:	90                   	nop
  404330:	48 8b 3c 24          	mov    (%rsp),%rdi
  404334:	e8 67 f5 ff ff       	call   4038a0 <arg_n>
  404339:	4c 8d 45 03          	lea    0x3(%rbp),%r8
  40433d:	48 89 44 24 10       	mov    %rax,0x10(%rsp)
  404342:	0f b6 45 03          	movzbl 0x3(%rbp),%eax
  404346:	89 c2                	mov    %eax,%edx
  404348:	8d 70 d0             	lea    -0x30(%rax),%esi
  40434b:	e9 3e f8 ff ff       	jmp    403b8e <vfscanf+0x21e>
  404350:	45 31 e4             	xor    %r12d,%r12d
  404353:	e9 fd f6 ff ff       	jmp    403a55 <vfscanf+0xe5>
  404358:	49 2b 55 58          	sub    0x58(%r13),%rdx
  40435c:	48 01 d0             	add    %rdx,%rax
  40435f:	eb 02                	jmp    404363 <vfscanf+0x9f3>
  404361:	dd d8                	fstp   %st(0)
  404363:	48 01 c3             	add    %rax,%rbx
  404366:	e9 98 f7 ff ff       	jmp    403b03 <vfscanf+0x193>
  40436b:	41 0f b6 40 02       	movzbl 0x2(%r8),%eax
  404370:	c7 44 24 1c 03 00 00 	movl   $0x3,0x1c(%rsp)
  404377:	00 
  404378:	49 83 c0 02          	add    $0x2,%r8
  40437c:	e9 6f fb ff ff       	jmp    403ef0 <vfscanf+0x580>
  404381:	41 0f b6 40 02       	movzbl 0x2(%r8),%eax
  404386:	c7 44 24 1c fe ff ff 	movl   $0xfffffffe,0x1c(%rsp)
  40438d:	ff 
  40438e:	49 83 c0 02          	add    $0x2,%r8
  404392:	e9 59 fb ff ff       	jmp    403ef0 <vfscanf+0x580>
  404397:	41 80 78 01 5e       	cmpb   $0x5e,0x1(%r8)
  40439c:	0f 84 da 02 00 00    	je     40467c <vfscanf+0xd0c>
  4043a2:	49 83 c0 01          	add    $0x1,%r8
  4043a6:	45 31 ff             	xor    %r15d,%r15d
  4043a9:	ba 01 01 00 00       	mov    $0x101,%edx
  4043ae:	48 8d 7c 24 60       	lea    0x60(%rsp),%rdi
  4043b3:	44 89 fe             	mov    %r15d,%esi
  4043b6:	4c 89 44 24 30       	mov    %r8,0x30(%rsp)
  4043bb:	e8 4d 05 00 00       	call   40490d <memset>
  4043c0:	4c 8b 44 24 30       	mov    0x30(%rsp),%r8
  4043c5:	c6 44 24 60 00       	movb   $0x0,0x60(%rsp)
  4043ca:	41 0f b6 10          	movzbl (%r8),%edx
  4043ce:	80 fa 2d             	cmp    $0x2d,%dl
  4043d1:	0f 84 3a 02 00 00    	je     404611 <vfscanf+0xca1>
  4043d7:	80 fa 5d             	cmp    $0x5d,%dl
  4043da:	0f 84 d7 02 00 00    	je     4046b7 <vfscanf+0xd47>
  4043e0:	be 01 00 00 00       	mov    $0x1,%esi
  4043e5:	48 8d 7c 24 61       	lea    0x61(%rsp),%rdi
  4043ea:	44 29 fe             	sub    %r15d,%esi
  4043ed:	eb 1d                	jmp    40440c <vfscanf+0xa9c>
  4043ef:	90                   	nop
  4043f0:	41 0f b6 00          	movzbl (%r8),%eax
  4043f4:	89 ca                	mov    %ecx,%edx
  4043f6:	83 c0 01             	add    $0x1,%eax
  4043f9:	4d 89 c8             	mov    %r9,%r8
  4043fc:	48 98                	cltq   
  4043fe:	40 88 74 04 60       	mov    %sil,0x60(%rsp,%rax,1)
  404403:	80 fa 5d             	cmp    $0x5d,%dl
  404406:	0f 84 25 02 00 00    	je     404631 <vfscanf+0xcc1>
  40440c:	84 d2                	test   %dl,%dl
  40440e:	0f 84 4c f8 ff ff    	je     403c60 <vfscanf+0x2f0>
  404414:	41 0f b6 48 01       	movzbl 0x1(%r8),%ecx
  404419:	4d 8d 48 01          	lea    0x1(%r8),%r9
  40441d:	80 fa 2d             	cmp    $0x2d,%dl
  404420:	75 ce                	jne    4043f0 <vfscanf+0xa80>
  404422:	84 c9                	test   %cl,%cl
  404424:	74 ca                	je     4043f0 <vfscanf+0xa80>
  404426:	80 f9 5d             	cmp    $0x5d,%cl
  404429:	74 c5                	je     4043f0 <vfscanf+0xa80>
  40442b:	41 0f b6 50 ff       	movzbl -0x1(%r8),%edx
  404430:	0f b6 c1             	movzbl %cl,%eax
  404433:	38 ca                	cmp    %cl,%dl
  404435:	0f 83 04 04 00 00    	jae    40483f <vfscanf+0xecf>
  40443b:	0f 1f 44 00 00       	nopl   0x0(%rax,%rax,1)
  404440:	40 88 34 17          	mov    %sil,(%rdi,%rdx,1)
  404444:	48 83 c2 01          	add    $0x1,%rdx
  404448:	39 d0                	cmp    %edx,%eax
  40444a:	7f f4                	jg     404440 <vfscanf+0xad0>
  40444c:	41 0f b6 50 02       	movzbl 0x2(%r8),%edx
  404451:	49 83 c1 01          	add    $0x1,%r9
  404455:	eb 9f                	jmp    4043f6 <vfscanf+0xa86>
  404457:	48 8b 7c 24 10       	mov    0x10(%rsp),%rdi
  40445c:	48 8b 5c 24 20       	mov    0x20(%rsp),%rbx
  404461:	49 89 e9             	mov    %rbp,%r9
  404464:	4d 89 f8             	mov    %r15,%r8
  404467:	8b 6c 24 28          	mov    0x28(%rsp),%ebp
  40446b:	49 8b 45 08          	mov    0x8(%r13),%rax
  40446f:	48 c7 44 24 20 00 00 	movq   $0x0,0x20(%rsp)
  404476:	00 00 
  404478:	48 89 7c 24 28       	mov    %rdi,0x28(%rsp)
  40447d:	49 83 bd c0 00 00 00 	cmpq   $0x0,0xc0(%r13)
  404484:	00 
  404485:	78 08                	js     40448f <vfscanf+0xb1f>
  404487:	48 83 e8 01          	sub    $0x1,%rax
  40448b:	49 89 45 08          	mov    %rax,0x8(%r13)
  40448f:	49 2b 45 58          	sub    0x58(%r13),%rax
  404493:	49 03 85 c8 00 00 00 	add    0xc8(%r13),%rax
  40449a:	0f 84 d0 f7 ff ff    	je     403c70 <vfscanf+0x300>
  4044a0:	83 fd 63             	cmp    $0x63,%ebp
  4044a3:	0f 84 93 01 00 00    	je     40463c <vfscanf+0xccc>
  4044a9:	8b 54 24 18          	mov    0x18(%rsp),%edx
  4044ad:	85 d2                	test   %edx,%edx
  4044af:	74 21                	je     4044d2 <vfscanf+0xb62>
  4044b1:	83 7c 24 1c 01       	cmpl   $0x1,0x1c(%rsp)
  4044b6:	48 8b 74 24 10       	mov    0x10(%rsp),%rsi
  4044bb:	0f 84 0e 02 00 00    	je     4046cf <vfscanf+0xd5f>
  4044c1:	48 8b 7c 24 28       	mov    0x28(%rsp),%rdi
  4044c6:	48 89 3e             	mov    %rdi,(%rsi)
  4044c9:	83 fd 63             	cmp    $0x63,%ebp
  4044cc:	0f 84 4e fb ff ff    	je     404020 <vfscanf+0x6b0>
  4044d2:	48 8b 74 24 20       	mov    0x20(%rsp),%rsi
  4044d7:	48 85 f6             	test   %rsi,%rsi
  4044da:	74 08                	je     4044e4 <vfscanf+0xb74>
  4044dc:	42 c7 04 8e 00 00 00 	movl   $0x0,(%rsi,%r9,4)
  4044e3:	00 
  4044e4:	48 8b 74 24 28       	mov    0x28(%rsp),%rsi
  4044e9:	48 85 f6             	test   %rsi,%rsi
  4044ec:	0f 84 ad fa ff ff    	je     403f9f <vfscanf+0x62f>
  4044f2:	42 c6 04 0e 00       	movb   $0x0,(%rsi,%r9,1)
  4044f7:	49 8b 45 08          	mov    0x8(%r13),%rax
  4044fb:	49 2b 45 58          	sub    0x58(%r13),%rax
  4044ff:	49 03 85 c8 00 00 00 	add    0xc8(%r13),%rax
  404506:	e9 94 fa ff ff       	jmp    403f9f <vfscanf+0x62f>
  40450b:	48 8b 44 24 10       	mov    0x10(%rsp),%rax
  404510:	44 8b 4c 24 18       	mov    0x18(%rsp),%r9d
  404515:	48 89 44 24 20       	mov    %rax,0x20(%rsp)
  40451a:	45 85 c9             	test   %r9d,%r9d
  40451d:	0f 85 b9 01 00 00    	jne    4046dc <vfscanf+0xd6c>
  404523:	48 8d 44 24 58       	lea    0x58(%rsp),%rax
  404528:	4c 89 44 24 40       	mov    %r8,0x40(%rsp)
  40452d:	45 31 c9             	xor    %r9d,%r9d
  404530:	48 c7 44 24 58 00 00 	movq   $0x0,0x58(%rsp)
  404537:	00 00 
  404539:	48 89 44 24 28       	mov    %rax,0x28(%rsp)
  40453e:	4c 89 e8             	mov    %r13,%rax
  404541:	45 89 e5             	mov    %r12d,%r13d
  404544:	41 89 ec             	mov    %ebp,%r12d
  404547:	48 89 5c 24 30       	mov    %rbx,0x30(%rsp)
  40454c:	48 89 c5             	mov    %rax,%rbp
  40454f:	4c 89 cb             	mov    %r9,%rbx
  404552:	48 8b 45 08          	mov    0x8(%rbp),%rax
  404556:	48 3b 85 b8 00 00 00 	cmp    0xb8(%rbp),%rax
  40455d:	0f 84 45 01 00 00    	je     4046a8 <vfscanf+0xd38>
  404563:	48 8d 50 01          	lea    0x1(%rax),%rdx
  404567:	48 89 55 08          	mov    %rdx,0x8(%rbp)
  40456b:	0f b6 10             	movzbl (%rax),%edx
  40456e:	8d 42 01             	lea    0x1(%rdx),%eax
  404571:	48 98                	cltq   
  404573:	80 7c 04 60 00       	cmpb   $0x0,0x60(%rsp,%rax,1)
  404578:	0f 84 77 02 00 00    	je     4047f5 <vfscanf+0xe85>
  40457e:	48 8b 4c 24 28       	mov    0x28(%rsp),%rcx
  404583:	48 8b 74 24 08       	mov    0x8(%rsp),%rsi
  404588:	88 54 24 53          	mov    %dl,0x53(%rsp)
  40458c:	48 8d 7c 24 54       	lea    0x54(%rsp),%rdi
  404591:	ba 01 00 00 00       	mov    $0x1,%edx
  404596:	e8 d5 42 00 00       	call   408870 <mbrtowc>
  40459b:	48 83 f8 fe          	cmp    $0xfffffffffffffffe,%rax
  40459f:	74 b1                	je     404552 <vfscanf+0xbe2>
  4045a1:	48 83 f8 ff          	cmp    $0xffffffffffffffff,%rax
  4045a5:	75 14                	jne    4045bb <vfscanf+0xc4b>
  4045a7:	48 c7 44 24 28 00 00 	movq   $0x0,0x28(%rsp)
  4045ae:	00 00 
  4045b0:	45 89 ec             	mov    %r13d,%r12d
  4045b3:	49 89 ed             	mov    %rbp,%r13
  4045b6:	e9 a5 f6 ff ff       	jmp    403c60 <vfscanf+0x2f0>
  4045bb:	48 8b 7c 24 20       	mov    0x20(%rsp),%rdi
  4045c0:	48 85 ff             	test   %rdi,%rdi
  4045c3:	74 0b                	je     4045d0 <vfscanf+0xc60>
  4045c5:	8b 44 24 54          	mov    0x54(%rsp),%eax
  4045c9:	89 04 9f             	mov    %eax,(%rdi,%rbx,4)
  4045cc:	48 83 c3 01          	add    $0x1,%rbx
  4045d0:	4c 39 fb             	cmp    %r15,%rbx
  4045d3:	0f 85 79 ff ff ff    	jne    404552 <vfscanf+0xbe2>
  4045d9:	44 8b 44 24 18       	mov    0x18(%rsp),%r8d
  4045de:	45 85 c0             	test   %r8d,%r8d
  4045e1:	0f 84 6b ff ff ff    	je     404552 <vfscanf+0xbe2>
  4045e7:	4f 8d 7c 3f 01       	lea    0x1(%r15,%r15,1),%r15
  4045ec:	48 8b 7c 24 20       	mov    0x20(%rsp),%rdi
  4045f1:	4a 8d 34 bd 00 00 00 	lea    0x0(,%r15,4),%rsi
  4045f8:	00 
  4045f9:	e8 e2 3f 00 00       	call   4085e0 <realloc>
  4045fe:	48 85 c0             	test   %rax,%rax
  404601:	0f 84 62 02 00 00    	je     404869 <vfscanf+0xef9>
  404607:	48 89 44 24 20       	mov    %rax,0x20(%rsp)
  40460c:	e9 41 ff ff ff       	jmp    404552 <vfscanf+0xbe2>
  404611:	b8 01 00 00 00       	mov    $0x1,%eax
  404616:	49 83 c0 01          	add    $0x1,%r8
  40461a:	44 29 f8             	sub    %r15d,%eax
  40461d:	88 84 24 8e 00 00 00 	mov    %al,0x8e(%rsp)
  404624:	41 0f b6 10          	movzbl (%r8),%edx
  404628:	80 fa 5d             	cmp    $0x5d,%dl
  40462b:	0f 85 af fd ff ff    	jne    4043e0 <vfscanf+0xa70>
  404631:	41 bf 1f 00 00 00    	mov    $0x1f,%r15d
  404637:	e9 3e fa ff ff       	jmp    40407a <vfscanf+0x70a>
  40463c:	48 39 44 24 38       	cmp    %rax,0x38(%rsp)
  404641:	0f 85 29 f6 ff ff    	jne    403c70 <vfscanf+0x300>
  404647:	8b 4c 24 18          	mov    0x18(%rsp),%ecx
  40464b:	85 c9                	test   %ecx,%ecx
  40464d:	0f 85 5e fe ff ff    	jne    4044b1 <vfscanf+0xb41>
  404653:	e9 47 f9 ff ff       	jmp    403f9f <vfscanf+0x62f>
  404658:	48 8b 74 24 10       	mov    0x10(%rsp),%rsi
  40465d:	dd 1e                	fstpl  (%rsi)
  40465f:	e9 bc f9 ff ff       	jmp    404020 <vfscanf+0x6b0>
  404664:	48 8b 7c 24 10       	mov    0x10(%rsp),%rdi
  404669:	d9 1f                	fstps  (%rdi)
  40466b:	e9 b0 f9 ff ff       	jmp    404020 <vfscanf+0x6b0>
  404670:	48 8b 7c 24 10       	mov    0x10(%rsp),%rdi
  404675:	db 3f                	fstpt  (%rdi)
  404677:	e9 a4 f9 ff ff       	jmp    404020 <vfscanf+0x6b0>
  40467c:	49 83 c0 02          	add    $0x2,%r8
  404680:	41 bf 01 00 00 00    	mov    $0x1,%r15d
  404686:	e9 1e fd ff ff       	jmp    4043a9 <vfscanf+0xa39>
  40468b:	48 c7 44 24 20 00 00 	movq   $0x0,0x20(%rsp)
  404692:	00 00 
  404694:	4d 89 f8             	mov    %r15,%r8
  404697:	45 31 c9             	xor    %r9d,%r9d
  40469a:	48 c7 44 24 28 00 00 	movq   $0x0,0x28(%rsp)
  4046a1:	00 00 
  4046a3:	e9 d5 fd ff ff       	jmp    40447d <vfscanf+0xb0d>
  4046a8:	48 89 ef             	mov    %rbp,%rdi
  4046ab:	e8 40 20 00 00       	call   4066f0 <__shgetc>
  4046b0:	89 c2                	mov    %eax,%edx
  4046b2:	e9 b7 fe ff ff       	jmp    40456e <vfscanf+0xbfe>
  4046b7:	b8 01 00 00 00       	mov    $0x1,%eax
  4046bc:	49 83 c0 01          	add    $0x1,%r8
  4046c0:	44 29 f8             	sub    %r15d,%eax
  4046c3:	88 84 24 be 00 00 00 	mov    %al,0xbe(%rsp)
  4046ca:	e9 55 ff ff ff       	jmp    404624 <vfscanf+0xcb4>
  4046cf:	48 8b 7c 24 20       	mov    0x20(%rsp),%rdi
  4046d4:	48 89 3e             	mov    %rdi,(%rsi)
  4046d7:	e9 ed fd ff ff       	jmp    4044c9 <vfscanf+0xb59>
  4046dc:	4a 8d 3c bd 00 00 00 	lea    0x0(,%r15,4),%rdi
  4046e3:	00 
  4046e4:	4c 89 44 24 28       	mov    %r8,0x28(%rsp)
  4046e9:	e8 e2 23 00 00       	call   406ad0 <malloc>
