
open:     file format elf64-x86-64


Disassembly of section .init:

0000000000401000 <_init>:
  401000:	48 83 ec 08          	sub    $0x8,%rsp
  401004:	48 8b 05 ed 2f 00 00 	mov    0x2fed(%rip),%rax        # 403ff8 <__gmon_start__>
  40100b:	48 85 c0             	test   %rax,%rax
  40100e:	74 02                	je     401012 <_init+0x12>
  401010:	ff d0                	call   *%rax
  401012:	48 83 c4 08          	add    $0x8,%rsp
  401016:	c3                   	ret    

Disassembly of section .plt:

0000000000401020 <puts@plt-0x10>:
  401020:	ff 35 e2 2f 00 00    	push   0x2fe2(%rip)        # 404008 <_GLOBAL_OFFSET_TABLE_+0x8>
  401026:	ff 25 e4 2f 00 00    	jmp    *0x2fe4(%rip)        # 404010 <_GLOBAL_OFFSET_TABLE_+0x10>
  40102c:	0f 1f 40 00          	nopl   0x0(%rax)

0000000000401030 <puts@plt>:
  401030:	ff 25 e2 2f 00 00    	jmp    *0x2fe2(%rip)        # 404018 <puts@GLIBC_2.2.5>
  401036:	68 00 00 00 00       	push   $0x0
  40103b:	e9 e0 ff ff ff       	jmp    401020 <_init+0x20>

0000000000401040 <fread@plt>:
  401040:	ff 25 da 2f 00 00    	jmp    *0x2fda(%rip)        # 404020 <fread@GLIBC_2.2.5>
  401046:	68 01 00 00 00       	push   $0x1
  40104b:	e9 d0 ff ff ff       	jmp    401020 <_init+0x20>

0000000000401050 <fclose@plt>:
  401050:	ff 25 d2 2f 00 00    	jmp    *0x2fd2(%rip)        # 404028 <fclose@GLIBC_2.2.5>
  401056:	68 02 00 00 00       	push   $0x2
  40105b:	e9 c0 ff ff ff       	jmp    401020 <_init+0x20>

0000000000401060 <fopen@plt>:
  401060:	ff 25 ca 2f 00 00    	jmp    *0x2fca(%rip)        # 404030 <fopen@GLIBC_2.2.5>
  401066:	68 03 00 00 00       	push   $0x3
  40106b:	e9 b0 ff ff ff       	jmp    401020 <_init+0x20>

Disassembly of section .text:

0000000000401070 <_start>:
  401070:	31 ed                	xor    %ebp,%ebp
  401072:	49 89 d1             	mov    %rdx,%r9
  401075:	5e                   	pop    %rsi
  401076:	48 89 e2             	mov    %rsp,%rdx
  401079:	48 83 e4 f0          	and    $0xfffffffffffffff0,%rsp
  40107d:	50                   	push   %rax
  40107e:	54                   	push   %rsp
  40107f:	49 c7 c0 20 12 40 00 	mov    $0x401220,%r8
  401086:	48 c7 c1 b0 11 40 00 	mov    $0x4011b0,%rcx
  40108d:	48 c7 c7 56 11 40 00 	mov    $0x401156,%rdi
  401094:	ff 15 56 2f 00 00    	call   *0x2f56(%rip)        # 403ff0 <__libc_start_main@GLIBC_2.2.5>
  40109a:	f4                   	hlt    
  40109b:	0f 1f 44 00 00       	nopl   0x0(%rax,%rax,1)

00000000004010a0 <_dl_relocate_static_pie>:
  4010a0:	f3 c3                	repz ret 
  4010a2:	66 2e 0f 1f 84 00 00 	cs nopw 0x0(%rax,%rax,1)
  4010a9:	00 00 00 
  4010ac:	0f 1f 40 00          	nopl   0x0(%rax)

00000000004010b0 <deregister_tm_clones>:
  4010b0:	b8 48 40 40 00       	mov    $0x404048,%eax
  4010b5:	48 3d 48 40 40 00    	cmp    $0x404048,%rax
  4010bb:	74 13                	je     4010d0 <deregister_tm_clones+0x20>
  4010bd:	b8 00 00 00 00       	mov    $0x0,%eax
  4010c2:	48 85 c0             	test   %rax,%rax
  4010c5:	74 09                	je     4010d0 <deregister_tm_clones+0x20>
  4010c7:	bf 48 40 40 00       	mov    $0x404048,%edi
  4010cc:	ff e0                	jmp    *%rax
  4010ce:	66 90                	xchg   %ax,%ax
  4010d0:	c3                   	ret    
  4010d1:	66 66 2e 0f 1f 84 00 	data16 cs nopw 0x0(%rax,%rax,1)
  4010d8:	00 00 00 00 
  4010dc:	0f 1f 40 00          	nopl   0x0(%rax)

00000000004010e0 <register_tm_clones>:
  4010e0:	be 48 40 40 00       	mov    $0x404048,%esi
  4010e5:	48 81 ee 48 40 40 00 	sub    $0x404048,%rsi
  4010ec:	48 89 f0             	mov    %rsi,%rax
  4010ef:	48 c1 ee 3f          	shr    $0x3f,%rsi
  4010f3:	48 c1 f8 03          	sar    $0x3,%rax
  4010f7:	48 01 c6             	add    %rax,%rsi
  4010fa:	48 d1 fe             	sar    %rsi
  4010fd:	74 11                	je     401110 <register_tm_clones+0x30>
  4010ff:	b8 00 00 00 00       	mov    $0x0,%eax
  401104:	48 85 c0             	test   %rax,%rax
  401107:	74 07                	je     401110 <register_tm_clones+0x30>
  401109:	bf 48 40 40 00       	mov    $0x404048,%edi
  40110e:	ff e0                	jmp    *%rax
  401110:	c3                   	ret    
  401111:	66 66 2e 0f 1f 84 00 	data16 cs nopw 0x0(%rax,%rax,1)
  401118:	00 00 00 00 
  40111c:	0f 1f 40 00          	nopl   0x0(%rax)

0000000000401120 <__do_global_dtors_aux>:
  401120:	f3 0f 1e fa          	endbr64 
  401124:	80 3d 1d 2f 00 00 00 	cmpb   $0x0,0x2f1d(%rip)        # 404048 <__TMC_END__>
  40112b:	75 13                	jne    401140 <__do_global_dtors_aux+0x20>
  40112d:	55                   	push   %rbp
  40112e:	48 89 e5             	mov    %rsp,%rbp
  401131:	e8 7a ff ff ff       	call   4010b0 <deregister_tm_clones>
  401136:	c6 05 0b 2f 00 00 01 	movb   $0x1,0x2f0b(%rip)        # 404048 <__TMC_END__>
  40113d:	5d                   	pop    %rbp
  40113e:	c3                   	ret    
  40113f:	90                   	nop
  401140:	c3                   	ret    
  401141:	66 66 2e 0f 1f 84 00 	data16 cs nopw 0x0(%rax,%rax,1)
  401148:	00 00 00 00 
  40114c:	0f 1f 40 00          	nopl   0x0(%rax)

0000000000401150 <frame_dummy>:
  401150:	f3 0f 1e fa          	endbr64 
  401154:	eb 8a                	jmp    4010e0 <register_tm_clones>

0000000000401156 <main>:
  401156:	55                   	push   %rbp
  401157:	48 89 e5             	mov    %rsp,%rbp
  40115a:	48 83 ec 70          	sub    $0x70,%rsp
  40115e:	be 04 20 40 00       	mov    $0x402004,%esi
  401163:	bf 06 20 40 00       	mov    $0x402006,%edi
  401168:	e8 f3 fe ff ff       	call   401060 <fopen@plt>
  40116d:	48 89 45 f8          	mov    %rax,-0x8(%rbp)
  401171:	48 8b 55 f8          	mov    -0x8(%rbp),%rdx
  401175:	48 8d 45 90          	lea    -0x70(%rbp),%rax
  401179:	48 89 d1             	mov    %rdx,%rcx
  40117c:	ba 01 00 00 00       	mov    $0x1,%edx
  401181:	be 20 00 00 00       	mov    $0x20,%esi
  401186:	48 89 c7             	mov    %rax,%rdi
  401189:	e8 b2 fe ff ff       	call   401040 <fread@plt>
  40118e:	48 8d 45 90          	lea    -0x70(%rbp),%rax
  401192:	48 89 c7             	mov    %rax,%rdi
  401195:	e8 96 fe ff ff       	call   401030 <puts@plt>
  40119a:	48 8b 45 f8          	mov    -0x8(%rbp),%rax
  40119e:	48 89 c7             	mov    %rax,%rdi
  4011a1:	e8 aa fe ff ff       	call   401050 <fclose@plt>
  4011a6:	b8 00 00 00 00       	mov    $0x0,%eax
  4011ab:	c9                   	leave  
  4011ac:	c3                   	ret    
  4011ad:	0f 1f 00             	nopl   (%rax)

00000000004011b0 <__libc_csu_init>:
  4011b0:	41 57                	push   %r15
  4011b2:	41 56                	push   %r14
  4011b4:	49 89 d7             	mov    %rdx,%r15
  4011b7:	41 55                	push   %r13
  4011b9:	41 54                	push   %r12
  4011bb:	4c 8d 25 3e 2c 00 00 	lea    0x2c3e(%rip),%r12        # 403e00 <__frame_dummy_init_array_entry>
  4011c2:	55                   	push   %rbp
  4011c3:	48 8d 2d 3e 2c 00 00 	lea    0x2c3e(%rip),%rbp        # 403e08 <__do_global_dtors_aux_fini_array_entry>
  4011ca:	53                   	push   %rbx
  4011cb:	41 89 fd             	mov    %edi,%r13d
  4011ce:	49 89 f6             	mov    %rsi,%r14
  4011d1:	4c 29 e5             	sub    %r12,%rbp
  4011d4:	48 83 ec 08          	sub    $0x8,%rsp
  4011d8:	48 c1 fd 03          	sar    $0x3,%rbp
  4011dc:	e8 1f fe ff ff       	call   401000 <_init>
  4011e1:	48 85 ed             	test   %rbp,%rbp
  4011e4:	74 20                	je     401206 <__libc_csu_init+0x56>
  4011e6:	31 db                	xor    %ebx,%ebx
  4011e8:	0f 1f 84 00 00 00 00 	nopl   0x0(%rax,%rax,1)
  4011ef:	00 
  4011f0:	4c 89 fa             	mov    %r15,%rdx
  4011f3:	4c 89 f6             	mov    %r14,%rsi
  4011f6:	44 89 ef             	mov    %r13d,%edi
  4011f9:	41 ff 14 dc          	call   *(%r12,%rbx,8)
  4011fd:	48 83 c3 01          	add    $0x1,%rbx
  401201:	48 39 dd             	cmp    %rbx,%rbp
  401204:	75 ea                	jne    4011f0 <__libc_csu_init+0x40>
  401206:	48 83 c4 08          	add    $0x8,%rsp
  40120a:	5b                   	pop    %rbx
  40120b:	5d                   	pop    %rbp
  40120c:	41 5c                	pop    %r12
  40120e:	41 5d                	pop    %r13
  401210:	41 5e                	pop    %r14
  401212:	41 5f                	pop    %r15
  401214:	c3                   	ret    
  401215:	90                   	nop
  401216:	66 2e 0f 1f 84 00 00 	cs nopw 0x0(%rax,%rax,1)
  40121d:	00 00 00 

0000000000401220 <__libc_csu_fini>:
  401220:	f3 c3                	repz ret 

Disassembly of section .fini:

0000000000401224 <_fini>:
  401224:	48 83 ec 08          	sub    $0x8,%rsp
  401228:	48 83 c4 08          	add    $0x8,%rsp
  40122c:	c3                   	ret    
