00000000  D82435D17E63A2    fsub dword [rsi-0x5d9c812f]
00000007  CE                db 0xce
00000008  A256D7A06ED7A8CB  mov [qword 0x6bcba8d76ea0d756],al
         -6B
00000011  AE                scasb
00000012  EB5F              jmp short 0x73
00000014  21932B2B2B2B      and [rbx+0x2b2b2b2b],edx
0000001A  C2A229            ret 0x29a2
0000001D  2B2B              sub ebp,[rbx]
0000001F  A06ED70E2B2B2B0B  mov al,[qword 0xae0b2b2b2b0ed76e]
         -AE
00000028  EB5E              jmp short 0x88
0000002A  21932B2B2B2B      and [rbx+0x2b2b2b2b],edx
00000030  C25829            ret 0x2958
00000033  2B2B              sub ebp,[rbx]
00000035  A06ED70E2B2B6B2B  mov al,[qword 0xae2b6b2b2b0ed76e]
         -AE
0000003E  EB5F              jmp short 0x9f
00000040  21932B2B2B2B      and [rbx+0x2b2b2b2b],edx
00000046  C27629            ret 0x2976
00000049  2B2B              sub ebp,[rbx]
0000004B  A06ED70E2B2B2B2A  mov al,[qword 0xae2a2b2b2b0ed76e]
         -AE
00000054  EB5E              jmp short 0xb4
00000056  21932B2B2B2B      and [rbx+0x2b2b2b2b],edx
0000005C  C26C29            ret 0x296c
0000005F  2B2B              sub ebp,[rbx]
00000061  A06ED7A8CB2AAEEB  mov al,[qword 0x5febae2acba8d76e]
         -5F
0000006A  21932B2B2B2B      and [rbx+0x2b2b2b2b],edx
00000070  C21829            ret 0x2918
00000073  2B2B              sub ebp,[rbx]
00000075  A06ED70E2B2B2B3B  mov al,[qword 0xae3b2b2b2b0ed76e]
         -AE
0000007E  EB5F              jmp short 0xdf
00000080  21932B2B2B2B      and [rbx+0x2b2b2b2b],edx
00000086  C23629            ret 0x2936
00000089  2B2B              sub ebp,[rbx]
0000008B  A06ED7A8CB29AEEB  mov al,[qword 0x5febae29cba8d76e]
         -5F
00000094  21932B2B2B2B      and [rbx+0x2b2b2b2b],edx
0000009A  C22229            ret 0x2922
0000009D  2B2B              sub ebp,[rbx]
0000009F  A06ED70E2B2B0B2B  mov al,[qword 0xae2b0b2b2b0ed76e]
         -AE
000000A8  EB5E              jmp short 0x108
000000AA  21932B2B2B2B      and [rbx+0x2b2b2b2b],edx
000000B0  C2D82A            ret 0x2ad8
000000B3  2B2B              sub ebp,[rbx]
000000B5  A06ED70E2B2B232B  mov al,[qword 0xae2b232b2b0ed76e]
         -AE
000000BE  EB5E              jmp short 0x11e
000000C0  21932B2B2B2B      and [rbx+0x2b2b2b2b],edx
000000C6  C2F62A            ret 0x2af6
000000C9  2B2B              sub ebp,[rbx]
000000CB  A06ED70E2B2B2B6B  mov al,[qword 0xae6b2b2b2b0ed76e]
         -AE
000000D4  EB5E              jmp short 0x134
000000D6  21932B2B2B2B      and [rbx+0x2b2b2b2b],edx
000000DC  C2EC2A            ret 0x2aec
000000DF  2B2B              sub ebp,[rbx]
000000E1  A06ED70EAB2B2B2B  mov al,[qword 0xae2b2b2bab0ed76e]
         -AE
000000EA  EB5E              jmp short 0x14a
000000EC  21932B2B2B2B      and [rbx+0x2b2b2b2b],edx
000000F2  C29A2A            ret 0x2a9a
000000F5  2B2B              sub ebp,[rbx]
000000F7  A06ED70E2B2B2B2F  mov al,[qword 0xae2f2b2b2b0ed76e]
         -AE
00000100  EB5F              jmp short 0x161
00000102  21932B2B2B2B      and [rbx+0x2b2b2b2b],edx
00000108  C2B02A            ret 0x2ab0
0000010B  2B2B              sub ebp,[rbx]
0000010D  A06ED70E2BAB2B2B  mov al,[qword 0xae2b2bab2b0ed76e]
         -AE
00000116  EB5F              jmp short 0x177
00000118  21932B2B2B2B      and [rbx+0x2b2b2b2b],edx
0000011E  C2AE2A            ret 0x2aae
00000121  2B2B              sub ebp,[rbx]
00000123  A06ED7A8CB3BAEEB  mov al,[qword 0x5eebae3bcba8d76e]
         -5E
0000012C  21932B2B2B2B      and [rbx+0x2b2b2b2b],edx
00000132  C25A2A            ret 0x2a5a
00000135  2B2B              sub ebp,[rbx]
00000137  A06ED7A8CB23AEEB  mov al,[qword 0x5febae23cba8d76e]
         -5F
00000140  21932B2B2B2B      and [rbx+0x2b2b2b2b],edx
00000146  C2762A            ret 0x2a76
00000149  2B2B              sub ebp,[rbx]
0000014B  A06ED7A8CB2FAEEB  mov al,[qword 0x5febae2fcba8d76e]
         -5F
00000154  21932B2B2B2B      and [rbx+0x2b2b2b2b],edx
0000015A  C2622A            ret 0x2a62
0000015D  2B2B              sub ebp,[rbx]
0000015F  A06ED70E2B2F2B2B  mov al,[qword 0xae2b2b2f2b0ed76e]
         -AE
00000168  EB5F              jmp short 0x1c9
0000016A  21932B2B2B2B      and [rbx+0x2b2b2b2b],edx
00000170  C2182A            ret 0x2a18
00000173  2B2B              sub ebp,[rbx]
00000175  A06ED7AEEB522193  mov al,[qword 0x2b932152ebaed76e]
         -2B
0000017E  2B2B              sub ebp,[rbx]
00000180  2BC2              sub eax,edx
00000182  092A              or [rdx],ebp
00000184  2B2B              sub ebp,[rbx]
00000186  A06ED70E2B0B2B2B  mov al,[qword 0xae2b2b0b2b0ed76e]
         -AE
0000018F  EB5F              jmp short 0x1f0
00000191  21932B2B2B2B      and [rbx+0x2b2b2b2b],edx
00000197  C2272A            ret 0x2a27
0000019A  2B2B              sub ebp,[rbx]
0000019C  A06ED70E2B2B2B29  mov al,[qword 0xae292b2b2b0ed76e]
         -AE
000001A5  EB5E              jmp short 0x205
000001A7  21932B2B2B2B      and [rbx+0x2b2b2b2b],edx
000001AD  C2DD2B            ret 0x2bdd
000001B0  2B2B              sub ebp,[rbx]
000001B2  A06ED70E2B2B2F2B  mov al,[qword 0xae2b2f2b2b0ed76e]
         -AE
000001BB  EB5E              jmp short 0x21b
000001BD  21932B2B2B2B      and [rbx+0x2b2b2b2b],edx
000001C3  C2CB2B            ret 0x2bcb
000001C6  2B2B              sub ebp,[rbx]
000001C8  A06ED70E2B2B2B23  mov al,[qword 0xae232b2b2b0ed76e]
         -AE
000001D1  EB5F              jmp short 0x232
000001D3  21932B2B2B2B      and [rbx+0x2b2b2b2b],edx
000001D9  C2E12B            ret 0x2be1
000001DC  2B2B              sub ebp,[rbx]
000001DE  A06ED70E2B2B3B2B  mov al,[qword 0xae2b3b2b2b0ed76e]
         -AE
000001E7  EB5F              jmp short 0x248
000001E9  21932B2B2B2B      and [rbx+0x2b2b2b2b],edx
000001EF  C29F2B            ret 0x2b9f
000001F2  2B2B              sub ebp,[rbx]
000001F4  A06ED70E2B2B292B  mov al,[qword 0xae2b292b2b0ed76e]
         -AE
000001FD  EB5F              jmp short 0x25e
000001FF  21932B2B2B2B      and [rbx+0x2b2b2b2b],edx
00000205  C2B52B            ret 0x2bb5
00000208  2B2B              sub ebp,[rbx]
0000020A  A06ED70E2B3B2B2B  mov al,[qword 0xae2b2b3b2b0ed76e]
         -AE
00000213  EB5E              jmp short 0x273
00000215  21932B2B2B2B      and [rbx+0x2b2b2b2b],edx
0000021B  C2A32B            ret 0x2ba3
0000021E  2B2B              sub ebp,[rbx]
00000220  A06ED70E2B232B2B  mov al,[qword 0xae2b2b232b0ed76e]
         -AE
00000229  EB5E              jmp short 0x289
0000022B  2C93              sub al,0x93
0000022D  2B2B              sub ebp,[rbx]
0000022F  2B2B              sub ebp,[rbx]
00000231  C05EA06E          rcr byte [rsi-0x60],byte 0x6e
00000235  D7                xlatb
00000236  0E                db 0x0e
00000237  2B2B              sub ebp,[rbx]
00000239  2A2B              sub ch,[rbx]
0000023B  AE                scasb
0000023C  EB5E              jmp short 0x29c
0000023E  2C93              sub al,0x93
00000240  2B2B              sub ebp,[rbx]
00000242  2B2B              sub ebp,[rbx]
00000244  C049A06E          ror byte [rcx-0x60],byte 0x6e
00000248  D7                xlatb
00000249  A8CB              test al,0xcb
0000024B  0BAEEB5E2C93      or ebp,[rsi-0x6cd3a115]
00000251  2B2B              sub ebp,[rbx]
00000253  2B2B              sub ebp,[rbx]
00000255  C07AA06E          sar byte [rdx-0x60],byte 0x6e
00000259  D7                xlatb
0000025A  0E                db 0x0e
0000025B  2B29              sub ebp,[rcx]
0000025D  2B2B              sub ebp,[rbx]
0000025F  AE                scasb
00000260  EB5F              jmp short 0x2c1
00000262  2C93              sub al,0x93
00000264  2B2B              sub ebp,[rbx]
00000266  2B2B              sub ebp,[rbx]
00000268  C015A06ED70E2B    rcl byte [rel 0xed7710f],byte 0x2b
0000026F  6B2B2B            imul ebp,[rbx],byte +0x2b
00000272  AE                scasb
00000273  EB5F              jmp short 0x2d4
00000275  2C93              sub al,0x93
00000277  2B2B              sub ebp,[rbx]
00000279  2B2B              sub ebp,[rbx]
0000027B  C000A0            rol byte [rax],byte 0xa0
0000027E  6E                outsb
0000027F  D7                xlatb
00000280  0E                db 0x0e
00000281  2B2A              sub ebp,[rdx]
00000283  2B2B              sub ebp,[rbx]
00000285  AE                scasb
00000286  EB5E              jmp short 0x2e6
00000288  2C93              sub al,0x93
0000028A  2B2B              sub ebp,[rbx]
0000028C  2B2B              sub ebp,[rbx]
0000028E  C0                db 0xc0
0000028F  33A06ED70E2B      xor esp,[rax+0x2b0ed76e]
00000295  2BAB2BAEEB5E      sub ebp,[rbx+0x5eebae2b]
0000029B  2C93              sub al,0x93
0000029D  2B2B              sub ebp,[rbx]
0000029F  2B2B              sub ebp,[rbx]
000002A1  C02E93            shr byte [rsi],byte 0x93
000002A4  2A2B              sub ch,[rbx]
000002A6  2B2B              sub ebp,[rbx]
000002A8  76                db 0x76
